Archive member included to satisfy reference by file (symbol)

/usr/local/Cellar/arm-none-eabi-gcc@8/8.5.0_2/lib/arm-none-eabi-gcc/8/gcc/arm-none-eabi/8.5.0/../../../../../../arm-none-eabi/lib/thumb/v6-m/nofp/libg_nano.a(lib_a-ctype_.o)
                              .build/obj_converter_cumulus_ta15_vial/quantum/send_string/send_string.o (symbol from plugin) (_ctype_)
/usr/local/Cellar/arm-none-eabi-gcc@8/8.5.0_2/lib/arm-none-eabi-gcc/8/gcc/arm-none-eabi/8.5.0/../../../../../../arm-none-eabi/lib/thumb/v6-m/nofp/libg_nano.a(lib_a-errno.o)
                              .build/obj_converter_cumulus_ta15/platforms/chibios/syscall-fallbacks.o (symbol from plugin) (__errno)
/usr/local/Cellar/arm-none-eabi-gcc@8/8.5.0_2/lib/arm-none-eabi-gcc/8/gcc/arm-none-eabi/8.5.0/../../../../../../arm-none-eabi/lib/thumb/v6-m/nofp/libg_nano.a(lib_a-impure.o)
                              /usr/local/Cellar/arm-none-eabi-gcc@8/8.5.0_2/lib/arm-none-eabi-gcc/8/gcc/arm-none-eabi/8.5.0/../../../../../../arm-none-eabi/lib/thumb/v6-m/nofp/libg_nano.a(lib_a-errno.o) (_impure_ptr)
/usr/local/Cellar/arm-none-eabi-gcc@8/8.5.0_2/lib/arm-none-eabi-gcc/8/gcc/arm-none-eabi/8.5.0/../../../../../../arm-none-eabi/lib/thumb/v6-m/nofp/libg_nano.a(lib_a-rand.o)
                              .build/obj_converter_cumulus_ta15_vial/quantum/send_string/send_string.o (symbol from plugin) (rand)
/usr/local/Cellar/arm-none-eabi-gcc@8/8.5.0_2/lib/arm-none-eabi-gcc/8/gcc/arm-none-eabi/8.5.0/../../../../../../arm-none-eabi/lib/thumb/v6-m/nofp/libg_nano.a(lib_a-assert.o)
                              /usr/local/Cellar/arm-none-eabi-gcc@8/8.5.0_2/lib/arm-none-eabi-gcc/8/gcc/arm-none-eabi/8.5.0/../../../../../../arm-none-eabi/lib/thumb/v6-m/nofp/libg_nano.a(lib_a-rand.o) (__assert_func)
/usr/local/Cellar/arm-none-eabi-gcc@8/8.5.0_2/lib/arm-none-eabi-gcc/8/gcc/arm-none-eabi/8.5.0/../../../../../../arm-none-eabi/lib/thumb/v6-m/nofp/libg_nano.a(lib_a-fprintf.o)
                              /usr/local/Cellar/arm-none-eabi-gcc@8/8.5.0_2/lib/arm-none-eabi-gcc/8/gcc/arm-none-eabi/8.5.0/../../../../../../arm-none-eabi/lib/thumb/v6-m/nofp/libg_nano.a(lib_a-assert.o) (fiprintf)
/usr/local/Cellar/arm-none-eabi-gcc@8/8.5.0_2/lib/arm-none-eabi-gcc/8/gcc/arm-none-eabi/8.5.0/../../../../../../arm-none-eabi/lib/thumb/v6-m/nofp/libg_nano.a(lib_a-malloc.o)
                              /usr/local/Cellar/arm-none-eabi-gcc@8/8.5.0_2/lib/arm-none-eabi-gcc/8/gcc/arm-none-eabi/8.5.0/../../../../../../arm-none-eabi/lib/thumb/v6-m/nofp/libg_nano.a(lib_a-rand.o) (malloc)
/usr/local/Cellar/arm-none-eabi-gcc@8/8.5.0_2/lib/arm-none-eabi-gcc/8/gcc/arm-none-eabi/8.5.0/../../../../../../arm-none-eabi/lib/thumb/v6-m/nofp/libg_nano.a(lib_a-nano-freer.o)
                              /usr/local/Cellar/arm-none-eabi-gcc@8/8.5.0_2/lib/arm-none-eabi-gcc/8/gcc/arm-none-eabi/8.5.0/../../../../../../arm-none-eabi/lib/thumb/v6-m/nofp/libg_nano.a(lib_a-malloc.o) (_free_r)
/usr/local/Cellar/arm-none-eabi-gcc@8/8.5.0_2/lib/arm-none-eabi-gcc/8/gcc/arm-none-eabi/8.5.0/../../../../../../arm-none-eabi/lib/thumb/v6-m/nofp/libg_nano.a(lib_a-nano-mallocr.o)
                              /usr/local/Cellar/arm-none-eabi-gcc@8/8.5.0_2/lib/arm-none-eabi-gcc/8/gcc/arm-none-eabi/8.5.0/../../../../../../arm-none-eabi/lib/thumb/v6-m/nofp/libg_nano.a(lib_a-malloc.o) (_malloc_r)
/usr/local/Cellar/arm-none-eabi-gcc@8/8.5.0_2/lib/arm-none-eabi-gcc/8/gcc/arm-none-eabi/8.5.0/../../../../../../arm-none-eabi/lib/thumb/v6-m/nofp/libg_nano.a(lib_a-nano-vfprintf.o)
                              /usr/local/Cellar/arm-none-eabi-gcc@8/8.5.0_2/lib/arm-none-eabi-gcc/8/gcc/arm-none-eabi/8.5.0/../../../../../../arm-none-eabi/lib/thumb/v6-m/nofp/libg_nano.a(lib_a-fprintf.o) (_vfprintf_r)
/usr/local/Cellar/arm-none-eabi-gcc@8/8.5.0_2/lib/arm-none-eabi-gcc/8/gcc/arm-none-eabi/8.5.0/../../../../../../arm-none-eabi/lib/thumb/v6-m/nofp/libg_nano.a(lib_a-nano-vfprintf_i.o)
                              /usr/local/Cellar/arm-none-eabi-gcc@8/8.5.0_2/lib/arm-none-eabi-gcc/8/gcc/arm-none-eabi/8.5.0/../../../../../../arm-none-eabi/lib/thumb/v6-m/nofp/libg_nano.a(lib_a-nano-vfprintf.o) (_printf_i)
/usr/local/Cellar/arm-none-eabi-gcc@8/8.5.0_2/lib/arm-none-eabi-gcc/8/gcc/arm-none-eabi/8.5.0/../../../../../../arm-none-eabi/lib/thumb/v6-m/nofp/libg_nano.a(lib_a-wbuf.o)
                              /usr/local/Cellar/arm-none-eabi-gcc@8/8.5.0_2/lib/arm-none-eabi-gcc/8/gcc/arm-none-eabi/8.5.0/../../../../../../arm-none-eabi/lib/thumb/v6-m/nofp/libg_nano.a(lib_a-nano-vfprintf.o) (__swbuf_r)
/usr/local/Cellar/arm-none-eabi-gcc@8/8.5.0_2/lib/arm-none-eabi-gcc/8/gcc/arm-none-eabi/8.5.0/../../../../../../arm-none-eabi/lib/thumb/v6-m/nofp/libg_nano.a(lib_a-wsetup.o)
                              /usr/local/Cellar/arm-none-eabi-gcc@8/8.5.0_2/lib/arm-none-eabi-gcc/8/gcc/arm-none-eabi/8.5.0/../../../../../../arm-none-eabi/lib/thumb/v6-m/nofp/libg_nano.a(lib_a-nano-vfprintf.o) (__swsetup_r)
/usr/local/Cellar/arm-none-eabi-gcc@8/8.5.0_2/lib/arm-none-eabi-gcc/8/gcc/arm-none-eabi/8.5.0/../../../../../../arm-none-eabi/lib/thumb/v6-m/nofp/libg_nano.a(lib_a-abort.o)
                              /usr/local/Cellar/arm-none-eabi-gcc@8/8.5.0_2/lib/arm-none-eabi-gcc/8/gcc/arm-none-eabi/8.5.0/../../../../../../arm-none-eabi/lib/thumb/v6-m/nofp/libg_nano.a(lib_a-assert.o) (abort)
/usr/local/Cellar/arm-none-eabi-gcc@8/8.5.0_2/lib/arm-none-eabi-gcc/8/gcc/arm-none-eabi/8.5.0/../../../../../../arm-none-eabi/lib/thumb/v6-m/nofp/libg_nano.a(lib_a-fflush.o)
                              /usr/local/Cellar/arm-none-eabi-gcc@8/8.5.0_2/lib/arm-none-eabi-gcc/8/gcc/arm-none-eabi/8.5.0/../../../../../../arm-none-eabi/lib/thumb/v6-m/nofp/libg_nano.a(lib_a-wbuf.o) (_fflush_r)
/usr/local/Cellar/arm-none-eabi-gcc@8/8.5.0_2/lib/arm-none-eabi-gcc/8/gcc/arm-none-eabi/8.5.0/../../../../../../arm-none-eabi/lib/thumb/v6-m/nofp/libg_nano.a(lib_a-findfp.o)
                              /usr/local/Cellar/arm-none-eabi-gcc@8/8.5.0_2/lib/arm-none-eabi-gcc/8/gcc/arm-none-eabi/8.5.0/../../../../../../arm-none-eabi/lib/thumb/v6-m/nofp/libg_nano.a(lib_a-nano-vfprintf.o) (__sinit)
/usr/local/Cellar/arm-none-eabi-gcc@8/8.5.0_2/lib/arm-none-eabi-gcc/8/gcc/arm-none-eabi/8.5.0/../../../../../../arm-none-eabi/lib/thumb/v6-m/nofp/libg_nano.a(lib_a-fvwrite.o)
                              /usr/local/Cellar/arm-none-eabi-gcc@8/8.5.0_2/lib/arm-none-eabi-gcc/8/gcc/arm-none-eabi/8.5.0/../../../../../../arm-none-eabi/lib/thumb/v6-m/nofp/libg_nano.a(lib_a-nano-vfprintf.o) (__sfvwrite_r)
/usr/local/Cellar/arm-none-eabi-gcc@8/8.5.0_2/lib/arm-none-eabi-gcc/8/gcc/arm-none-eabi/8.5.0/../../../../../../arm-none-eabi/lib/thumb/v6-m/nofp/libg_nano.a(lib_a-fwalk.o)
                              /usr/local/Cellar/arm-none-eabi-gcc@8/8.5.0_2/lib/arm-none-eabi-gcc/8/gcc/arm-none-eabi/8.5.0/../../../../../../arm-none-eabi/lib/thumb/v6-m/nofp/libg_nano.a(lib_a-findfp.o) (_fwalk)
/usr/local/Cellar/arm-none-eabi-gcc@8/8.5.0_2/lib/arm-none-eabi-gcc/8/gcc/arm-none-eabi/8.5.0/../../../../../../arm-none-eabi/lib/thumb/v6-m/nofp/libg_nano.a(lib_a-lock.o)
                              /usr/local/Cellar/arm-none-eabi-gcc@8/8.5.0_2/lib/arm-none-eabi-gcc/8/gcc/arm-none-eabi/8.5.0/../../../../../../arm-none-eabi/lib/thumb/v6-m/nofp/libg_nano.a(lib_a-findfp.o) (__retarget_lock_init_recursive)
/usr/local/Cellar/arm-none-eabi-gcc@8/8.5.0_2/lib/arm-none-eabi-gcc/8/gcc/arm-none-eabi/8.5.0/../../../../../../arm-none-eabi/lib/thumb/v6-m/nofp/libg_nano.a(lib_a-makebuf.o)
                              /usr/local/Cellar/arm-none-eabi-gcc@8/8.5.0_2/lib/arm-none-eabi-gcc/8/gcc/arm-none-eabi/8.5.0/../../../../../../arm-none-eabi/lib/thumb/v6-m/nofp/libg_nano.a(lib_a-wsetup.o) (__smakebuf_r)
/usr/local/Cellar/arm-none-eabi-gcc@8/8.5.0_2/lib/arm-none-eabi-gcc/8/gcc/arm-none-eabi/8.5.0/../../../../../../arm-none-eabi/lib/thumb/v6-m/nofp/libg_nano.a(lib_a-memchr-stub.o)
                              /usr/local/Cellar/arm-none-eabi-gcc@8/8.5.0_2/lib/arm-none-eabi-gcc/8/gcc/arm-none-eabi/8.5.0/../../../../../../arm-none-eabi/lib/thumb/v6-m/nofp/libg_nano.a(lib_a-nano-vfprintf.o) (memchr)
/usr/local/Cellar/arm-none-eabi-gcc@8/8.5.0_2/lib/arm-none-eabi-gcc/8/gcc/arm-none-eabi/8.5.0/../../../../../../arm-none-eabi/lib/thumb/v6-m/nofp/libg_nano.a(lib_a-memcpy-stub.o)
                              /usr/local/Cellar/arm-none-eabi-gcc@8/8.5.0_2/lib/arm-none-eabi-gcc/8/gcc/arm-none-eabi/8.5.0/../../../../../../arm-none-eabi/lib/thumb/v6-m/nofp/libg_nano.a(lib_a-fvwrite.o) (memcpy)
/usr/local/Cellar/arm-none-eabi-gcc@8/8.5.0_2/lib/arm-none-eabi-gcc/8/gcc/arm-none-eabi/8.5.0/../../../../../../arm-none-eabi/lib/thumb/v6-m/nofp/libg_nano.a(lib_a-memmove.o)
                              /usr/local/Cellar/arm-none-eabi-gcc@8/8.5.0_2/lib/arm-none-eabi-gcc/8/gcc/arm-none-eabi/8.5.0/../../../../../../arm-none-eabi/lib/thumb/v6-m/nofp/libg_nano.a(lib_a-fvwrite.o) (memmove)
/usr/local/Cellar/arm-none-eabi-gcc@8/8.5.0_2/lib/arm-none-eabi-gcc/8/gcc/arm-none-eabi/8.5.0/../../../../../../arm-none-eabi/lib/thumb/v6-m/nofp/libg_nano.a(lib_a-memset.o)
                              /usr/local/Cellar/arm-none-eabi-gcc@8/8.5.0_2/lib/arm-none-eabi-gcc/8/gcc/arm-none-eabi/8.5.0/../../../../../../arm-none-eabi/lib/thumb/v6-m/nofp/libg_nano.a(lib_a-findfp.o) (memset)
/usr/local/Cellar/arm-none-eabi-gcc@8/8.5.0_2/lib/arm-none-eabi-gcc/8/gcc/arm-none-eabi/8.5.0/../../../../../../arm-none-eabi/lib/thumb/v6-m/nofp/libg_nano.a(lib_a-mlock.o)
                              /usr/local/Cellar/arm-none-eabi-gcc@8/8.5.0_2/lib/arm-none-eabi-gcc/8/gcc/arm-none-eabi/8.5.0/../../../../../../arm-none-eabi/lib/thumb/v6-m/nofp/libg_nano.a(lib_a-nano-freer.o) (__malloc_lock)
/usr/local/Cellar/arm-none-eabi-gcc@8/8.5.0_2/lib/arm-none-eabi-gcc/8/gcc/arm-none-eabi/8.5.0/../../../../../../arm-none-eabi/lib/thumb/v6-m/nofp/libg_nano.a(lib_a-nano-reallocr.o)
                              /usr/local/Cellar/arm-none-eabi-gcc@8/8.5.0_2/lib/arm-none-eabi-gcc/8/gcc/arm-none-eabi/8.5.0/../../../../../../arm-none-eabi/lib/thumb/v6-m/nofp/libg_nano.a(lib_a-fvwrite.o) (_realloc_r)
/usr/local/Cellar/arm-none-eabi-gcc@8/8.5.0_2/lib/arm-none-eabi-gcc/8/gcc/arm-none-eabi/8.5.0/../../../../../../arm-none-eabi/lib/thumb/v6-m/nofp/libg_nano.a(lib_a-signal.o)
                              /usr/local/Cellar/arm-none-eabi-gcc@8/8.5.0_2/lib/arm-none-eabi-gcc/8/gcc/arm-none-eabi/8.5.0/../../../../../../arm-none-eabi/lib/thumb/v6-m/nofp/libg_nano.a(lib_a-abort.o) (raise)
/usr/local/Cellar/arm-none-eabi-gcc@8/8.5.0_2/lib/arm-none-eabi-gcc/8/gcc/arm-none-eabi/8.5.0/../../../../../../arm-none-eabi/lib/thumb/v6-m/nofp/libg_nano.a(lib_a-signalr.o)
                              /usr/local/Cellar/arm-none-eabi-gcc@8/8.5.0_2/lib/arm-none-eabi-gcc/8/gcc/arm-none-eabi/8.5.0/../../../../../../arm-none-eabi/lib/thumb/v6-m/nofp/libg_nano.a(lib_a-signal.o) (_kill_r)
/usr/local/Cellar/arm-none-eabi-gcc@8/8.5.0_2/lib/arm-none-eabi-gcc/8/gcc/arm-none-eabi/8.5.0/../../../../../../arm-none-eabi/lib/thumb/v6-m/nofp/libg_nano.a(lib_a-stdio.o)
                              /usr/local/Cellar/arm-none-eabi-gcc@8/8.5.0_2/lib/arm-none-eabi-gcc/8/gcc/arm-none-eabi/8.5.0/../../../../../../arm-none-eabi/lib/thumb/v6-m/nofp/libg_nano.a(lib_a-findfp.o) (__sread)
/usr/local/Cellar/arm-none-eabi-gcc@8/8.5.0_2/lib/arm-none-eabi-gcc/8/gcc/arm-none-eabi/8.5.0/../../../../../../arm-none-eabi/lib/thumb/v6-m/nofp/libg_nano.a(lib_a-nano-msizer.o)
                              /usr/local/Cellar/arm-none-eabi-gcc@8/8.5.0_2/lib/arm-none-eabi-gcc/8/gcc/arm-none-eabi/8.5.0/../../../../../../arm-none-eabi/lib/thumb/v6-m/nofp/libg_nano.a(lib_a-nano-reallocr.o) (_malloc_usable_size_r)
/usr/local/Cellar/arm-none-eabi-gcc@8/8.5.0_2/lib/arm-none-eabi-gcc/8/gcc/arm-none-eabi/8.5.0/../../../../../../arm-none-eabi/lib/thumb/v6-m/nofp/libg_nano.a(lib_a-reent.o)
                              /usr/local/Cellar/arm-none-eabi-gcc@8/8.5.0_2/lib/arm-none-eabi-gcc/8/gcc/arm-none-eabi/8.5.0/../../../../../../arm-none-eabi/lib/thumb/v6-m/nofp/libg_nano.a(lib_a-signalr.o) (errno)
/usr/local/Cellar/arm-none-eabi-gcc@8/8.5.0_2/lib/arm-none-eabi-gcc/8/gcc/arm-none-eabi/8.5.0/thumb/v6-m/nofp/libgcc.a(_udivsi3.o)
                              /usr/local/Cellar/arm-none-eabi-gcc@8/8.5.0_2/lib/arm-none-eabi-gcc/8/gcc/arm-none-eabi/8.5.0/../../../../../../arm-none-eabi/lib/thumb/v6-m/nofp/libg_nano.a(lib_a-nano-vfprintf_i.o) (__aeabi_uidivmod)
/usr/local/Cellar/arm-none-eabi-gcc@8/8.5.0_2/lib/arm-none-eabi-gcc/8/gcc/arm-none-eabi/8.5.0/thumb/v6-m/nofp/libgcc.a(_divsi3.o)
                              /usr/local/Cellar/arm-none-eabi-gcc@8/8.5.0_2/lib/arm-none-eabi-gcc/8/gcc/arm-none-eabi/8.5.0/../../../../../../arm-none-eabi/lib/thumb/v6-m/nofp/libg_nano.a(lib_a-fvwrite.o) (__aeabi_idiv)
/usr/local/Cellar/arm-none-eabi-gcc@8/8.5.0_2/lib/arm-none-eabi-gcc/8/gcc/arm-none-eabi/8.5.0/thumb/v6-m/nofp/libgcc.a(_dvmd_tls.o)
                              /usr/local/Cellar/arm-none-eabi-gcc@8/8.5.0_2/lib/arm-none-eabi-gcc/8/gcc/arm-none-eabi/8.5.0/thumb/v6-m/nofp/libgcc.a(_udivsi3.o) (__aeabi_idiv0)
/usr/local/Cellar/arm-none-eabi-gcc@8/8.5.0_2/lib/arm-none-eabi-gcc/8/gcc/arm-none-eabi/8.5.0/thumb/v6-m/nofp/libgcc.a(_muldi3.o)
                              /usr/local/Cellar/arm-none-eabi-gcc@8/8.5.0_2/lib/arm-none-eabi-gcc/8/gcc/arm-none-eabi/8.5.0/../../../../../../arm-none-eabi/lib/thumb/v6-m/nofp/libg_nano.a(lib_a-rand.o) (__aeabi_lmul)
/usr/local/Cellar/arm-none-eabi-gcc@8/8.5.0_2/lib/arm-none-eabi-gcc/8/gcc/arm-none-eabi/8.5.0/thumb/v6-m/nofp/libgcc.a(_thumb1_case_sqi.o)
                              /var/folders/x9/cy1bx1f960zd_7xhdrxmk_zm0000gn/T//cc8Nwo3z.ltrans0.ltrans.o (__gnu_thumb1_case_sqi)
/usr/local/Cellar/arm-none-eabi-gcc@8/8.5.0_2/lib/arm-none-eabi-gcc/8/gcc/arm-none-eabi/8.5.0/thumb/v6-m/nofp/libgcc.a(_thumb1_case_uqi.o)
                              /var/folders/x9/cy1bx1f960zd_7xhdrxmk_zm0000gn/T//cc8Nwo3z.ltrans0.ltrans.o (__gnu_thumb1_case_uqi)
/usr/local/Cellar/arm-none-eabi-gcc@8/8.5.0_2/lib/arm-none-eabi-gcc/8/gcc/arm-none-eabi/8.5.0/thumb/v6-m/nofp/libgcc.a(_thumb1_case_shi.o)
                              /var/folders/x9/cy1bx1f960zd_7xhdrxmk_zm0000gn/T//cc8Nwo3z.ltrans0.ltrans.o (__gnu_thumb1_case_shi)
/usr/local/Cellar/arm-none-eabi-gcc@8/8.5.0_2/lib/arm-none-eabi-gcc/8/gcc/arm-none-eabi/8.5.0/thumb/v6-m/nofp/libgcc.a(_thumb1_case_uhi.o)
                              /var/folders/x9/cy1bx1f960zd_7xhdrxmk_zm0000gn/T//cc8Nwo3z.ltrans0.ltrans.o (__gnu_thumb1_case_uhi)
/usr/local/Cellar/arm-none-eabi-gcc@8/8.5.0_2/lib/arm-none-eabi-gcc/8/gcc/arm-none-eabi/8.5.0/thumb/v6-m/nofp/libgcc.a(_aeabi_ldivmod.o)
                              /var/folders/x9/cy1bx1f960zd_7xhdrxmk_zm0000gn/T//cc8Nwo3z.ltrans0.ltrans.o (__aeabi_ldivmod)
/usr/local/Cellar/arm-none-eabi-gcc@8/8.5.0_2/lib/arm-none-eabi-gcc/8/gcc/arm-none-eabi/8.5.0/thumb/v6-m/nofp/libgcc.a(_aeabi_uldivmod.o)
                              /var/folders/x9/cy1bx1f960zd_7xhdrxmk_zm0000gn/T//cc8Nwo3z.ltrans0.ltrans.o (__aeabi_uldivmod)
/usr/local/Cellar/arm-none-eabi-gcc@8/8.5.0_2/lib/arm-none-eabi-gcc/8/gcc/arm-none-eabi/8.5.0/thumb/v6-m/nofp/libgcc.a(_udivmoddi4.o)
                              /usr/local/Cellar/arm-none-eabi-gcc@8/8.5.0_2/lib/arm-none-eabi-gcc/8/gcc/arm-none-eabi/8.5.0/thumb/v6-m/nofp/libgcc.a(_aeabi_uldivmod.o) (__udivmoddi4)
/usr/local/Cellar/arm-none-eabi-gcc@8/8.5.0_2/lib/arm-none-eabi-gcc/8/gcc/arm-none-eabi/8.5.0/thumb/v6-m/nofp/libgcc.a(bpabi.o)
                              /usr/local/Cellar/arm-none-eabi-gcc@8/8.5.0_2/lib/arm-none-eabi-gcc/8/gcc/arm-none-eabi/8.5.0/thumb/v6-m/nofp/libgcc.a(_aeabi_ldivmod.o) (__gnu_ldivmod_helper)
/usr/local/Cellar/arm-none-eabi-gcc@8/8.5.0_2/lib/arm-none-eabi-gcc/8/gcc/arm-none-eabi/8.5.0/thumb/v6-m/nofp/libgcc.a(_clzdi2.o)
                              /usr/local/Cellar/arm-none-eabi-gcc@8/8.5.0_2/lib/arm-none-eabi-gcc/8/gcc/arm-none-eabi/8.5.0/thumb/v6-m/nofp/libgcc.a(_udivmoddi4.o) (__clzdi2)
/usr/local/Cellar/arm-none-eabi-gcc@8/8.5.0_2/lib/arm-none-eabi-gcc/8/gcc/arm-none-eabi/8.5.0/thumb/v6-m/nofp/libgcc.a(_divdi3.o)
                              /usr/local/Cellar/arm-none-eabi-gcc@8/8.5.0_2/lib/arm-none-eabi-gcc/8/gcc/arm-none-eabi/8.5.0/thumb/v6-m/nofp/libgcc.a(bpabi.o) (__divdi3)
/usr/local/Cellar/arm-none-eabi-gcc@8/8.5.0_2/lib/arm-none-eabi-gcc/8/gcc/arm-none-eabi/8.5.0/thumb/v6-m/nofp/libgcc.a(_clzsi2.o)
                              /usr/local/Cellar/arm-none-eabi-gcc@8/8.5.0_2/lib/arm-none-eabi-gcc/8/gcc/arm-none-eabi/8.5.0/thumb/v6-m/nofp/libgcc.a(_clzdi2.o) (__clzsi2)
/usr/local/Cellar/arm-none-eabi-gcc@8/8.5.0_2/lib/arm-none-eabi-gcc/8/gcc/arm-none-eabi/8.5.0/../../../../../../arm-none-eabi/lib/thumb/v6-m/nofp/libg_nano.a(lib_a-memcmp.o)
                              /var/folders/x9/cy1bx1f960zd_7xhdrxmk_zm0000gn/T//cc8Nwo3z.ltrans0.ltrans.o (memcmp)

Allocating common symbols
Common symbol       size              file

event_queue         0x10              .build/obj_converter_cumulus_ta15_vial/protocol/chibios/usb_main.o (symbol from plugin)
__lock___atexit_recursive_mutex
                    0x1               /usr/local/Cellar/arm-none-eabi-gcc@8/8.5.0_2/lib/arm-none-eabi-gcc/8/gcc/arm-none-eabi/8.5.0/../../../../../../arm-none-eabi/lib/thumb/v6-m/nofp/libg_nano.a(lib_a-lock.o)
__lock___arc4random_mutex
                    0x1               /usr/local/Cellar/arm-none-eabi-gcc@8/8.5.0_2/lib/arm-none-eabi-gcc/8/gcc/arm-none-eabi/8.5.0/../../../../../../arm-none-eabi/lib/thumb/v6-m/nofp/libg_nano.a(lib_a-lock.o)
unicode_saved_num_lock
                    0x1               .build/obj_converter_cumulus_ta15_vial/quantum/process_keycode/process_unicode_common.o (symbol from plugin)
event_queue_head    0x1               .build/obj_converter_cumulus_ta15_vial/protocol/chibios/usb_main.o (symbol from plugin)
errno               0x4               /usr/local/Cellar/arm-none-eabi-gcc@8/8.5.0_2/lib/arm-none-eabi-gcc/8/gcc/arm-none-eabi/8.5.0/../../../../../../arm-none-eabi/lib/thumb/v6-m/nofp/libg_nano.a(lib_a-reent.o)
SystemCoreClock     0x4               .build/obj_converter_cumulus_ta15/lib/chibios/os/hal/ports/RP/RP2040/hal_lld.o (symbol from plugin)
key_combos_keys     0x28              .build/obj_converter_cumulus_ta15_vial/quantum/vial.o (symbol from plugin)
unicode_config      0x4               .build/obj_converter_cumulus_ta15_vial/quantum/process_keycode/process_unicode_common.o (symbol from plugin)
__lock___env_recursive_mutex
                    0x1               /usr/local/Cellar/arm-none-eabi-gcc@8/8.5.0_2/lib/arm-none-eabi-gcc/8/gcc/arm-none-eabi/8.5.0/../../../../../../arm-none-eabi/lib/thumb/v6-m/nofp/libg_nano.a(lib_a-lock.o)
__lock___sinit_recursive_mutex
                    0x1               /usr/local/Cellar/arm-none-eabi-gcc@8/8.5.0_2/lib/arm-none-eabi-gcc/8/gcc/arm-none-eabi/8.5.0/../../../../../../arm-none-eabi/lib/thumb/v6-m/nofp/libg_nano.a(lib_a-lock.o)
unicode_saved_mods  0x1               .build/obj_converter_cumulus_ta15_vial/quantum/process_keycode/process_unicode_common.o (symbol from plugin)
__lock___malloc_recursive_mutex
                    0x1               /usr/local/Cellar/arm-none-eabi-gcc@8/8.5.0_2/lib/arm-none-eabi-gcc/8/gcc/arm-none-eabi/8.5.0/../../../../../../arm-none-eabi/lib/thumb/v6-m/nofp/libg_nano.a(lib_a-lock.o)
raw_matrix          0x24              .build/obj_converter_cumulus_ta15_vial/quantum/matrix_common.o (symbol from plugin)
ch_system           0x10              .build/obj_converter_cumulus_ta15/lib/chibios/os/rt/src/chsys.o (symbol from plugin)
USBD1               0xe4              .build/obj_converter_cumulus_ta15/lib/chibios-contrib/os/hal/ports/RP/LLD/USBDv1/hal_usb_lld.o (symbol from plugin)
g_vial_magic_keycode_override
                    0x2               .build/obj_converter_cumulus_ta15_vial/quantum/vial.o (symbol from plugin)
matrix              0x24              .build/obj_converter_cumulus_ta15_vial/quantum/matrix_common.o (symbol from plugin)
tp_buttons          0x4               .build/obj_converter_cumulus_ta15_vial/quantum/action.o (symbol from plugin)
unicode_saved_caps_lock
                    0x1               .build/obj_converter_cumulus_ta15_vial/quantum/process_keycode/process_unicode_common.o (symbol from plugin)
event_queue_tail    0x1               .build/obj_converter_cumulus_ta15_vial/protocol/chibios/usb_main.o (symbol from plugin)
__lock___at_quick_exit_mutex
                    0x1               /usr/local/Cellar/arm-none-eabi-gcc@8/8.5.0_2/lib/arm-none-eabi-gcc/8/gcc/arm-none-eabi/8.5.0/../../../../../../arm-none-eabi/lib/thumb/v6-m/nofp/libg_nano.a(lib_a-lock.o)
ch_memcore          0x8               .build/obj_converter_cumulus_ta15_vial/./lib/chibios/os/oslib/src/chmemcore.o (symbol from plugin)
__lock___dd_hash_mutex
                    0x1               /usr/local/Cellar/arm-none-eabi-gcc@8/8.5.0_2/lib/arm-none-eabi-gcc/8/gcc/arm-none-eabi/8.5.0/../../../../../../arm-none-eabi/lib/thumb/v6-m/nofp/libg_nano.a(lib_a-lock.o)
__lock___tz_mutex   0x1               /usr/local/Cellar/arm-none-eabi-gcc@8/8.5.0_2/lib/arm-none-eabi-gcc/8/gcc/arm-none-eabi/8.5.0/../../../../../../arm-none-eabi/lib/thumb/v6-m/nofp/libg_nano.a(lib_a-lock.o)
st_callbacks        0x10              .build/obj_converter_cumulus_ta15/lib/chibios/os/hal/src/hal_st.o (symbol from plugin)
__lock___sfp_recursive_mutex
                    0x1               /usr/local/Cellar/arm-none-eabi-gcc@8/8.5.0_2/lib/arm-none-eabi-gcc/8/gcc/arm-none-eabi/8.5.0/../../../../../../arm-none-eabi/lib/thumb/v6-m/nofp/libg_nano.a(lib_a-lock.o)

Discarded input sections

 .comment       0x00000000     0x17eb /var/folders/x9/cy1bx1f960zd_7xhdrxmk_zm0000gn/T//ccbHuJM1debugobj
 .text          0x00000000        0x0 /var/folders/x9/cy1bx1f960zd_7xhdrxmk_zm0000gn/T//cc8Nwo3z.ltrans0.ltrans.o
 .data          0x00000000        0x0 /var/folders/x9/cy1bx1f960zd_7xhdrxmk_zm0000gn/T//cc8Nwo3z.ltrans0.ltrans.o
 .bss           0x00000000        0x0 /var/folders/x9/cy1bx1f960zd_7xhdrxmk_zm0000gn/T//cc8Nwo3z.ltrans0.ltrans.o
 .text.chSysHalt
                0x00000000       0x24 /var/folders/x9/cy1bx1f960zd_7xhdrxmk_zm0000gn/T//cc8Nwo3z.ltrans0.ltrans.o
 .text._gettimeofday_r
                0x00000000        0x8 /var/folders/x9/cy1bx1f960zd_7xhdrxmk_zm0000gn/T//cc8Nwo3z.ltrans0.ltrans.o
 .text._link_r  0x00000000        0x8 /var/folders/x9/cy1bx1f960zd_7xhdrxmk_zm0000gn/T//cc8Nwo3z.ltrans0.ltrans.o
 .text._times_r
                0x00000000        0xa /var/folders/x9/cy1bx1f960zd_7xhdrxmk_zm0000gn/T//cc8Nwo3z.ltrans0.ltrans.o
 .text._unlink_r
                0x00000000        0x8 /var/folders/x9/cy1bx1f960zd_7xhdrxmk_zm0000gn/T//cc8Nwo3z.ltrans0.ltrans.o
 .text.__cxa_pure_virtual
                0x00000000        0xc /var/folders/x9/cy1bx1f960zd_7xhdrxmk_zm0000gn/T//cc8Nwo3z.ltrans0.ltrans.o
 .text._getpid  0x00000000        0x4 /var/folders/x9/cy1bx1f960zd_7xhdrxmk_zm0000gn/T//cc8Nwo3z.ltrans0.ltrans.o
 .text._kill    0x00000000        0xc /var/folders/x9/cy1bx1f960zd_7xhdrxmk_zm0000gn/T//cc8Nwo3z.ltrans0.ltrans.o
 .text._exit    0x00000000        0xc /var/folders/x9/cy1bx1f960zd_7xhdrxmk_zm0000gn/T//cc8Nwo3z.ltrans0.ltrans.o
 .text._isatty_r
                0x00000000        0x4 /var/folders/x9/cy1bx1f960zd_7xhdrxmk_zm0000gn/T//cc8Nwo3z.ltrans0.ltrans.o
 .text._fstat_r
                0x00000000       0x18 /var/folders/x9/cy1bx1f960zd_7xhdrxmk_zm0000gn/T//cc8Nwo3z.ltrans0.ltrans.o
 .text._sbrk_r  0x00000000       0x3c /var/folders/x9/cy1bx1f960zd_7xhdrxmk_zm0000gn/T//cc8Nwo3z.ltrans0.ltrans.o
 .text._close_r
                0x00000000        0x4 /var/folders/x9/cy1bx1f960zd_7xhdrxmk_zm0000gn/T//cc8Nwo3z.ltrans0.ltrans.o
 .text._open_r  0x00000000        0xa /var/folders/x9/cy1bx1f960zd_7xhdrxmk_zm0000gn/T//cc8Nwo3z.ltrans0.ltrans.o
 .text._write_r
                0x00000000        0x4 /var/folders/x9/cy1bx1f960zd_7xhdrxmk_zm0000gn/T//cc8Nwo3z.ltrans0.ltrans.o
 .text._lseek_r
                0x00000000        0x4 /var/folders/x9/cy1bx1f960zd_7xhdrxmk_zm0000gn/T//cc8Nwo3z.ltrans0.ltrans.o
 .text._read_r  0x00000000        0xa /var/folders/x9/cy1bx1f960zd_7xhdrxmk_zm0000gn/T//cc8Nwo3z.ltrans0.ltrans.o
 .text.vsnprintf
                0x00000000       0x34 /var/folders/x9/cy1bx1f960zd_7xhdrxmk_zm0000gn/T//cc8Nwo3z.ltrans0.ltrans.o
 .text.snprintf
                0x00000000       0x16 /var/folders/x9/cy1bx1f960zd_7xhdrxmk_zm0000gn/T//cc8Nwo3z.ltrans0.ltrans.o
 .text.vsprintf
                0x00000000       0x14 /var/folders/x9/cy1bx1f960zd_7xhdrxmk_zm0000gn/T//cc8Nwo3z.ltrans0.ltrans.o
 .text.sprintf  0x00000000       0x16 /var/folders/x9/cy1bx1f960zd_7xhdrxmk_zm0000gn/T//cc8Nwo3z.ltrans0.ltrans.o
 .rodata.COMBO_LEN
                0x00000000        0x2 /var/folders/x9/cy1bx1f960zd_7xhdrxmk_zm0000gn/T//cc8Nwo3z.ltrans0.ltrans.o
 .rodata.__cxa_pure_virtual.str1.1
                0x00000000        0xd /var/folders/x9/cy1bx1f960zd_7xhdrxmk_zm0000gn/T//cc8Nwo3z.ltrans0.ltrans.o
 .rodata._exit.str1.1
                0x00000000        0x5 /var/folders/x9/cy1bx1f960zd_7xhdrxmk_zm0000gn/T//cc8Nwo3z.ltrans0.ltrans.o
 .rodata._kill.str1.1
                0x00000000        0x5 /var/folders/x9/cy1bx1f960zd_7xhdrxmk_zm0000gn/T//cc8Nwo3z.ltrans0.ltrans.o
 .rodata.disable_action_cache
                0x00000000        0x1 /var/folders/x9/cy1bx1f960zd_7xhdrxmk_zm0000gn/T//cc8Nwo3z.ltrans0.ltrans.o
 .text          0x00000000        0x0 /var/folders/x9/cy1bx1f960zd_7xhdrxmk_zm0000gn/T//cc8Nwo3z.ltrans1.ltrans.o
 .data          0x00000000        0x0 /var/folders/x9/cy1bx1f960zd_7xhdrxmk_zm0000gn/T//cc8Nwo3z.ltrans1.ltrans.o
 .bss           0x00000000        0x0 /var/folders/x9/cy1bx1f960zd_7xhdrxmk_zm0000gn/T//cc8Nwo3z.ltrans1.ltrans.o
 .bss.__dso_handle
                0x00000000        0x4 /var/folders/x9/cy1bx1f960zd_7xhdrxmk_zm0000gn/T//cc8Nwo3z.ltrans1.ltrans.o
 .bss.keyboard_idle_count
                0x00000000        0x2 /var/folders/x9/cy1bx1f960zd_7xhdrxmk_zm0000gn/T//cc8Nwo3z.ltrans1.ltrans.o
 .data          0x00000000        0x0 .build/obj_converter_cumulus_ta15_vial/./lib/chibios/os/common/startup/ARMCMx/compilers/GCC/crt0_v6m.o
 .bss           0x00000000        0x0 .build/obj_converter_cumulus_ta15_vial/./lib/chibios/os/common/startup/ARMCMx/compilers/GCC/crt0_v6m.o
 .data          0x00000000        0x0 .build/obj_converter_cumulus_ta15_vial/./lib/chibios/os/common/startup/ARMCMx/compilers/GCC/vectors.o
 .bss           0x00000000        0x0 .build/obj_converter_cumulus_ta15_vial/./lib/chibios/os/common/startup/ARMCMx/compilers/GCC/vectors.o
 .data          0x00000000        0x0 .build/obj_converter_cumulus_ta15_vial/./lib/chibios/os/common/ports/ARMv6-M-RP2/compilers/GCC/chcoreasm.o
 .bss           0x00000000        0x0 .build/obj_converter_cumulus_ta15_vial/./lib/chibios/os/common/ports/ARMv6-M-RP2/compilers/GCC/chcoreasm.o
 .text          0x00000000        0x0 /usr/local/Cellar/arm-none-eabi-gcc@8/8.5.0_2/lib/arm-none-eabi-gcc/8/gcc/arm-none-eabi/8.5.0/../../../../../../arm-none-eabi/lib/thumb/v6-m/nofp/libg_nano.a(lib_a-ctype_.o)
 .data          0x00000000        0x0 /usr/local/Cellar/arm-none-eabi-gcc@8/8.5.0_2/lib/arm-none-eabi-gcc/8/gcc/arm-none-eabi/8.5.0/../../../../../../arm-none-eabi/lib/thumb/v6-m/nofp/libg_nano.a(lib_a-ctype_.o)
 .bss           0x00000000        0x0 /usr/local/Cellar/arm-none-eabi-gcc@8/8.5.0_2/lib/arm-none-eabi-gcc/8/gcc/arm-none-eabi/8.5.0/../../../../../../arm-none-eabi/lib/thumb/v6-m/nofp/libg_nano.a(lib_a-ctype_.o)
 .text          0x00000000        0xc /usr/local/Cellar/arm-none-eabi-gcc@8/8.5.0_2/lib/arm-none-eabi-gcc/8/gcc/arm-none-eabi/8.5.0/../../../../../../arm-none-eabi/lib/thumb/v6-m/nofp/libg_nano.a(lib_a-errno.o)
 .data          0x00000000        0x0 /usr/local/Cellar/arm-none-eabi-gcc@8/8.5.0_2/lib/arm-none-eabi-gcc/8/gcc/arm-none-eabi/8.5.0/../../../../../../arm-none-eabi/lib/thumb/v6-m/nofp/libg_nano.a(lib_a-errno.o)
 .bss           0x00000000        0x0 /usr/local/Cellar/arm-none-eabi-gcc@8/8.5.0_2/lib/arm-none-eabi-gcc/8/gcc/arm-none-eabi/8.5.0/../../../../../../arm-none-eabi/lib/thumb/v6-m/nofp/libg_nano.a(lib_a-errno.o)
 .debug_frame   0x00000000       0x20 /usr/local/Cellar/arm-none-eabi-gcc@8/8.5.0_2/lib/arm-none-eabi-gcc/8/gcc/arm-none-eabi/8.5.0/../../../../../../arm-none-eabi/lib/thumb/v6-m/nofp/libg_nano.a(lib_a-errno.o)
 .ARM.attributes
                0x00000000       0x2c /usr/local/Cellar/arm-none-eabi-gcc@8/8.5.0_2/lib/arm-none-eabi-gcc/8/gcc/arm-none-eabi/8.5.0/../../../../../../arm-none-eabi/lib/thumb/v6-m/nofp/libg_nano.a(lib_a-errno.o)
 .text          0x00000000        0x0 /usr/local/Cellar/arm-none-eabi-gcc@8/8.5.0_2/lib/arm-none-eabi-gcc/8/gcc/arm-none-eabi/8.5.0/../../../../../../arm-none-eabi/lib/thumb/v6-m/nofp/libg_nano.a(lib_a-impure.o)
 .data          0x00000000       0x64 /usr/local/Cellar/arm-none-eabi-gcc@8/8.5.0_2/lib/arm-none-eabi-gcc/8/gcc/arm-none-eabi/8.5.0/../../../../../../arm-none-eabi/lib/thumb/v6-m/nofp/libg_nano.a(lib_a-impure.o)
 .bss           0x00000000        0x0 /usr/local/Cellar/arm-none-eabi-gcc@8/8.5.0_2/lib/arm-none-eabi-gcc/8/gcc/arm-none-eabi/8.5.0/../../../../../../arm-none-eabi/lib/thumb/v6-m/nofp/libg_nano.a(lib_a-impure.o)
 .rodata        0x00000000        0x4 /usr/local/Cellar/arm-none-eabi-gcc@8/8.5.0_2/lib/arm-none-eabi-gcc/8/gcc/arm-none-eabi/8.5.0/../../../../../../arm-none-eabi/lib/thumb/v6-m/nofp/libg_nano.a(lib_a-impure.o)
 .ARM.attributes
                0x00000000       0x2c /usr/local/Cellar/arm-none-eabi-gcc@8/8.5.0_2/lib/arm-none-eabi-gcc/8/gcc/arm-none-eabi/8.5.0/../../../../../../arm-none-eabi/lib/thumb/v6-m/nofp/libg_nano.a(lib_a-impure.o)
 .text          0x00000000       0xe8 /usr/local/Cellar/arm-none-eabi-gcc@8/8.5.0_2/lib/arm-none-eabi-gcc/8/gcc/arm-none-eabi/8.5.0/../../../../../../arm-none-eabi/lib/thumb/v6-m/nofp/libg_nano.a(lib_a-rand.o)
 .data          0x00000000        0x0 /usr/local/Cellar/arm-none-eabi-gcc@8/8.5.0_2/lib/arm-none-eabi-gcc/8/gcc/arm-none-eabi/8.5.0/../../../../../../arm-none-eabi/lib/thumb/v6-m/nofp/libg_nano.a(lib_a-rand.o)
 .bss           0x00000000        0x0 /usr/local/Cellar/arm-none-eabi-gcc@8/8.5.0_2/lib/arm-none-eabi-gcc/8/gcc/arm-none-eabi/8.5.0/../../../../../../arm-none-eabi/lib/thumb/v6-m/nofp/libg_nano.a(lib_a-rand.o)
 .rodata.str1.4
                0x00000000       0x4a /usr/local/Cellar/arm-none-eabi-gcc@8/8.5.0_2/lib/arm-none-eabi-gcc/8/gcc/arm-none-eabi/8.5.0/../../../../../../arm-none-eabi/lib/thumb/v6-m/nofp/libg_nano.a(lib_a-rand.o)
 .debug_frame   0x00000000       0x48 /usr/local/Cellar/arm-none-eabi-gcc@8/8.5.0_2/lib/arm-none-eabi-gcc/8/gcc/arm-none-eabi/8.5.0/../../../../../../arm-none-eabi/lib/thumb/v6-m/nofp/libg_nano.a(lib_a-rand.o)
 .ARM.attributes
                0x00000000       0x2c /usr/local/Cellar/arm-none-eabi-gcc@8/8.5.0_2/lib/arm-none-eabi-gcc/8/gcc/arm-none-eabi/8.5.0/../../../../../../arm-none-eabi/lib/thumb/v6-m/nofp/libg_nano.a(lib_a-rand.o)
 .text          0x00000000       0x4c /usr/local/Cellar/arm-none-eabi-gcc@8/8.5.0_2/lib/arm-none-eabi-gcc/8/gcc/arm-none-eabi/8.5.0/../../../../../../arm-none-eabi/lib/thumb/v6-m/nofp/libg_nano.a(lib_a-assert.o)
 .data          0x00000000        0x0 /usr/local/Cellar/arm-none-eabi-gcc@8/8.5.0_2/lib/arm-none-eabi-gcc/8/gcc/arm-none-eabi/8.5.0/../../../../../../arm-none-eabi/lib/thumb/v6-m/nofp/libg_nano.a(lib_a-assert.o)
 .bss           0x00000000        0x0 /usr/local/Cellar/arm-none-eabi-gcc@8/8.5.0_2/lib/arm-none-eabi-gcc/8/gcc/arm-none-eabi/8.5.0/../../../../../../arm-none-eabi/lib/thumb/v6-m/nofp/libg_nano.a(lib_a-assert.o)
 .rodata.str1.4
                0x00000000       0x43 /usr/local/Cellar/arm-none-eabi-gcc@8/8.5.0_2/lib/arm-none-eabi-gcc/8/gcc/arm-none-eabi/8.5.0/../../../../../../arm-none-eabi/lib/thumb/v6-m/nofp/libg_nano.a(lib_a-assert.o)
 .debug_frame   0x00000000       0x44 /usr/local/Cellar/arm-none-eabi-gcc@8/8.5.0_2/lib/arm-none-eabi-gcc/8/gcc/arm-none-eabi/8.5.0/../../../../../../arm-none-eabi/lib/thumb/v6-m/nofp/libg_nano.a(lib_a-assert.o)
 .ARM.attributes
                0x00000000       0x2c /usr/local/Cellar/arm-none-eabi-gcc@8/8.5.0_2/lib/arm-none-eabi-gcc/8/gcc/arm-none-eabi/8.5.0/../../../../../../arm-none-eabi/lib/thumb/v6-m/nofp/libg_nano.a(lib_a-assert.o)
 .text          0x00000000       0x3c /usr/local/Cellar/arm-none-eabi-gcc@8/8.5.0_2/lib/arm-none-eabi-gcc/8/gcc/arm-none-eabi/8.5.0/../../../../../../arm-none-eabi/lib/thumb/v6-m/nofp/libg_nano.a(lib_a-fprintf.o)
 .data          0x00000000        0x0 /usr/local/Cellar/arm-none-eabi-gcc@8/8.5.0_2/lib/arm-none-eabi-gcc/8/gcc/arm-none-eabi/8.5.0/../../../../../../arm-none-eabi/lib/thumb/v6-m/nofp/libg_nano.a(lib_a-fprintf.o)
 .bss           0x00000000        0x0 /usr/local/Cellar/arm-none-eabi-gcc@8/8.5.0_2/lib/arm-none-eabi-gcc/8/gcc/arm-none-eabi/8.5.0/../../../../../../arm-none-eabi/lib/thumb/v6-m/nofp/libg_nano.a(lib_a-fprintf.o)
 .debug_frame   0x00000000       0x48 /usr/local/Cellar/arm-none-eabi-gcc@8/8.5.0_2/lib/arm-none-eabi-gcc/8/gcc/arm-none-eabi/8.5.0/../../../../../../arm-none-eabi/lib/thumb/v6-m/nofp/libg_nano.a(lib_a-fprintf.o)
 .ARM.attributes
                0x00000000       0x2c /usr/local/Cellar/arm-none-eabi-gcc@8/8.5.0_2/lib/arm-none-eabi-gcc/8/gcc/arm-none-eabi/8.5.0/../../../../../../arm-none-eabi/lib/thumb/v6-m/nofp/libg_nano.a(lib_a-fprintf.o)
 .text          0x00000000       0x28 /usr/local/Cellar/arm-none-eabi-gcc@8/8.5.0_2/lib/arm-none-eabi-gcc/8/gcc/arm-none-eabi/8.5.0/../../../../../../arm-none-eabi/lib/thumb/v6-m/nofp/libg_nano.a(lib_a-malloc.o)
 .data          0x00000000        0x0 /usr/local/Cellar/arm-none-eabi-gcc@8/8.5.0_2/lib/arm-none-eabi-gcc/8/gcc/arm-none-eabi/8.5.0/../../../../../../arm-none-eabi/lib/thumb/v6-m/nofp/libg_nano.a(lib_a-malloc.o)
 .bss           0x00000000        0x0 /usr/local/Cellar/arm-none-eabi-gcc@8/8.5.0_2/lib/arm-none-eabi-gcc/8/gcc/arm-none-eabi/8.5.0/../../../../../../arm-none-eabi/lib/thumb/v6-m/nofp/libg_nano.a(lib_a-malloc.o)
 .debug_frame   0x00000000       0x40 /usr/local/Cellar/arm-none-eabi-gcc@8/8.5.0_2/lib/arm-none-eabi-gcc/8/gcc/arm-none-eabi/8.5.0/../../../../../../arm-none-eabi/lib/thumb/v6-m/nofp/libg_nano.a(lib_a-malloc.o)
 .ARM.attributes
                0x00000000       0x2c /usr/local/Cellar/arm-none-eabi-gcc@8/8.5.0_2/lib/arm-none-eabi-gcc/8/gcc/arm-none-eabi/8.5.0/../../../../../../arm-none-eabi/lib/thumb/v6-m/nofp/libg_nano.a(lib_a-malloc.o)
 .text          0x00000000       0xac /usr/local/Cellar/arm-none-eabi-gcc@8/8.5.0_2/lib/arm-none-eabi-gcc/8/gcc/arm-none-eabi/8.5.0/../../../../../../arm-none-eabi/lib/thumb/v6-m/nofp/libg_nano.a(lib_a-nano-freer.o)
 .data          0x00000000        0x0 /usr/local/Cellar/arm-none-eabi-gcc@8/8.5.0_2/lib/arm-none-eabi-gcc/8/gcc/arm-none-eabi/8.5.0/../../../../../../arm-none-eabi/lib/thumb/v6-m/nofp/libg_nano.a(lib_a-nano-freer.o)
 .bss           0x00000000        0x0 /usr/local/Cellar/arm-none-eabi-gcc@8/8.5.0_2/lib/arm-none-eabi-gcc/8/gcc/arm-none-eabi/8.5.0/../../../../../../arm-none-eabi/lib/thumb/v6-m/nofp/libg_nano.a(lib_a-nano-freer.o)
 .debug_frame   0x00000000       0x2c /usr/local/Cellar/arm-none-eabi-gcc@8/8.5.0_2/lib/arm-none-eabi-gcc/8/gcc/arm-none-eabi/8.5.0/../../../../../../arm-none-eabi/lib/thumb/v6-m/nofp/libg_nano.a(lib_a-nano-freer.o)
 .ARM.attributes
                0x00000000       0x2c /usr/local/Cellar/arm-none-eabi-gcc@8/8.5.0_2/lib/arm-none-eabi-gcc/8/gcc/arm-none-eabi/8.5.0/../../../../../../arm-none-eabi/lib/thumb/v6-m/nofp/libg_nano.a(lib_a-nano-freer.o)
 .text          0x00000000       0xcc /usr/local/Cellar/arm-none-eabi-gcc@8/8.5.0_2/lib/arm-none-eabi-gcc/8/gcc/arm-none-eabi/8.5.0/../../../../../../arm-none-eabi/lib/thumb/v6-m/nofp/libg_nano.a(lib_a-nano-mallocr.o)
 .data          0x00000000        0x0 /usr/local/Cellar/arm-none-eabi-gcc@8/8.5.0_2/lib/arm-none-eabi-gcc/8/gcc/arm-none-eabi/8.5.0/../../../../../../arm-none-eabi/lib/thumb/v6-m/nofp/libg_nano.a(lib_a-nano-mallocr.o)
 .bss           0x00000000        0x8 /usr/local/Cellar/arm-none-eabi-gcc@8/8.5.0_2/lib/arm-none-eabi-gcc/8/gcc/arm-none-eabi/8.5.0/../../../../../../arm-none-eabi/lib/thumb/v6-m/nofp/libg_nano.a(lib_a-nano-mallocr.o)
 .debug_frame   0x00000000       0x30 /usr/local/Cellar/arm-none-eabi-gcc@8/8.5.0_2/lib/arm-none-eabi-gcc/8/gcc/arm-none-eabi/8.5.0/../../../../../../arm-none-eabi/lib/thumb/v6-m/nofp/libg_nano.a(lib_a-nano-mallocr.o)
 .ARM.attributes
                0x00000000       0x2c /usr/local/Cellar/arm-none-eabi-gcc@8/8.5.0_2/lib/arm-none-eabi-gcc/8/gcc/arm-none-eabi/8.5.0/../../../../../../arm-none-eabi/lib/thumb/v6-m/nofp/libg_nano.a(lib_a-nano-mallocr.o)
 .text          0x00000000      0x3cc /usr/local/Cellar/arm-none-eabi-gcc@8/8.5.0_2/lib/arm-none-eabi-gcc/8/gcc/arm-none-eabi/8.5.0/../../../../../../arm-none-eabi/lib/thumb/v6-m/nofp/libg_nano.a(lib_a-nano-vfprintf.o)
 .data          0x00000000        0x0 /usr/local/Cellar/arm-none-eabi-gcc@8/8.5.0_2/lib/arm-none-eabi-gcc/8/gcc/arm-none-eabi/8.5.0/../../../../../../arm-none-eabi/lib/thumb/v6-m/nofp/libg_nano.a(lib_a-nano-vfprintf.o)
 .bss           0x00000000        0x0 /usr/local/Cellar/arm-none-eabi-gcc@8/8.5.0_2/lib/arm-none-eabi-gcc/8/gcc/arm-none-eabi/8.5.0/../../../../../../arm-none-eabi/lib/thumb/v6-m/nofp/libg_nano.a(lib_a-nano-vfprintf.o)
 .rodata.str1.4
                0x00000000       0x13 /usr/local/Cellar/arm-none-eabi-gcc@8/8.5.0_2/lib/arm-none-eabi-gcc/8/gcc/arm-none-eabi/8.5.0/../../../../../../arm-none-eabi/lib/thumb/v6-m/nofp/libg_nano.a(lib_a-nano-vfprintf.o)
 .debug_frame   0x00000000       0xa4 /usr/local/Cellar/arm-none-eabi-gcc@8/8.5.0_2/lib/arm-none-eabi-gcc/8/gcc/arm-none-eabi/8.5.0/../../../../../../arm-none-eabi/lib/thumb/v6-m/nofp/libg_nano.a(lib_a-nano-vfprintf.o)
 .ARM.attributes
                0x00000000       0x2c /usr/local/Cellar/arm-none-eabi-gcc@8/8.5.0_2/lib/arm-none-eabi-gcc/8/gcc/arm-none-eabi/8.5.0/../../../../../../arm-none-eabi/lib/thumb/v6-m/nofp/libg_nano.a(lib_a-nano-vfprintf.o)
 .text          0x00000000      0x3d8 /usr/local/Cellar/arm-none-eabi-gcc@8/8.5.0_2/lib/arm-none-eabi-gcc/8/gcc/arm-none-eabi/8.5.0/../../../../../../arm-none-eabi/lib/thumb/v6-m/nofp/libg_nano.a(lib_a-nano-vfprintf_i.o)
 .data          0x00000000        0x0 /usr/local/Cellar/arm-none-eabi-gcc@8/8.5.0_2/lib/arm-none-eabi-gcc/8/gcc/arm-none-eabi/8.5.0/../../../../../../arm-none-eabi/lib/thumb/v6-m/nofp/libg_nano.a(lib_a-nano-vfprintf_i.o)
 .bss           0x00000000        0x0 /usr/local/Cellar/arm-none-eabi-gcc@8/8.5.0_2/lib/arm-none-eabi-gcc/8/gcc/arm-none-eabi/8.5.0/../../../../../../arm-none-eabi/lib/thumb/v6-m/nofp/libg_nano.a(lib_a-nano-vfprintf_i.o)
 .rodata.str1.4
                0x00000000       0x25 /usr/local/Cellar/arm-none-eabi-gcc@8/8.5.0_2/lib/arm-none-eabi-gcc/8/gcc/arm-none-eabi/8.5.0/../../../../../../arm-none-eabi/lib/thumb/v6-m/nofp/libg_nano.a(lib_a-nano-vfprintf_i.o)
 .debug_frame   0x00000000       0x64 /usr/local/Cellar/arm-none-eabi-gcc@8/8.5.0_2/lib/arm-none-eabi-gcc/8/gcc/arm-none-eabi/8.5.0/../../../../../../arm-none-eabi/lib/thumb/v6-m/nofp/libg_nano.a(lib_a-nano-vfprintf_i.o)
 .ARM.attributes
                0x00000000       0x2c /usr/local/Cellar/arm-none-eabi-gcc@8/8.5.0_2/lib/arm-none-eabi-gcc/8/gcc/arm-none-eabi/8.5.0/../../../../../../arm-none-eabi/lib/thumb/v6-m/nofp/libg_nano.a(lib_a-nano-vfprintf_i.o)
 .text          0x00000000       0xec /usr/local/Cellar/arm-none-eabi-gcc@8/8.5.0_2/lib/arm-none-eabi-gcc/8/gcc/arm-none-eabi/8.5.0/../../../../../../arm-none-eabi/lib/thumb/v6-m/nofp/libg_nano.a(lib_a-wbuf.o)
 .data          0x00000000        0x0 /usr/local/Cellar/arm-none-eabi-gcc@8/8.5.0_2/lib/arm-none-eabi-gcc/8/gcc/arm-none-eabi/8.5.0/../../../../../../arm-none-eabi/lib/thumb/v6-m/nofp/libg_nano.a(lib_a-wbuf.o)
 .bss           0x00000000        0x0 /usr/local/Cellar/arm-none-eabi-gcc@8/8.5.0_2/lib/arm-none-eabi-gcc/8/gcc/arm-none-eabi/8.5.0/../../../../../../arm-none-eabi/lib/thumb/v6-m/nofp/libg_nano.a(lib_a-wbuf.o)
 .debug_frame   0x00000000       0x48 /usr/local/Cellar/arm-none-eabi-gcc@8/8.5.0_2/lib/arm-none-eabi-gcc/8/gcc/arm-none-eabi/8.5.0/../../../../../../arm-none-eabi/lib/thumb/v6-m/nofp/libg_nano.a(lib_a-wbuf.o)
 .ARM.attributes
                0x00000000       0x2c /usr/local/Cellar/arm-none-eabi-gcc@8/8.5.0_2/lib/arm-none-eabi-gcc/8/gcc/arm-none-eabi/8.5.0/../../../../../../arm-none-eabi/lib/thumb/v6-m/nofp/libg_nano.a(lib_a-wbuf.o)
 .text          0x00000000      0x10c /usr/local/Cellar/arm-none-eabi-gcc@8/8.5.0_2/lib/arm-none-eabi-gcc/8/gcc/arm-none-eabi/8.5.0/../../../../../../arm-none-eabi/lib/thumb/v6-m/nofp/libg_nano.a(lib_a-wsetup.o)
 .data          0x00000000        0x0 /usr/local/Cellar/arm-none-eabi-gcc@8/8.5.0_2/lib/arm-none-eabi-gcc/8/gcc/arm-none-eabi/8.5.0/../../../../../../arm-none-eabi/lib/thumb/v6-m/nofp/libg_nano.a(lib_a-wsetup.o)
 .bss           0x00000000        0x0 /usr/local/Cellar/arm-none-eabi-gcc@8/8.5.0_2/lib/arm-none-eabi-gcc/8/gcc/arm-none-eabi/8.5.0/../../../../../../arm-none-eabi/lib/thumb/v6-m/nofp/libg_nano.a(lib_a-wsetup.o)
 .debug_frame   0x00000000       0x2c /usr/local/Cellar/arm-none-eabi-gcc@8/8.5.0_2/lib/arm-none-eabi-gcc/8/gcc/arm-none-eabi/8.5.0/../../../../../../arm-none-eabi/lib/thumb/v6-m/nofp/libg_nano.a(lib_a-wsetup.o)
 .ARM.attributes
                0x00000000       0x2c /usr/local/Cellar/arm-none-eabi-gcc@8/8.5.0_2/lib/arm-none-eabi-gcc/8/gcc/arm-none-eabi/8.5.0/../../../../../../arm-none-eabi/lib/thumb/v6-m/nofp/libg_nano.a(lib_a-wsetup.o)
 .text          0x00000000       0x10 /usr/local/Cellar/arm-none-eabi-gcc@8/8.5.0_2/lib/arm-none-eabi-gcc/8/gcc/arm-none-eabi/8.5.0/../../../../../../arm-none-eabi/lib/thumb/v6-m/nofp/libg_nano.a(lib_a-abort.o)
 .data          0x00000000        0x0 /usr/local/Cellar/arm-none-eabi-gcc@8/8.5.0_2/lib/arm-none-eabi-gcc/8/gcc/arm-none-eabi/8.5.0/../../../../../../arm-none-eabi/lib/thumb/v6-m/nofp/libg_nano.a(lib_a-abort.o)
 .bss           0x00000000        0x0 /usr/local/Cellar/arm-none-eabi-gcc@8/8.5.0_2/lib/arm-none-eabi-gcc/8/gcc/arm-none-eabi/8.5.0/../../../../../../arm-none-eabi/lib/thumb/v6-m/nofp/libg_nano.a(lib_a-abort.o)
 .debug_frame   0x00000000       0x28 /usr/local/Cellar/arm-none-eabi-gcc@8/8.5.0_2/lib/arm-none-eabi-gcc/8/gcc/arm-none-eabi/8.5.0/../../../../../../arm-none-eabi/lib/thumb/v6-m/nofp/libg_nano.a(lib_a-abort.o)
 .ARM.attributes
                0x00000000       0x2c /usr/local/Cellar/arm-none-eabi-gcc@8/8.5.0_2/lib/arm-none-eabi-gcc/8/gcc/arm-none-eabi/8.5.0/../../../../../../arm-none-eabi/lib/thumb/v6-m/nofp/libg_nano.a(lib_a-abort.o)
 .text          0x00000000      0x1e4 /usr/local/Cellar/arm-none-eabi-gcc@8/8.5.0_2/lib/arm-none-eabi-gcc/8/gcc/arm-none-eabi/8.5.0/../../../../../../arm-none-eabi/lib/thumb/v6-m/nofp/libg_nano.a(lib_a-fflush.o)
 .data          0x00000000        0x0 /usr/local/Cellar/arm-none-eabi-gcc@8/8.5.0_2/lib/arm-none-eabi-gcc/8/gcc/arm-none-eabi/8.5.0/../../../../../../arm-none-eabi/lib/thumb/v6-m/nofp/libg_nano.a(lib_a-fflush.o)
 .bss           0x00000000        0x0 /usr/local/Cellar/arm-none-eabi-gcc@8/8.5.0_2/lib/arm-none-eabi-gcc/8/gcc/arm-none-eabi/8.5.0/../../../../../../arm-none-eabi/lib/thumb/v6-m/nofp/libg_nano.a(lib_a-fflush.o)
 .debug_frame   0x00000000       0x68 /usr/local/Cellar/arm-none-eabi-gcc@8/8.5.0_2/lib/arm-none-eabi-gcc/8/gcc/arm-none-eabi/8.5.0/../../../../../../arm-none-eabi/lib/thumb/v6-m/nofp/libg_nano.a(lib_a-fflush.o)
 .ARM.attributes
                0x00000000       0x2c /usr/local/Cellar/arm-none-eabi-gcc@8/8.5.0_2/lib/arm-none-eabi-gcc/8/gcc/arm-none-eabi/8.5.0/../../../../../../arm-none-eabi/lib/thumb/v6-m/nofp/libg_nano.a(lib_a-fflush.o)
 .text          0x00000000      0x2dc /usr/local/Cellar/arm-none-eabi-gcc@8/8.5.0_2/lib/arm-none-eabi-gcc/8/gcc/arm-none-eabi/8.5.0/../../../../../../arm-none-eabi/lib/thumb/v6-m/nofp/libg_nano.a(lib_a-findfp.o)
 .data          0x00000000        0x0 /usr/local/Cellar/arm-none-eabi-gcc@8/8.5.0_2/lib/arm-none-eabi-gcc/8/gcc/arm-none-eabi/8.5.0/../../../../../../arm-none-eabi/lib/thumb/v6-m/nofp/libg_nano.a(lib_a-findfp.o)
 .bss           0x00000000        0x0 /usr/local/Cellar/arm-none-eabi-gcc@8/8.5.0_2/lib/arm-none-eabi-gcc/8/gcc/arm-none-eabi/8.5.0/../../../../../../arm-none-eabi/lib/thumb/v6-m/nofp/libg_nano.a(lib_a-findfp.o)
 .rodata        0x00000000       0x60 /usr/local/Cellar/arm-none-eabi-gcc@8/8.5.0_2/lib/arm-none-eabi-gcc/8/gcc/arm-none-eabi/8.5.0/../../../../../../arm-none-eabi/lib/thumb/v6-m/nofp/libg_nano.a(lib_a-findfp.o)
 .debug_frame   0x00000000      0x168 /usr/local/Cellar/arm-none-eabi-gcc@8/8.5.0_2/lib/arm-none-eabi-gcc/8/gcc/arm-none-eabi/8.5.0/../../../../../../arm-none-eabi/lib/thumb/v6-m/nofp/libg_nano.a(lib_a-findfp.o)
 .ARM.attributes
                0x00000000       0x2c /usr/local/Cellar/arm-none-eabi-gcc@8/8.5.0_2/lib/arm-none-eabi-gcc/8/gcc/arm-none-eabi/8.5.0/../../../../../../arm-none-eabi/lib/thumb/v6-m/nofp/libg_nano.a(lib_a-findfp.o)
 .text          0x00000000      0x320 /usr/local/Cellar/arm-none-eabi-gcc@8/8.5.0_2/lib/arm-none-eabi-gcc/8/gcc/arm-none-eabi/8.5.0/../../../../../../arm-none-eabi/lib/thumb/v6-m/nofp/libg_nano.a(lib_a-fvwrite.o)
 .data          0x00000000        0x0 /usr/local/Cellar/arm-none-eabi-gcc@8/8.5.0_2/lib/arm-none-eabi-gcc/8/gcc/arm-none-eabi/8.5.0/../../../../../../arm-none-eabi/lib/thumb/v6-m/nofp/libg_nano.a(lib_a-fvwrite.o)
 .bss           0x00000000        0x0 /usr/local/Cellar/arm-none-eabi-gcc@8/8.5.0_2/lib/arm-none-eabi-gcc/8/gcc/arm-none-eabi/8.5.0/../../../../../../arm-none-eabi/lib/thumb/v6-m/nofp/libg_nano.a(lib_a-fvwrite.o)
 .debug_frame   0x00000000       0x3c /usr/local/Cellar/arm-none-eabi-gcc@8/8.5.0_2/lib/arm-none-eabi-gcc/8/gcc/arm-none-eabi/8.5.0/../../../../../../arm-none-eabi/lib/thumb/v6-m/nofp/libg_nano.a(lib_a-fvwrite.o)
 .ARM.attributes
                0x00000000       0x2c /usr/local/Cellar/arm-none-eabi-gcc@8/8.5.0_2/lib/arm-none-eabi-gcc/8/gcc/arm-none-eabi/8.5.0/../../../../../../arm-none-eabi/lib/thumb/v6-m/nofp/libg_nano.a(lib_a-fvwrite.o)
 .text          0x00000000       0x90 /usr/local/Cellar/arm-none-eabi-gcc@8/8.5.0_2/lib/arm-none-eabi-gcc/8/gcc/arm-none-eabi/8.5.0/../../../../../../arm-none-eabi/lib/thumb/v6-m/nofp/libg_nano.a(lib_a-fwalk.o)
 .data          0x00000000        0x0 /usr/local/Cellar/arm-none-eabi-gcc@8/8.5.0_2/lib/arm-none-eabi-gcc/8/gcc/arm-none-eabi/8.5.0/../../../../../../arm-none-eabi/lib/thumb/v6-m/nofp/libg_nano.a(lib_a-fwalk.o)
 .bss           0x00000000        0x0 /usr/local/Cellar/arm-none-eabi-gcc@8/8.5.0_2/lib/arm-none-eabi-gcc/8/gcc/arm-none-eabi/8.5.0/../../../../../../arm-none-eabi/lib/thumb/v6-m/nofp/libg_nano.a(lib_a-fwalk.o)
 .debug_frame   0x00000000       0x5c /usr/local/Cellar/arm-none-eabi-gcc@8/8.5.0_2/lib/arm-none-eabi-gcc/8/gcc/arm-none-eabi/8.5.0/../../../../../../arm-none-eabi/lib/thumb/v6-m/nofp/libg_nano.a(lib_a-fwalk.o)
 .ARM.attributes
                0x00000000       0x2c /usr/local/Cellar/arm-none-eabi-gcc@8/8.5.0_2/lib/arm-none-eabi-gcc/8/gcc/arm-none-eabi/8.5.0/../../../../../../arm-none-eabi/lib/thumb/v6-m/nofp/libg_nano.a(lib_a-fwalk.o)
 .text          0x00000000       0x28 /usr/local/Cellar/arm-none-eabi-gcc@8/8.5.0_2/lib/arm-none-eabi-gcc/8/gcc/arm-none-eabi/8.5.0/../../../../../../arm-none-eabi/lib/thumb/v6-m/nofp/libg_nano.a(lib_a-lock.o)
 .data          0x00000000        0x0 /usr/local/Cellar/arm-none-eabi-gcc@8/8.5.0_2/lib/arm-none-eabi-gcc/8/gcc/arm-none-eabi/8.5.0/../../../../../../arm-none-eabi/lib/thumb/v6-m/nofp/libg_nano.a(lib_a-lock.o)
 .bss           0x00000000        0x0 /usr/local/Cellar/arm-none-eabi-gcc@8/8.5.0_2/lib/arm-none-eabi-gcc/8/gcc/arm-none-eabi/8.5.0/../../../../../../arm-none-eabi/lib/thumb/v6-m/nofp/libg_nano.a(lib_a-lock.o)
 .debug_frame   0x00000000       0xb0 /usr/local/Cellar/arm-none-eabi-gcc@8/8.5.0_2/lib/arm-none-eabi-gcc/8/gcc/arm-none-eabi/8.5.0/../../../../../../arm-none-eabi/lib/thumb/v6-m/nofp/libg_nano.a(lib_a-lock.o)
 .ARM.attributes
                0x00000000       0x2c /usr/local/Cellar/arm-none-eabi-gcc@8/8.5.0_2/lib/arm-none-eabi-gcc/8/gcc/arm-none-eabi/8.5.0/../../../../../../arm-none-eabi/lib/thumb/v6-m/nofp/libg_nano.a(lib_a-lock.o)
 COMMON         0x00000000       0x21 /usr/local/Cellar/arm-none-eabi-gcc@8/8.5.0_2/lib/arm-none-eabi-gcc/8/gcc/arm-none-eabi/8.5.0/../../../../../../arm-none-eabi/lib/thumb/v6-m/nofp/libg_nano.a(lib_a-lock.o)
 .text          0x00000000       0xe0 /usr/local/Cellar/arm-none-eabi-gcc@8/8.5.0_2/lib/arm-none-eabi-gcc/8/gcc/arm-none-eabi/8.5.0/../../../../../../arm-none-eabi/lib/thumb/v6-m/nofp/libg_nano.a(lib_a-makebuf.o)
 .data          0x00000000        0x0 /usr/local/Cellar/arm-none-eabi-gcc@8/8.5.0_2/lib/arm-none-eabi-gcc/8/gcc/arm-none-eabi/8.5.0/../../../../../../arm-none-eabi/lib/thumb/v6-m/nofp/libg_nano.a(lib_a-makebuf.o)
 .bss           0x00000000        0x0 /usr/local/Cellar/arm-none-eabi-gcc@8/8.5.0_2/lib/arm-none-eabi-gcc/8/gcc/arm-none-eabi/8.5.0/../../../../../../arm-none-eabi/lib/thumb/v6-m/nofp/libg_nano.a(lib_a-makebuf.o)
 .debug_frame   0x00000000       0x50 /usr/local/Cellar/arm-none-eabi-gcc@8/8.5.0_2/lib/arm-none-eabi-gcc/8/gcc/arm-none-eabi/8.5.0/../../../../../../arm-none-eabi/lib/thumb/v6-m/nofp/libg_nano.a(lib_a-makebuf.o)
 .ARM.attributes
                0x00000000       0x2c /usr/local/Cellar/arm-none-eabi-gcc@8/8.5.0_2/lib/arm-none-eabi-gcc/8/gcc/arm-none-eabi/8.5.0/../../../../../../arm-none-eabi/lib/thumb/v6-m/nofp/libg_nano.a(lib_a-makebuf.o)
 .text          0x00000000       0x80 /usr/local/Cellar/arm-none-eabi-gcc@8/8.5.0_2/lib/arm-none-eabi-gcc/8/gcc/arm-none-eabi/8.5.0/../../../../../../arm-none-eabi/lib/thumb/v6-m/nofp/libg_nano.a(lib_a-memchr-stub.o)
 .data          0x00000000        0x0 /usr/local/Cellar/arm-none-eabi-gcc@8/8.5.0_2/lib/arm-none-eabi-gcc/8/gcc/arm-none-eabi/8.5.0/../../../../../../arm-none-eabi/lib/thumb/v6-m/nofp/libg_nano.a(lib_a-memchr-stub.o)
 .bss           0x00000000        0x0 /usr/local/Cellar/arm-none-eabi-gcc@8/8.5.0_2/lib/arm-none-eabi-gcc/8/gcc/arm-none-eabi/8.5.0/../../../../../../arm-none-eabi/lib/thumb/v6-m/nofp/libg_nano.a(lib_a-memchr-stub.o)
 .debug_frame   0x00000000       0x2c /usr/local/Cellar/arm-none-eabi-gcc@8/8.5.0_2/lib/arm-none-eabi-gcc/8/gcc/arm-none-eabi/8.5.0/../../../../../../arm-none-eabi/lib/thumb/v6-m/nofp/libg_nano.a(lib_a-memchr-stub.o)
 .ARM.attributes
                0x00000000       0x2c /usr/local/Cellar/arm-none-eabi-gcc@8/8.5.0_2/lib/arm-none-eabi-gcc/8/gcc/arm-none-eabi/8.5.0/../../../../../../arm-none-eabi/lib/thumb/v6-m/nofp/libg_nano.a(lib_a-memchr-stub.o)
 .data          0x00000000        0x0 /usr/local/Cellar/arm-none-eabi-gcc@8/8.5.0_2/lib/arm-none-eabi-gcc/8/gcc/arm-none-eabi/8.5.0/../../../../../../arm-none-eabi/lib/thumb/v6-m/nofp/libg_nano.a(lib_a-memcpy-stub.o)
 .bss           0x00000000        0x0 /usr/local/Cellar/arm-none-eabi-gcc@8/8.5.0_2/lib/arm-none-eabi-gcc/8/gcc/arm-none-eabi/8.5.0/../../../../../../arm-none-eabi/lib/thumb/v6-m/nofp/libg_nano.a(lib_a-memcpy-stub.o)
 .text          0x00000000       0xbc /usr/local/Cellar/arm-none-eabi-gcc@8/8.5.0_2/lib/arm-none-eabi-gcc/8/gcc/arm-none-eabi/8.5.0/../../../../../../arm-none-eabi/lib/thumb/v6-m/nofp/libg_nano.a(lib_a-memmove.o)
 .data          0x00000000        0x0 /usr/local/Cellar/arm-none-eabi-gcc@8/8.5.0_2/lib/arm-none-eabi-gcc/8/gcc/arm-none-eabi/8.5.0/../../../../../../arm-none-eabi/lib/thumb/v6-m/nofp/libg_nano.a(lib_a-memmove.o)
 .bss           0x00000000        0x0 /usr/local/Cellar/arm-none-eabi-gcc@8/8.5.0_2/lib/arm-none-eabi-gcc/8/gcc/arm-none-eabi/8.5.0/../../../../../../arm-none-eabi/lib/thumb/v6-m/nofp/libg_nano.a(lib_a-memmove.o)
 .debug_frame   0x00000000       0x34 /usr/local/Cellar/arm-none-eabi-gcc@8/8.5.0_2/lib/arm-none-eabi-gcc/8/gcc/arm-none-eabi/8.5.0/../../../../../../arm-none-eabi/lib/thumb/v6-m/nofp/libg_nano.a(lib_a-memmove.o)
 .ARM.attributes
                0x00000000       0x2c /usr/local/Cellar/arm-none-eabi-gcc@8/8.5.0_2/lib/arm-none-eabi-gcc/8/gcc/arm-none-eabi/8.5.0/../../../../../../arm-none-eabi/lib/thumb/v6-m/nofp/libg_nano.a(lib_a-memmove.o)
 .data          0x00000000        0x0 /usr/local/Cellar/arm-none-eabi-gcc@8/8.5.0_2/lib/arm-none-eabi-gcc/8/gcc/arm-none-eabi/8.5.0/../../../../../../arm-none-eabi/lib/thumb/v6-m/nofp/libg_nano.a(lib_a-memset.o)
 .bss           0x00000000        0x0 /usr/local/Cellar/arm-none-eabi-gcc@8/8.5.0_2/lib/arm-none-eabi-gcc/8/gcc/arm-none-eabi/8.5.0/../../../../../../arm-none-eabi/lib/thumb/v6-m/nofp/libg_nano.a(lib_a-memset.o)
 .text          0x00000000       0x20 /usr/local/Cellar/arm-none-eabi-gcc@8/8.5.0_2/lib/arm-none-eabi-gcc/8/gcc/arm-none-eabi/8.5.0/../../../../../../arm-none-eabi/lib/thumb/v6-m/nofp/libg_nano.a(lib_a-mlock.o)
 .data          0x00000000        0x0 /usr/local/Cellar/arm-none-eabi-gcc@8/8.5.0_2/lib/arm-none-eabi-gcc/8/gcc/arm-none-eabi/8.5.0/../../../../../../arm-none-eabi/lib/thumb/v6-m/nofp/libg_nano.a(lib_a-mlock.o)
 .bss           0x00000000        0x0 /usr/local/Cellar/arm-none-eabi-gcc@8/8.5.0_2/lib/arm-none-eabi-gcc/8/gcc/arm-none-eabi/8.5.0/../../../../../../arm-none-eabi/lib/thumb/v6-m/nofp/libg_nano.a(lib_a-mlock.o)
 .debug_frame   0x00000000       0x40 /usr/local/Cellar/arm-none-eabi-gcc@8/8.5.0_2/lib/arm-none-eabi-gcc/8/gcc/arm-none-eabi/8.5.0/../../../../../../arm-none-eabi/lib/thumb/v6-m/nofp/libg_nano.a(lib_a-mlock.o)
 .ARM.attributes
                0x00000000       0x2c /usr/local/Cellar/arm-none-eabi-gcc@8/8.5.0_2/lib/arm-none-eabi-gcc/8/gcc/arm-none-eabi/8.5.0/../../../../../../arm-none-eabi/lib/thumb/v6-m/nofp/libg_nano.a(lib_a-mlock.o)
 .text          0x00000000       0x50 /usr/local/Cellar/arm-none-eabi-gcc@8/8.5.0_2/lib/arm-none-eabi-gcc/8/gcc/arm-none-eabi/8.5.0/../../../../../../arm-none-eabi/lib/thumb/v6-m/nofp/libg_nano.a(lib_a-nano-reallocr.o)
 .data          0x00000000        0x0 /usr/local/Cellar/arm-none-eabi-gcc@8/8.5.0_2/lib/arm-none-eabi-gcc/8/gcc/arm-none-eabi/8.5.0/../../../../../../arm-none-eabi/lib/thumb/v6-m/nofp/libg_nano.a(lib_a-nano-reallocr.o)
 .bss           0x00000000        0x0 /usr/local/Cellar/arm-none-eabi-gcc@8/8.5.0_2/lib/arm-none-eabi-gcc/8/gcc/arm-none-eabi/8.5.0/../../../../../../arm-none-eabi/lib/thumb/v6-m/nofp/libg_nano.a(lib_a-nano-reallocr.o)
 .debug_frame   0x00000000       0x30 /usr/local/Cellar/arm-none-eabi-gcc@8/8.5.0_2/lib/arm-none-eabi-gcc/8/gcc/arm-none-eabi/8.5.0/../../../../../../arm-none-eabi/lib/thumb/v6-m/nofp/libg_nano.a(lib_a-nano-reallocr.o)
 .ARM.attributes
                0x00000000       0x2c /usr/local/Cellar/arm-none-eabi-gcc@8/8.5.0_2/lib/arm-none-eabi-gcc/8/gcc/arm-none-eabi/8.5.0/../../../../../../arm-none-eabi/lib/thumb/v6-m/nofp/libg_nano.a(lib_a-nano-reallocr.o)
 .text          0x00000000      0x178 /usr/local/Cellar/arm-none-eabi-gcc@8/8.5.0_2/lib/arm-none-eabi-gcc/8/gcc/arm-none-eabi/8.5.0/../../../../../../arm-none-eabi/lib/thumb/v6-m/nofp/libg_nano.a(lib_a-signal.o)
 .data          0x00000000        0x0 /usr/local/Cellar/arm-none-eabi-gcc@8/8.5.0_2/lib/arm-none-eabi-gcc/8/gcc/arm-none-eabi/8.5.0/../../../../../../arm-none-eabi/lib/thumb/v6-m/nofp/libg_nano.a(lib_a-signal.o)
 .bss           0x00000000        0x0 /usr/local/Cellar/arm-none-eabi-gcc@8/8.5.0_2/lib/arm-none-eabi-gcc/8/gcc/arm-none-eabi/8.5.0/../../../../../../arm-none-eabi/lib/thumb/v6-m/nofp/libg_nano.a(lib_a-signal.o)
 .debug_frame   0x00000000       0xf4 /usr/local/Cellar/arm-none-eabi-gcc@8/8.5.0_2/lib/arm-none-eabi-gcc/8/gcc/arm-none-eabi/8.5.0/../../../../../../arm-none-eabi/lib/thumb/v6-m/nofp/libg_nano.a(lib_a-signal.o)
 .ARM.attributes
                0x00000000       0x2c /usr/local/Cellar/arm-none-eabi-gcc@8/8.5.0_2/lib/arm-none-eabi-gcc/8/gcc/arm-none-eabi/8.5.0/../../../../../../arm-none-eabi/lib/thumb/v6-m/nofp/libg_nano.a(lib_a-signal.o)
 .text          0x00000000       0x30 /usr/local/Cellar/arm-none-eabi-gcc@8/8.5.0_2/lib/arm-none-eabi-gcc/8/gcc/arm-none-eabi/8.5.0/../../../../../../arm-none-eabi/lib/thumb/v6-m/nofp/libg_nano.a(lib_a-signalr.o)
 .data          0x00000000        0x0 /usr/local/Cellar/arm-none-eabi-gcc@8/8.5.0_2/lib/arm-none-eabi-gcc/8/gcc/arm-none-eabi/8.5.0/../../../../../../arm-none-eabi/lib/thumb/v6-m/nofp/libg_nano.a(lib_a-signalr.o)
 .bss           0x00000000        0x0 /usr/local/Cellar/arm-none-eabi-gcc@8/8.5.0_2/lib/arm-none-eabi-gcc/8/gcc/arm-none-eabi/8.5.0/../../../../../../arm-none-eabi/lib/thumb/v6-m/nofp/libg_nano.a(lib_a-signalr.o)
 .debug_frame   0x00000000       0x44 /usr/local/Cellar/arm-none-eabi-gcc@8/8.5.0_2/lib/arm-none-eabi-gcc/8/gcc/arm-none-eabi/8.5.0/../../../../../../arm-none-eabi/lib/thumb/v6-m/nofp/libg_nano.a(lib_a-signalr.o)
 .ARM.attributes
                0x00000000       0x2c /usr/local/Cellar/arm-none-eabi-gcc@8/8.5.0_2/lib/arm-none-eabi-gcc/8/gcc/arm-none-eabi/8.5.0/../../../../../../arm-none-eabi/lib/thumb/v6-m/nofp/libg_nano.a(lib_a-signalr.o)
 .text          0x00000000       0xa4 /usr/local/Cellar/arm-none-eabi-gcc@8/8.5.0_2/lib/arm-none-eabi-gcc/8/gcc/arm-none-eabi/8.5.0/../../../../../../arm-none-eabi/lib/thumb/v6-m/nofp/libg_nano.a(lib_a-stdio.o)
 .data          0x00000000        0x0 /usr/local/Cellar/arm-none-eabi-gcc@8/8.5.0_2/lib/arm-none-eabi-gcc/8/gcc/arm-none-eabi/8.5.0/../../../../../../arm-none-eabi/lib/thumb/v6-m/nofp/libg_nano.a(lib_a-stdio.o)
 .bss           0x00000000        0x0 /usr/local/Cellar/arm-none-eabi-gcc@8/8.5.0_2/lib/arm-none-eabi-gcc/8/gcc/arm-none-eabi/8.5.0/../../../../../../arm-none-eabi/lib/thumb/v6-m/nofp/libg_nano.a(lib_a-stdio.o)
 .debug_frame   0x00000000       0x90 /usr/local/Cellar/arm-none-eabi-gcc@8/8.5.0_2/lib/arm-none-eabi-gcc/8/gcc/arm-none-eabi/8.5.0/../../../../../../arm-none-eabi/lib/thumb/v6-m/nofp/libg_nano.a(lib_a-stdio.o)
 .ARM.attributes
                0x00000000       0x2c /usr/local/Cellar/arm-none-eabi-gcc@8/8.5.0_2/lib/arm-none-eabi-gcc/8/gcc/arm-none-eabi/8.5.0/../../../../../../arm-none-eabi/lib/thumb/v6-m/nofp/libg_nano.a(lib_a-stdio.o)
 .text          0x00000000       0x14 /usr/local/Cellar/arm-none-eabi-gcc@8/8.5.0_2/lib/arm-none-eabi-gcc/8/gcc/arm-none-eabi/8.5.0/../../../../../../arm-none-eabi/lib/thumb/v6-m/nofp/libg_nano.a(lib_a-nano-msizer.o)
 .data          0x00000000        0x0 /usr/local/Cellar/arm-none-eabi-gcc@8/8.5.0_2/lib/arm-none-eabi-gcc/8/gcc/arm-none-eabi/8.5.0/../../../../../../arm-none-eabi/lib/thumb/v6-m/nofp/libg_nano.a(lib_a-nano-msizer.o)
 .bss           0x00000000        0x0 /usr/local/Cellar/arm-none-eabi-gcc@8/8.5.0_2/lib/arm-none-eabi-gcc/8/gcc/arm-none-eabi/8.5.0/../../../../../../arm-none-eabi/lib/thumb/v6-m/nofp/libg_nano.a(lib_a-nano-msizer.o)
 .debug_frame   0x00000000       0x20 /usr/local/Cellar/arm-none-eabi-gcc@8/8.5.0_2/lib/arm-none-eabi-gcc/8/gcc/arm-none-eabi/8.5.0/../../../../../../arm-none-eabi/lib/thumb/v6-m/nofp/libg_nano.a(lib_a-nano-msizer.o)
 .ARM.attributes
                0x00000000       0x2c /usr/local/Cellar/arm-none-eabi-gcc@8/8.5.0_2/lib/arm-none-eabi-gcc/8/gcc/arm-none-eabi/8.5.0/../../../../../../arm-none-eabi/lib/thumb/v6-m/nofp/libg_nano.a(lib_a-nano-msizer.o)
 .text          0x00000000       0xf8 /usr/local/Cellar/arm-none-eabi-gcc@8/8.5.0_2/lib/arm-none-eabi-gcc/8/gcc/arm-none-eabi/8.5.0/../../../../../../arm-none-eabi/lib/thumb/v6-m/nofp/libg_nano.a(lib_a-reent.o)
 .data          0x00000000        0x0 /usr/local/Cellar/arm-none-eabi-gcc@8/8.5.0_2/lib/arm-none-eabi-gcc/8/gcc/arm-none-eabi/8.5.0/../../../../../../arm-none-eabi/lib/thumb/v6-m/nofp/libg_nano.a(lib_a-reent.o)
 .bss           0x00000000        0x0 /usr/local/Cellar/arm-none-eabi-gcc@8/8.5.0_2/lib/arm-none-eabi-gcc/8/gcc/arm-none-eabi/8.5.0/../../../../../../arm-none-eabi/lib/thumb/v6-m/nofp/libg_nano.a(lib_a-reent.o)
 .debug_frame   0x00000000       0x48 /usr/local/Cellar/arm-none-eabi-gcc@8/8.5.0_2/lib/arm-none-eabi-gcc/8/gcc/arm-none-eabi/8.5.0/../../../../../../arm-none-eabi/lib/thumb/v6-m/nofp/libg_nano.a(lib_a-reent.o)
 .ARM.attributes
                0x00000000       0x2c /usr/local/Cellar/arm-none-eabi-gcc@8/8.5.0_2/lib/arm-none-eabi-gcc/8/gcc/arm-none-eabi/8.5.0/../../../../../../arm-none-eabi/lib/thumb/v6-m/nofp/libg_nano.a(lib_a-reent.o)
 COMMON         0x00000000        0x4 /usr/local/Cellar/arm-none-eabi-gcc@8/8.5.0_2/lib/arm-none-eabi-gcc/8/gcc/arm-none-eabi/8.5.0/../../../../../../arm-none-eabi/lib/thumb/v6-m/nofp/libg_nano.a(lib_a-reent.o)
 .data          0x00000000        0x0 /usr/local/Cellar/arm-none-eabi-gcc@8/8.5.0_2/lib/arm-none-eabi-gcc/8/gcc/arm-none-eabi/8.5.0/../../../../../../arm-none-eabi/lib/thumb/v6-m/nofp/libg_nano.a(lib_a-memcmp.o)
 .bss           0x00000000        0x0 /usr/local/Cellar/arm-none-eabi-gcc@8/8.5.0_2/lib/arm-none-eabi-gcc/8/gcc/arm-none-eabi/8.5.0/../../../../../../arm-none-eabi/lib/thumb/v6-m/nofp/libg_nano.a(lib_a-memcmp.o)
 .data          0x00000000        0x0 /usr/local/Cellar/arm-none-eabi-gcc@8/8.5.0_2/lib/arm-none-eabi-gcc/8/gcc/arm-none-eabi/8.5.0/thumb/v6-m/nofp/libgcc.a(_udivsi3.o)
 .bss           0x00000000        0x0 /usr/local/Cellar/arm-none-eabi-gcc@8/8.5.0_2/lib/arm-none-eabi-gcc/8/gcc/arm-none-eabi/8.5.0/thumb/v6-m/nofp/libgcc.a(_udivsi3.o)
 .data          0x00000000        0x0 /usr/local/Cellar/arm-none-eabi-gcc@8/8.5.0_2/lib/arm-none-eabi-gcc/8/gcc/arm-none-eabi/8.5.0/thumb/v6-m/nofp/libgcc.a(_divsi3.o)
 .bss           0x00000000        0x0 /usr/local/Cellar/arm-none-eabi-gcc@8/8.5.0_2/lib/arm-none-eabi-gcc/8/gcc/arm-none-eabi/8.5.0/thumb/v6-m/nofp/libgcc.a(_divsi3.o)
 .data          0x00000000        0x0 /usr/local/Cellar/arm-none-eabi-gcc@8/8.5.0_2/lib/arm-none-eabi-gcc/8/gcc/arm-none-eabi/8.5.0/thumb/v6-m/nofp/libgcc.a(_dvmd_tls.o)
 .bss           0x00000000        0x0 /usr/local/Cellar/arm-none-eabi-gcc@8/8.5.0_2/lib/arm-none-eabi-gcc/8/gcc/arm-none-eabi/8.5.0/thumb/v6-m/nofp/libgcc.a(_dvmd_tls.o)
 .data          0x00000000        0x0 /usr/local/Cellar/arm-none-eabi-gcc@8/8.5.0_2/lib/arm-none-eabi-gcc/8/gcc/arm-none-eabi/8.5.0/thumb/v6-m/nofp/libgcc.a(_muldi3.o)
 .bss           0x00000000        0x0 /usr/local/Cellar/arm-none-eabi-gcc@8/8.5.0_2/lib/arm-none-eabi-gcc/8/gcc/arm-none-eabi/8.5.0/thumb/v6-m/nofp/libgcc.a(_muldi3.o)
 .data          0x00000000        0x0 /usr/local/Cellar/arm-none-eabi-gcc@8/8.5.0_2/lib/arm-none-eabi-gcc/8/gcc/arm-none-eabi/8.5.0/thumb/v6-m/nofp/libgcc.a(_thumb1_case_sqi.o)
 .bss           0x00000000        0x0 /usr/local/Cellar/arm-none-eabi-gcc@8/8.5.0_2/lib/arm-none-eabi-gcc/8/gcc/arm-none-eabi/8.5.0/thumb/v6-m/nofp/libgcc.a(_thumb1_case_sqi.o)
 .data          0x00000000        0x0 /usr/local/Cellar/arm-none-eabi-gcc@8/8.5.0_2/lib/arm-none-eabi-gcc/8/gcc/arm-none-eabi/8.5.0/thumb/v6-m/nofp/libgcc.a(_thumb1_case_uqi.o)
 .bss           0x00000000        0x0 /usr/local/Cellar/arm-none-eabi-gcc@8/8.5.0_2/lib/arm-none-eabi-gcc/8/gcc/arm-none-eabi/8.5.0/thumb/v6-m/nofp/libgcc.a(_thumb1_case_uqi.o)
 .data          0x00000000        0x0 /usr/local/Cellar/arm-none-eabi-gcc@8/8.5.0_2/lib/arm-none-eabi-gcc/8/gcc/arm-none-eabi/8.5.0/thumb/v6-m/nofp/libgcc.a(_thumb1_case_shi.o)
 .bss           0x00000000        0x0 /usr/local/Cellar/arm-none-eabi-gcc@8/8.5.0_2/lib/arm-none-eabi-gcc/8/gcc/arm-none-eabi/8.5.0/thumb/v6-m/nofp/libgcc.a(_thumb1_case_shi.o)
 .data          0x00000000        0x0 /usr/local/Cellar/arm-none-eabi-gcc@8/8.5.0_2/lib/arm-none-eabi-gcc/8/gcc/arm-none-eabi/8.5.0/thumb/v6-m/nofp/libgcc.a(_thumb1_case_uhi.o)
 .bss           0x00000000        0x0 /usr/local/Cellar/arm-none-eabi-gcc@8/8.5.0_2/lib/arm-none-eabi-gcc/8/gcc/arm-none-eabi/8.5.0/thumb/v6-m/nofp/libgcc.a(_thumb1_case_uhi.o)
 .text          0x00000000       0x48 /usr/local/Cellar/arm-none-eabi-gcc@8/8.5.0_2/lib/arm-none-eabi-gcc/8/gcc/arm-none-eabi/8.5.0/thumb/v6-m/nofp/libgcc.a(_aeabi_ldivmod.o)
 .data          0x00000000        0x0 /usr/local/Cellar/arm-none-eabi-gcc@8/8.5.0_2/lib/arm-none-eabi-gcc/8/gcc/arm-none-eabi/8.5.0/thumb/v6-m/nofp/libgcc.a(_aeabi_ldivmod.o)
 .bss           0x00000000        0x0 /usr/local/Cellar/arm-none-eabi-gcc@8/8.5.0_2/lib/arm-none-eabi-gcc/8/gcc/arm-none-eabi/8.5.0/thumb/v6-m/nofp/libgcc.a(_aeabi_ldivmod.o)
 .ARM.attributes
                0x00000000       0x1e /usr/local/Cellar/arm-none-eabi-gcc@8/8.5.0_2/lib/arm-none-eabi-gcc/8/gcc/arm-none-eabi/8.5.0/thumb/v6-m/nofp/libgcc.a(_aeabi_ldivmod.o)
 .data          0x00000000        0x0 /usr/local/Cellar/arm-none-eabi-gcc@8/8.5.0_2/lib/arm-none-eabi-gcc/8/gcc/arm-none-eabi/8.5.0/thumb/v6-m/nofp/libgcc.a(_aeabi_uldivmod.o)
 .bss           0x00000000        0x0 /usr/local/Cellar/arm-none-eabi-gcc@8/8.5.0_2/lib/arm-none-eabi-gcc/8/gcc/arm-none-eabi/8.5.0/thumb/v6-m/nofp/libgcc.a(_aeabi_uldivmod.o)
 .data          0x00000000        0x0 /usr/local/Cellar/arm-none-eabi-gcc@8/8.5.0_2/lib/arm-none-eabi-gcc/8/gcc/arm-none-eabi/8.5.0/thumb/v6-m/nofp/libgcc.a(_udivmoddi4.o)
 .bss           0x00000000        0x0 /usr/local/Cellar/arm-none-eabi-gcc@8/8.5.0_2/lib/arm-none-eabi-gcc/8/gcc/arm-none-eabi/8.5.0/thumb/v6-m/nofp/libgcc.a(_udivmoddi4.o)
 .ARM.extab     0x00000000        0x0 /usr/local/Cellar/arm-none-eabi-gcc@8/8.5.0_2/lib/arm-none-eabi-gcc/8/gcc/arm-none-eabi/8.5.0/thumb/v6-m/nofp/libgcc.a(_udivmoddi4.o)
 .text          0x00000000       0x38 /usr/local/Cellar/arm-none-eabi-gcc@8/8.5.0_2/lib/arm-none-eabi-gcc/8/gcc/arm-none-eabi/8.5.0/thumb/v6-m/nofp/libgcc.a(bpabi.o)
 .data          0x00000000        0x0 /usr/local/Cellar/arm-none-eabi-gcc@8/8.5.0_2/lib/arm-none-eabi-gcc/8/gcc/arm-none-eabi/8.5.0/thumb/v6-m/nofp/libgcc.a(bpabi.o)
 .bss           0x00000000        0x0 /usr/local/Cellar/arm-none-eabi-gcc@8/8.5.0_2/lib/arm-none-eabi-gcc/8/gcc/arm-none-eabi/8.5.0/thumb/v6-m/nofp/libgcc.a(bpabi.o)
 .debug_frame   0x00000000       0x30 /usr/local/Cellar/arm-none-eabi-gcc@8/8.5.0_2/lib/arm-none-eabi-gcc/8/gcc/arm-none-eabi/8.5.0/thumb/v6-m/nofp/libgcc.a(bpabi.o)
 .ARM.attributes
                0x00000000       0x2c /usr/local/Cellar/arm-none-eabi-gcc@8/8.5.0_2/lib/arm-none-eabi-gcc/8/gcc/arm-none-eabi/8.5.0/thumb/v6-m/nofp/libgcc.a(bpabi.o)
 .data          0x00000000        0x0 /usr/local/Cellar/arm-none-eabi-gcc@8/8.5.0_2/lib/arm-none-eabi-gcc/8/gcc/arm-none-eabi/8.5.0/thumb/v6-m/nofp/libgcc.a(_clzdi2.o)
 .bss           0x00000000        0x0 /usr/local/Cellar/arm-none-eabi-gcc@8/8.5.0_2/lib/arm-none-eabi-gcc/8/gcc/arm-none-eabi/8.5.0/thumb/v6-m/nofp/libgcc.a(_clzdi2.o)
 .text          0x00000000      0x1cc /usr/local/Cellar/arm-none-eabi-gcc@8/8.5.0_2/lib/arm-none-eabi-gcc/8/gcc/arm-none-eabi/8.5.0/thumb/v6-m/nofp/libgcc.a(_divdi3.o)
 .data          0x00000000        0x0 /usr/local/Cellar/arm-none-eabi-gcc@8/8.5.0_2/lib/arm-none-eabi-gcc/8/gcc/arm-none-eabi/8.5.0/thumb/v6-m/nofp/libgcc.a(_divdi3.o)
 .bss           0x00000000        0x0 /usr/local/Cellar/arm-none-eabi-gcc@8/8.5.0_2/lib/arm-none-eabi-gcc/8/gcc/arm-none-eabi/8.5.0/thumb/v6-m/nofp/libgcc.a(_divdi3.o)
 .ARM.extab     0x00000000        0x0 /usr/local/Cellar/arm-none-eabi-gcc@8/8.5.0_2/lib/arm-none-eabi-gcc/8/gcc/arm-none-eabi/8.5.0/thumb/v6-m/nofp/libgcc.a(_divdi3.o)
 .ARM.exidx     0x00000000        0x8 /usr/local/Cellar/arm-none-eabi-gcc@8/8.5.0_2/lib/arm-none-eabi-gcc/8/gcc/arm-none-eabi/8.5.0/thumb/v6-m/nofp/libgcc.a(_divdi3.o)
 .debug_frame   0x00000000       0x3c /usr/local/Cellar/arm-none-eabi-gcc@8/8.5.0_2/lib/arm-none-eabi-gcc/8/gcc/arm-none-eabi/8.5.0/thumb/v6-m/nofp/libgcc.a(_divdi3.o)
 .ARM.attributes
                0x00000000       0x2c /usr/local/Cellar/arm-none-eabi-gcc@8/8.5.0_2/lib/arm-none-eabi-gcc/8/gcc/arm-none-eabi/8.5.0/thumb/v6-m/nofp/libgcc.a(_divdi3.o)
 .data          0x00000000        0x0 /usr/local/Cellar/arm-none-eabi-gcc@8/8.5.0_2/lib/arm-none-eabi-gcc/8/gcc/arm-none-eabi/8.5.0/thumb/v6-m/nofp/libgcc.a(_clzsi2.o)
 .bss           0x00000000        0x0 /usr/local/Cellar/arm-none-eabi-gcc@8/8.5.0_2/lib/arm-none-eabi-gcc/8/gcc/arm-none-eabi/8.5.0/thumb/v6-m/nofp/libgcc.a(_clzsi2.o)

Memory Configuration

Name             Origin             Length             Attributes
flash0           0x00000000         0x00004000         xr
flash1           0x10000000         0x00200000         xr
flash2           0x00000000         0x00000000         xr
flash3           0x00000000         0x00000000         xr
flash4           0x00000000         0x00000000         xr
flash5           0x00000000         0x00000000         xr
flash6           0x00000000         0x00000000         xr
flash7           0x00000000         0x00000000         xr
ram0             0x20000000         0x00040000         xw
ram1             0x00000000         0x00040000         xw
ram2             0x00000000         0x00000000         xw
ram3             0x00000000         0x00000000         xw
ram4             0x20040000         0x00001000         xw
ram5             0x20041000         0x00001000         xw
ram6             0x00000000         0x00000000         xw
ram7             0x20041f00         0x00000100         xw
*default*        0x00000000         0xffffffff

Linker script and memory map

LOAD .build/obj_converter_cumulus_ta15_vial/keyboards/converter/cumulus_ta15/cumulus_ta15.o
LOAD /var/folders/x9/cy1bx1f960zd_7xhdrxmk_zm0000gn/T//ccbHuJM1debugobj
LOAD /var/folders/x9/cy1bx1f960zd_7xhdrxmk_zm0000gn/T//cc8Nwo3z.ltrans0.ltrans.o
LOAD /var/folders/x9/cy1bx1f960zd_7xhdrxmk_zm0000gn/T//cc8Nwo3z.ltrans1.ltrans.o
LOAD .build/obj_converter_cumulus_ta15_vial/.build/obj_converter_cumulus_ta15/src/default_keyboard.o
LOAD .build/obj_converter_cumulus_ta15_vial/quantum/keymap_introspection.o
LOAD .build/obj_converter_cumulus_ta15_vial/quantum/quantum.o
LOAD .build/obj_converter_cumulus_ta15_vial/quantum/bitwise.o
LOAD .build/obj_converter_cumulus_ta15_vial/quantum/led.o
LOAD .build/obj_converter_cumulus_ta15_vial/quantum/action.o
LOAD .build/obj_converter_cumulus_ta15_vial/quantum/action_layer.o
LOAD .build/obj_converter_cumulus_ta15_vial/quantum/action_tapping.o
LOAD .build/obj_converter_cumulus_ta15_vial/quantum/action_util.o
LOAD .build/obj_converter_cumulus_ta15_vial/quantum/eeconfig.o
LOAD .build/obj_converter_cumulus_ta15_vial/quantum/keyboard.o
LOAD .build/obj_converter_cumulus_ta15_vial/quantum/keymap_common.o
LOAD .build/obj_converter_cumulus_ta15_vial/quantum/keycode_config.o
LOAD .build/obj_converter_cumulus_ta15_vial/quantum/sync_timer.o
LOAD .build/obj_converter_cumulus_ta15_vial/quantum/logging/debug.o
LOAD .build/obj_converter_cumulus_ta15_vial/quantum/logging/sendchar.o
LOAD .build/obj_converter_cumulus_ta15_vial/quantum/logging/print.o
LOAD .build/obj_converter_cumulus_ta15_vial/quantum/bootmagic/bootmagic_lite.o
LOAD .build/obj_converter_cumulus_ta15_vial/quantum/bootmagic/magic.o
LOAD .build/obj_converter_cumulus_ta15_vial/quantum/matrix_common.o
LOAD .build/obj_converter_cumulus_ta15_vial/quantum/matrix.o
LOAD .build/obj_converter_cumulus_ta15_vial/quantum/debounce/sym_defer_g.o
LOAD .build/obj_converter_cumulus_ta15_vial/quantum/main.o
LOAD .build/obj_converter_cumulus_ta15_vial/printf.o
LOAD .build/obj_converter_cumulus_ta15_vial/quantum/mousekey.o
LOAD .build/obj_converter_cumulus_ta15_vial/eeprom_driver.o
LOAD .build/obj_converter_cumulus_ta15_vial/eeprom_wear_leveling.o
LOAD .build/obj_converter_cumulus_ta15_vial/wear_leveling.o
LOAD .build/obj_converter_cumulus_ta15_vial/wear_leveling_rp2040_flash.o
LOAD .build/obj_converter_cumulus_ta15_vial/quantum/via.o
LOAD .build/obj_converter_cumulus_ta15_vial/quantum/vial.o
LOAD .build/obj_converter_cumulus_ta15_vial/quantum/dynamic_keymap.o
LOAD .build/obj_converter_cumulus_ta15_vial/quantum/qmk_settings.o
LOAD .build/obj_converter_cumulus_ta15_vial/qmk_fnv_type_validation.o
LOAD .build/obj_converter_cumulus_ta15_vial/hash_32a.o
LOAD .build/obj_converter_cumulus_ta15_vial/hash_64a.o
LOAD .build/obj_converter_cumulus_ta15_vial/quantum/process_keycode/process_unicode.o
LOAD .build/obj_converter_cumulus_ta15_vial/quantum/process_keycode/process_unicode_common.o
LOAD .build/obj_converter_cumulus_ta15_vial/quantum/utf8.o
LOAD .build/obj_converter_cumulus_ta15_vial/quantum/process_keycode/process_magic.o
LOAD .build/obj_converter_cumulus_ta15_vial/quantum/send_string/send_string.o
LOAD .build/obj_converter_cumulus_ta15_vial/quantum/process_keycode/process_auto_shift.o
LOAD .build/obj_converter_cumulus_ta15_vial/quantum/process_keycode/process_combo.o
LOAD .build/obj_converter_cumulus_ta15_vial/quantum/process_keycode/process_dynamic_macro.o
LOAD .build/obj_converter_cumulus_ta15_vial/quantum/process_keycode/process_grave_esc.o
LOAD .build/obj_converter_cumulus_ta15_vial/quantum/process_keycode/process_key_override.o
LOAD .build/obj_converter_cumulus_ta15_vial/quantum/process_keycode/process_space_cadet.o
LOAD .build/obj_converter_cumulus_ta15_vial/quantum/process_keycode/process_tap_dance.o
LOAD .build/obj_converter_cumulus_ta15_vial/./lib/chibios/os/common/startup/ARMCMx/compilers/GCC/crt0_v6m.o
LOAD .build/obj_converter_cumulus_ta15_vial/./lib/chibios/os/common/startup/ARMCMx/compilers/GCC/vectors.o
LOAD .build/obj_converter_cumulus_ta15_vial/./lib/chibios/os/common/ports/ARMv6-M-RP2/compilers/GCC/chcoreasm.o
LOAD .build/obj_converter_cumulus_ta15_vial/protocol/host.o
LOAD .build/obj_converter_cumulus_ta15_vial/protocol/report.o
LOAD .build/obj_converter_cumulus_ta15_vial/protocol/usb_device_state.o
LOAD .build/obj_converter_cumulus_ta15_vial/protocol/usb_util.o
LOAD .build/obj_converter_cumulus_ta15_vial/platforms/suspend.o
LOAD .build/obj_converter_cumulus_ta15_vial/platforms/chibios/hardware_id.o
LOAD .build/obj_converter_cumulus_ta15_vial/platforms/chibios/platform.o
LOAD .build/obj_converter_cumulus_ta15_vial/platforms/chibios/suspend.o
LOAD .build/obj_converter_cumulus_ta15_vial/platforms/chibios/timer.o
LOAD .build/obj_converter_cumulus_ta15_vial/platforms/chibios/bootloaders/rp2040.o
LOAD .build/obj_converter_cumulus_ta15_vial/protocol/chibios/usb_main.o
LOAD .build/obj_converter_cumulus_ta15_vial/protocol/chibios/chibios.o
LOAD .build/obj_converter_cumulus_ta15_vial/usb_descriptor.o
LOAD .build/obj_converter_cumulus_ta15_vial/protocol/chibios/usb_driver.o
LOAD .build/obj_converter_cumulus_ta15_vial/protocol/chibios/usb_util.o
LOAD .build/obj_converter_cumulus_ta15_vial/./lib/chibios/os/oslib/src/chmboxes.o
LOAD .build/obj_converter_cumulus_ta15_vial/./lib/chibios/os/oslib/src/chmemcore.o
LOAD .build/obj_converter_cumulus_ta15_vial/./lib/chibios/os/oslib/src/chmemheaps.o
LOAD .build/obj_converter_cumulus_ta15_vial/./lib/chibios/os/oslib/src/chmempools.o
LOAD .build/obj_converter_cumulus_ta15_vial/./lib/chibios/os/oslib/src/chpipes.o
LOAD .build/obj_converter_cumulus_ta15_vial/./lib/chibios/os/oslib/src/chobjcaches.o
LOAD .build/obj_converter_cumulus_ta15_vial/./lib/chibios/os/oslib/src/chdelegates.o
LOAD .build/obj_converter_cumulus_ta15_vial/./lib/chibios/os/oslib/src/chfactory.o
LOAD .build/obj_converter_cumulus_ta15/lib/chibios/os/common/startup/ARMCMx/compilers/GCC/crt1.o
LOAD .build/obj_converter_cumulus_ta15/lib/chibios/os/rt/src/chsys.o
LOAD .build/obj_converter_cumulus_ta15/lib/chibios/os/rt/src/chrfcu.o
LOAD .build/obj_converter_cumulus_ta15/lib/chibios/os/rt/src/chdebug.o
LOAD .build/obj_converter_cumulus_ta15/lib/chibios/os/rt/src/chtrace.o
LOAD .build/obj_converter_cumulus_ta15/lib/chibios/os/rt/src/chvt.o
LOAD .build/obj_converter_cumulus_ta15/lib/chibios/os/rt/src/chschd.o
LOAD .build/obj_converter_cumulus_ta15/lib/chibios/os/rt/src/chinstances.o
LOAD .build/obj_converter_cumulus_ta15/lib/chibios/os/rt/src/chthreads.o
LOAD .build/obj_converter_cumulus_ta15/lib/chibios/os/rt/src/chtm.o
LOAD .build/obj_converter_cumulus_ta15/lib/chibios/os/rt/src/chstats.o
LOAD .build/obj_converter_cumulus_ta15/lib/chibios/os/rt/src/chregistry.o
LOAD .build/obj_converter_cumulus_ta15/lib/chibios/os/rt/src/chsem.o
LOAD .build/obj_converter_cumulus_ta15/lib/chibios/os/rt/src/chmtx.o
LOAD .build/obj_converter_cumulus_ta15/lib/chibios/os/rt/src/chcond.o
LOAD .build/obj_converter_cumulus_ta15/lib/chibios/os/rt/src/chevents.o
LOAD .build/obj_converter_cumulus_ta15/lib/chibios/os/rt/src/chmsg.o
LOAD .build/obj_converter_cumulus_ta15/lib/chibios/os/rt/src/chdynamic.o
LOAD .build/obj_converter_cumulus_ta15/lib/chibios/os/common/ports/ARMv6-M-RP2/chcore.o
LOAD .build/obj_converter_cumulus_ta15/lib/chibios/os/hal/osal/rt-nil/osal.o
LOAD .build/obj_converter_cumulus_ta15/lib/chibios/os/hal/src/hal.o
LOAD .build/obj_converter_cumulus_ta15/lib/chibios/os/hal/src/hal_st.o
LOAD .build/obj_converter_cumulus_ta15/lib/chibios/os/hal/src/hal_buffers.o
LOAD .build/obj_converter_cumulus_ta15/lib/chibios/os/hal/src/hal_queues.o
LOAD .build/obj_converter_cumulus_ta15/lib/chibios/os/hal/src/hal_flash.o
LOAD .build/obj_converter_cumulus_ta15/lib/chibios/os/hal/src/hal_mmcsd.o
LOAD .build/obj_converter_cumulus_ta15/lib/chibios/os/hal/src/hal_adc.o
LOAD .build/obj_converter_cumulus_ta15/lib/chibios/os/hal/src/hal_can.o
LOAD .build/obj_converter_cumulus_ta15/lib/chibios/os/hal/src/hal_crypto.o
LOAD .build/obj_converter_cumulus_ta15/lib/chibios/os/hal/src/hal_dac.o
LOAD .build/obj_converter_cumulus_ta15/lib/chibios/os/hal/src/hal_efl.o
LOAD .build/obj_converter_cumulus_ta15/lib/chibios/os/hal/src/hal_gpt.o
LOAD .build/obj_converter_cumulus_ta15/lib/chibios/os/hal/src/hal_i2c.o
LOAD .build/obj_converter_cumulus_ta15/lib/chibios/os/hal/src/hal_i2s.o
LOAD .build/obj_converter_cumulus_ta15/lib/chibios/os/hal/src/hal_icu.o
LOAD .build/obj_converter_cumulus_ta15/lib/chibios/os/hal/src/hal_mac.o
LOAD .build/obj_converter_cumulus_ta15/lib/chibios/os/hal/src/hal_mmc_spi.o
LOAD .build/obj_converter_cumulus_ta15/lib/chibios/os/hal/src/hal_pal.o
LOAD .build/obj_converter_cumulus_ta15/lib/chibios/os/hal/src/hal_pwm.o
LOAD .build/obj_converter_cumulus_ta15/lib/chibios/os/hal/src/hal_rtc.o
LOAD .build/obj_converter_cumulus_ta15/lib/chibios/os/hal/src/hal_sdc.o
LOAD .build/obj_converter_cumulus_ta15/lib/chibios/os/hal/src/hal_serial.o
LOAD .build/obj_converter_cumulus_ta15/lib/chibios/os/hal/src/hal_serial_usb.o
LOAD .build/obj_converter_cumulus_ta15/lib/chibios/os/hal/src/hal_sio.o
LOAD .build/obj_converter_cumulus_ta15/lib/chibios/os/hal/src/hal_spi.o
LOAD .build/obj_converter_cumulus_ta15/lib/chibios/os/hal/src/hal_trng.o
LOAD .build/obj_converter_cumulus_ta15/lib/chibios/os/hal/src/hal_uart.o
LOAD .build/obj_converter_cumulus_ta15/lib/chibios/os/hal/src/hal_usb.o
LOAD .build/obj_converter_cumulus_ta15/lib/chibios/os/hal/src/hal_wdg.o
LOAD .build/obj_converter_cumulus_ta15/lib/chibios/os/hal/src/hal_wspi.o
LOAD .build/obj_converter_cumulus_ta15/lib/chibios/os/hal/ports/common/ARMCMx/nvic.o
LOAD .build/obj_converter_cumulus_ta15/lib/chibios/os/hal/ports/RP/RP2040/rp_isr.o
LOAD .build/obj_converter_cumulus_ta15/lib/chibios/os/hal/ports/RP/RP2040/hal_lld.o
LOAD .build/obj_converter_cumulus_ta15/lib/chibios/os/hal/ports/RP/LLD/DMAv1/rp_dma.o
LOAD .build/obj_converter_cumulus_ta15/lib/chibios/os/hal/ports/RP/LLD/GPIOv1/hal_pal_lld.o
LOAD .build/obj_converter_cumulus_ta15/lib/chibios/os/hal/ports/RP/LLD/SPIv1/hal_spi_lld.o
LOAD .build/obj_converter_cumulus_ta15/lib/chibios/os/hal/ports/RP/LLD/TIMERv1/hal_st_lld.o
LOAD .build/obj_converter_cumulus_ta15/lib/chibios/os/hal/ports/RP/LLD/UARTv1/hal_sio_lld.o
LOAD .build/obj_converter_cumulus_ta15/lib/chibios/os/hal/ports/RP/LLD/RTCv1/hal_rtc_lld.o
LOAD .build/obj_converter_cumulus_ta15/lib/chibios/os/hal/ports/RP/LLD/WDGv1/hal_wdg_lld.o
LOAD .build/obj_converter_cumulus_ta15/lib/chibios-contrib/os/hal/ports/RP/LLD/I2Cv1/hal_i2c_lld.o
LOAD .build/obj_converter_cumulus_ta15/lib/chibios-contrib/os/hal/ports/RP/LLD/PWMv1/hal_pwm_lld.o
LOAD .build/obj_converter_cumulus_ta15/lib/chibios-contrib/os/hal/ports/RP/LLD/ADCv1/hal_adc_lld.o
LOAD .build/obj_converter_cumulus_ta15/lib/chibios-contrib/os/hal/ports/RP/LLD/USBDv1/hal_usb_lld.o
LOAD .build/obj_converter_cumulus_ta15/lib/chibios/os/hal/boards/RP_PICO_RP2040/board.o
LOAD .build/obj_converter_cumulus_ta15/lib/chibios/os/hal/lib/streams/chprintf.o
LOAD .build/obj_converter_cumulus_ta15/lib/chibios/os/hal/lib/streams/chscanf.o
LOAD .build/obj_converter_cumulus_ta15/lib/chibios/os/hal/lib/streams/memstreams.o
LOAD .build/obj_converter_cumulus_ta15/lib/chibios/os/hal/lib/streams/nullstreams.o
LOAD .build/obj_converter_cumulus_ta15/lib/chibios/os/hal/lib/streams/bufstreams.o
LOAD .build/obj_converter_cumulus_ta15/lib/chibios/os/various/syscalls.o
LOAD .build/obj_converter_cumulus_ta15/platforms/chibios/syscall-fallbacks.o
LOAD .build/obj_converter_cumulus_ta15/platforms/chibios/wait.o
LOAD .build/obj_converter_cumulus_ta15/platforms/chibios/synchronization_util.o
LOAD .build/obj_converter_cumulus_ta15/./lib/pico-sdk/src/rp2_common/hardware_clocks/clocks.o
LOAD .build/obj_converter_cumulus_ta15/./lib/pico-sdk/src/rp2_common/hardware_pll/pll.o
LOAD .build/obj_converter_cumulus_ta15/./lib/pico-sdk/src/rp2_common/hardware_pio/pio.o
LOAD .build/obj_converter_cumulus_ta15/./lib/pico-sdk/src/rp2_common/hardware_flash/flash.o
LOAD .build/obj_converter_cumulus_ta15/./lib/pico-sdk/src/rp2_common/hardware_gpio/gpio.o
LOAD .build/obj_converter_cumulus_ta15/./lib/pico-sdk/src/rp2_common/hardware_claim/claim.o
LOAD .build/obj_converter_cumulus_ta15/./lib/pico-sdk/src/rp2_common/hardware_watchdog/watchdog.o
LOAD .build/obj_converter_cumulus_ta15/./lib/pico-sdk/src/rp2_common/hardware_xosc/xosc.o
LOAD .build/obj_converter_cumulus_ta15/./lib/pico-sdk/src/rp2_common/pico_bootrom/bootrom.o
LOAD .build/obj_converter_cumulus_ta15/platforms/chibios/vendors/RP/stage2_bootloaders.o
LOAD .build/obj_converter_cumulus_ta15/platforms/chibios/vendors/RP/pico_sdk_shims.o
                0x00000800                        __process_stack_size__ = 0x800
                0x00000400                        __main_stack_size__ = 0x400
LOAD /usr/local/Cellar/arm-none-eabi-gcc@8/8.5.0_2/lib/arm-none-eabi-gcc/8/gcc/arm-none-eabi/8.5.0/../../../../../../arm-none-eabi/lib/thumb/v6-m/nofp/libm.a
START GROUP
LOAD /usr/local/Cellar/arm-none-eabi-gcc@8/8.5.0_2/lib/arm-none-eabi-gcc/8/gcc/arm-none-eabi/8.5.0/thumb/v6-m/nofp/libgcc.a
LOAD /usr/local/Cellar/arm-none-eabi-gcc@8/8.5.0_2/lib/arm-none-eabi-gcc/8/gcc/arm-none-eabi/8.5.0/../../../../../../arm-none-eabi/lib/thumb/v6-m/nofp/libg_nano.a
LOAD /usr/local/Cellar/arm-none-eabi-gcc@8/8.5.0_2/lib/arm-none-eabi-gcc/8/gcc/arm-none-eabi/8.5.0/../../../../../../arm-none-eabi/lib/thumb/v6-m/nofp/libc_nano.a
END GROUP
START GROUP
LOAD /usr/local/Cellar/arm-none-eabi-gcc@8/8.5.0_2/lib/arm-none-eabi-gcc/8/gcc/arm-none-eabi/8.5.0/thumb/v6-m/nofp/libgcc.a
LOAD /usr/local/Cellar/arm-none-eabi-gcc@8/8.5.0_2/lib/arm-none-eabi-gcc/8/gcc/arm-none-eabi/8.5.0/../../../../../../arm-none-eabi/lib/thumb/v6-m/nofp/libc_nano.a
END GROUP

.flash_begin    0x10000000        0x0
                0x10000000                        __flash_binary_start = .

.boot2          0x10000000      0x100
                0x10000000                        __boot2_start__ = .
 *(.boot2)
 .boot2         0x10000000      0x100 /var/folders/x9/cy1bx1f960zd_7xhdrxmk_zm0000gn/T//cc8Nwo3z.ltrans0.ltrans.o
                0x10000000                BOOT2_ROM
                0x10000100                        __boot2_end__ = .

.mstack         0x20040000      0x400
                0x20040000                        . = ALIGN (0x8)
                0x20040000                        __main_stack_base__ = .
                0x20040400                        . = (. + __main_stack_size__)
 *fill*         0x20040000      0x400 
                0x20040400                        . = ALIGN (0x8)
                0x20040400                        __main_stack_end__ = .

.pstack         0x20040400      0x800
                0x20040400                        . = ALIGN (0x8)
                0x20040400                        __process_stack_base__ = .
                0x20040400                        __main_thread_stack_base__ = .
                0x20040c00                        . = (. + __process_stack_size__)
 *fill*         0x20040400      0x800 
                0x20040c00                        . = ALIGN (0x8)
                0x20040c00                        __process_stack_end__ = .
                0x20040c00                        __main_thread_stack_end__ = .
                0x00000400                        __c1_main_stack_size__ = __main_stack_size__
                0x00000800                        __c1_process_stack_size__ = __process_stack_size__

.c1_mstack      0x20041000      0x400
                0x20041000                        . = ALIGN (0x8)
                0x20041000                        __c1_main_stack_base__ = .
                0x20041400                        . = (. + __c1_main_stack_size__)
 *fill*         0x20041000      0x400 
                0x20041400                        . = ALIGN (0x8)
                0x20041400                        __c1_main_stack_end__ = .

.c1_pstack      0x20041400      0x800
                0x20041400                        . = ALIGN (0x8)
                0x20041400                        __c1_process_stack_base__ = .
                0x20041400                        __c1_main_thread_stack_base__ = .
                0x20041c00                        . = (. + __c1_process_stack_size__)
 *fill*         0x20041400      0x800 
                0x20041c00                        . = ALIGN (0x8)
                0x20041c00                        __c1_process_stack_end__ = .
                0x20041c00                        __c1_main_thread_stack_end__ = .

.vectors        0x10000100       0xc0
 *(.vectors)
 .vectors       0x10000100       0xc0 .build/obj_converter_cumulus_ta15_vial/./lib/chibios/os/common/startup/ARMCMx/compilers/GCC/vectors.o
                0x10000100                _vectors

.xtors          0x100001c0        0x0
                0x100001c0                        __init_array_base__ = .
 *(SORT_BY_NAME(.init_array.*))
 *(.init_array)
                0x100001c0                        __init_array_end__ = .
                0x100001c0                        __fini_array_base__ = .
 *(.fini_array)
 *(SORT_BY_NAME(.fini_array.*))
                0x100001c0                        __fini_array_end__ = .

.text           0x100001c0     0x8d18
                0x100001c0                        __text_base__ = .
 *(.text)
 .text          0x100001c0       0xdc .build/obj_converter_cumulus_ta15_vial/./lib/chibios/os/common/startup/ARMCMx/compilers/GCC/crt0_v6m.o
                0x100001c0                _crt0_entry
 .text          0x1000029c        0x8 .build/obj_converter_cumulus_ta15_vial/./lib/chibios/os/common/startup/ARMCMx/compilers/GCC/vectors.o
                0x1000029c                Reset_Handler
                0x1000029e                Vector9C
                0x1000029e                VectorAC
                0x1000029e                DebugMon_Handler
                0x1000029e                Vector5C
                0x1000029e                HardFault_Handler
                0x1000029e                Vector8C
                0x1000029e                PendSV_Handler
                0x1000029e                Vector94
                0x1000029e                VectorA8
                0x1000029e                VectorB4
                0x1000029e                Vector74
                0x1000029e                UsageFault_Handler
                0x1000029e                Vector40
                0x1000029e                VectorBC
                0x1000029e                Vector64
                0x1000029e                Vector98
                0x1000029e                Vector24
                0x1000029e                Vector84
                0x1000029e                SecureFault_Handler
                0x1000029e                MemManage_Handler
                0x1000029e                Vector6C
                0x1000029e                VectorA0
                0x1000029e                SVC_Handler
                0x1000029e                VectorB0
                0x1000029e                Vector90
                0x1000029e                Vector60
                0x1000029e                Vector48
                0x1000029e                Vector70
                0x1000029e                Vector4C
                0x1000029e                Vector68
                0x1000029e                Vector78
                0x1000029e                Vector20
                0x1000029e                Vector58
                0x1000029e                Vector88
                0x1000029e                BusFault_Handler
                0x1000029e                Vector50
                0x1000029e                Vector44
                0x1000029e                Vector28
                0x1000029e                VectorB8
                0x1000029e                Vector34
                0x1000029e                VectorA4
                0x100002a2                _unhandled_exception
 .text          0x100002a4       0x48 .build/obj_converter_cumulus_ta15_vial/./lib/chibios/os/common/ports/ARMv6-M-RP2/compilers/GCC/chcoreasm.o
                0x100002a4                __port_switch
                0x100002c4                __port_thread_start
                0x100002d6                __port_switch_from_isr
                0x100002da                __port_exit_from_isr
 .text          0x100002ec       0xa8 /usr/local/Cellar/arm-none-eabi-gcc@8/8.5.0_2/lib/arm-none-eabi-gcc/8/gcc/arm-none-eabi/8.5.0/../../../../../../arm-none-eabi/lib/thumb/v6-m/nofp/libg_nano.a(lib_a-memcpy-stub.o)
                0x100002ec                memcpy
 .text          0x10000394       0xa8 /usr/local/Cellar/arm-none-eabi-gcc@8/8.5.0_2/lib/arm-none-eabi-gcc/8/gcc/arm-none-eabi/8.5.0/../../../../../../arm-none-eabi/lib/thumb/v6-m/nofp/libg_nano.a(lib_a-memset.o)
                0x10000394                memset
 .text          0x1000043c       0x50 /usr/local/Cellar/arm-none-eabi-gcc@8/8.5.0_2/lib/arm-none-eabi-gcc/8/gcc/arm-none-eabi/8.5.0/../../../../../../arm-none-eabi/lib/thumb/v6-m/nofp/libg_nano.a(lib_a-memcmp.o)
                0x1000043c                memcmp
 .text          0x1000048c      0x114 /usr/local/Cellar/arm-none-eabi-gcc@8/8.5.0_2/lib/arm-none-eabi-gcc/8/gcc/arm-none-eabi/8.5.0/thumb/v6-m/nofp/libgcc.a(_udivsi3.o)
                0x1000048c                __udivsi3
                0x1000048c                __aeabi_uidiv
                0x10000598                __aeabi_uidivmod
 .text          0x100005a0      0x1d4 /usr/local/Cellar/arm-none-eabi-gcc@8/8.5.0_2/lib/arm-none-eabi-gcc/8/gcc/arm-none-eabi/8.5.0/thumb/v6-m/nofp/libgcc.a(_divsi3.o)
                0x100005a0                __aeabi_idiv
                0x100005a0                __divsi3
                0x1000076c                __aeabi_idivmod
 .text          0x10000774        0x4 /usr/local/Cellar/arm-none-eabi-gcc@8/8.5.0_2/lib/arm-none-eabi-gcc/8/gcc/arm-none-eabi/8.5.0/thumb/v6-m/nofp/libgcc.a(_dvmd_tls.o)
                0x10000774                __aeabi_ldiv0
                0x10000774                __aeabi_idiv0
 .text          0x10000778       0x54 /usr/local/Cellar/arm-none-eabi-gcc@8/8.5.0_2/lib/arm-none-eabi-gcc/8/gcc/arm-none-eabi/8.5.0/thumb/v6-m/nofp/libgcc.a(_muldi3.o)
                0x10000778                __aeabi_lmul
                0x10000778                __muldi3
 .text          0x100007cc       0x14 /usr/local/Cellar/arm-none-eabi-gcc@8/8.5.0_2/lib/arm-none-eabi-gcc/8/gcc/arm-none-eabi/8.5.0/thumb/v6-m/nofp/libgcc.a(_thumb1_case_sqi.o)
                0x100007cc                __gnu_thumb1_case_sqi
 .text          0x100007e0       0x14 /usr/local/Cellar/arm-none-eabi-gcc@8/8.5.0_2/lib/arm-none-eabi-gcc/8/gcc/arm-none-eabi/8.5.0/thumb/v6-m/nofp/libgcc.a(_thumb1_case_uqi.o)
                0x100007e0                __gnu_thumb1_case_uqi
 .text          0x100007f4       0x14 /usr/local/Cellar/arm-none-eabi-gcc@8/8.5.0_2/lib/arm-none-eabi-gcc/8/gcc/arm-none-eabi/8.5.0/thumb/v6-m/nofp/libgcc.a(_thumb1_case_shi.o)
                0x100007f4                __gnu_thumb1_case_shi
 .text          0x10000808       0x14 /usr/local/Cellar/arm-none-eabi-gcc@8/8.5.0_2/lib/arm-none-eabi-gcc/8/gcc/arm-none-eabi/8.5.0/thumb/v6-m/nofp/libgcc.a(_thumb1_case_uhi.o)
                0x10000808                __gnu_thumb1_case_uhi
 .text          0x1000081c       0x40 /usr/local/Cellar/arm-none-eabi-gcc@8/8.5.0_2/lib/arm-none-eabi-gcc/8/gcc/arm-none-eabi/8.5.0/thumb/v6-m/nofp/libgcc.a(_aeabi_uldivmod.o)
                0x1000081c                __aeabi_uldivmod
 .text          0x1000085c      0x1a4 /usr/local/Cellar/arm-none-eabi-gcc@8/8.5.0_2/lib/arm-none-eabi-gcc/8/gcc/arm-none-eabi/8.5.0/thumb/v6-m/nofp/libgcc.a(_udivmoddi4.o)
                0x1000085c                __udivmoddi4
 .text          0x10000a00       0x18 /usr/local/Cellar/arm-none-eabi-gcc@8/8.5.0_2/lib/arm-none-eabi-gcc/8/gcc/arm-none-eabi/8.5.0/thumb/v6-m/nofp/libgcc.a(_clzdi2.o)
                0x10000a00                __clzdi2
 .text          0x10000a18       0x3c /usr/local/Cellar/arm-none-eabi-gcc@8/8.5.0_2/lib/arm-none-eabi-gcc/8/gcc/arm-none-eabi/8.5.0/thumb/v6-m/nofp/libgcc.a(_clzsi2.o)
                0x10000a18                __clzsi2
 *(.text.*)
 .text.clock_configure.part.0.constprop.17
                0x10000a54       0xc4 /var/folders/x9/cy1bx1f960zd_7xhdrxmk_zm0000gn/T//cc8Nwo3z.ltrans0.ltrans.o
 .text.pll_init.constprop.15
                0x10000b18       0x94 /var/folders/x9/cy1bx1f960zd_7xhdrxmk_zm0000gn/T//cc8Nwo3z.ltrans0.ltrans.o
 .text.clocks_init
                0x10000bac       0xdc /var/folders/x9/cy1bx1f960zd_7xhdrxmk_zm0000gn/T//cc8Nwo3z.ltrans0.ltrans.o
 .text.usb_lld_stall_in
                0x10000c88       0x40 /var/folders/x9/cy1bx1f960zd_7xhdrxmk_zm0000gn/T//cc8Nwo3z.ltrans0.ltrans.o
 .text.usb_lld_stall_out
                0x10000cc8       0x40 /var/folders/x9/cy1bx1f960zd_7xhdrxmk_zm0000gn/T//cc8Nwo3z.ltrans0.ltrans.o
 .text.usb_prepare_out_ep
                0x10000d08       0x90 /var/folders/x9/cy1bx1f960zd_7xhdrxmk_zm0000gn/T//cc8Nwo3z.ltrans0.ltrans.o
 .text.usb_isochronous_buffer_size
                0x10000d98       0x44 /var/folders/x9/cy1bx1f960zd_7xhdrxmk_zm0000gn/T//cc8Nwo3z.ltrans0.ltrans.o
 .text.usb_lld_init_endpoint
                0x10000ddc      0x13c /var/folders/x9/cy1bx1f960zd_7xhdrxmk_zm0000gn/T//cc8Nwo3z.ltrans0.ltrans.o
 .text.usb_lld_reset.constprop.44
                0x10000f18       0x54 /var/folders/x9/cy1bx1f960zd_7xhdrxmk_zm0000gn/T//cc8Nwo3z.ltrans0.ltrans.o
 .text.hal_lld_peripheral_unreset.lto_priv.98
                0x10000f6c       0x14 /var/folders/x9/cy1bx1f960zd_7xhdrxmk_zm0000gn/T//cc8Nwo3z.ltrans0.ltrans.o
 .text.port_unlock.lto_priv.101
                0x10000f80       0x12 /var/folders/x9/cy1bx1f960zd_7xhdrxmk_zm0000gn/T//cc8Nwo3z.ltrans0.ltrans.o
 .text.port_lock.lto_priv.115
                0x10000f92       0x16 /var/folders/x9/cy1bx1f960zd_7xhdrxmk_zm0000gn/T//cc8Nwo3z.ltrans0.ltrans.o
 .text.usbStartReceiveI
                0x10000fa8       0x42 /var/folders/x9/cy1bx1f960zd_7xhdrxmk_zm0000gn/T//cc8Nwo3z.ltrans0.ltrans.o
 *fill*         0x10000fea        0x2 
 .text.set_address
                0x10000fec       0x30 /var/folders/x9/cy1bx1f960zd_7xhdrxmk_zm0000gn/T//cc8Nwo3z.ltrans0.ltrans.o
 .text.obqPostFullBufferS
                0x1000101c       0x2a /var/folders/x9/cy1bx1f960zd_7xhdrxmk_zm0000gn/T//cc8Nwo3z.ltrans0.ltrans.o
 .text.obqGetFullBufferI
                0x10001046       0x18 /var/folders/x9/cy1bx1f960zd_7xhdrxmk_zm0000gn/T//cc8Nwo3z.ltrans0.ltrans.o
 .text.ibqReleaseEmptyBufferS
                0x1000105e       0x28 /var/folders/x9/cy1bx1f960zd_7xhdrxmk_zm0000gn/T//cc8Nwo3z.ltrans0.ltrans.o
 *fill*         0x10001086        0x2 
 .text.__port_irq_epilogue.part.2
                0x10001088       0x44 /var/folders/x9/cy1bx1f960zd_7xhdrxmk_zm0000gn/T//cc8Nwo3z.ltrans0.ltrans.o
 .text.__idle_thread
                0x100010cc        0x2 /var/folders/x9/cy1bx1f960zd_7xhdrxmk_zm0000gn/T//cc8Nwo3z.ltrans0.ltrans.o
 .text.__sch_ready_behind
                0x100010ce       0x1c /var/folders/x9/cy1bx1f960zd_7xhdrxmk_zm0000gn/T//cc8Nwo3z.ltrans0.ltrans.o
 .text.__sch_wakeup
                0x100010ea       0x42 /var/folders/x9/cy1bx1f960zd_7xhdrxmk_zm0000gn/T//cc8Nwo3z.ltrans0.ltrans.o
 .text.chSchReadyI
                0x1000112c       0x2c /var/folders/x9/cy1bx1f960zd_7xhdrxmk_zm0000gn/T//cc8Nwo3z.ltrans0.ltrans.o
 .text.chThdDequeueAllI.constprop.8
                0x10001158       0x1e /var/folders/x9/cy1bx1f960zd_7xhdrxmk_zm0000gn/T//cc8Nwo3z.ltrans0.ltrans.o
 .text.chEvtBroadcastFlagsI
                0x10001176       0x4a /var/folders/x9/cy1bx1f960zd_7xhdrxmk_zm0000gn/T//cc8Nwo3z.ltrans0.ltrans.o
 .text.chThdResumeI
                0x100011c0       0x16 /var/folders/x9/cy1bx1f960zd_7xhdrxmk_zm0000gn/T//cc8Nwo3z.ltrans0.ltrans.o
 *fill*         0x100011d6        0x2 
 .text.chVTDoResetI
                0x100011d8       0x30 /var/folders/x9/cy1bx1f960zd_7xhdrxmk_zm0000gn/T//cc8Nwo3z.ltrans0.ltrans.o
 .text.ch_dlist_insert
                0x10001208       0x2a /var/folders/x9/cy1bx1f960zd_7xhdrxmk_zm0000gn/T//cc8Nwo3z.ltrans0.ltrans.o
 *fill*         0x10001232        0x2 
 .text.chVTSetI.constprop.11
                0x10001234       0x44 /var/folders/x9/cy1bx1f960zd_7xhdrxmk_zm0000gn/T//cc8Nwo3z.ltrans0.ltrans.o
 .text.kbd_in_cb
                0x10001278        0x2 /var/folders/x9/cy1bx1f960zd_7xhdrxmk_zm0000gn/T//cc8Nwo3z.ltrans0.ltrans.o
 .text.qmkusbInterruptTransmitted
                0x1000127a        0x2 /var/folders/x9/cy1bx1f960zd_7xhdrxmk_zm0000gn/T//cc8Nwo3z.ltrans0.ltrans.o
 .text.qmkusb_start_receive
                0x1000127c       0x46 /var/folders/x9/cy1bx1f960zd_7xhdrxmk_zm0000gn/T//cc8Nwo3z.ltrans0.ltrans.o
 .text.qmkusbDataReceived
                0x100012c2       0x68 /var/folders/x9/cy1bx1f960zd_7xhdrxmk_zm0000gn/T//cc8Nwo3z.ltrans0.ltrans.o
 .text.ibnotify
                0x1000132a        0xa /var/folders/x9/cy1bx1f960zd_7xhdrxmk_zm0000gn/T//cc8Nwo3z.ltrans0.ltrans.o
 .text.sendchar
                0x10001334       0x30 /var/folders/x9/cy1bx1f960zd_7xhdrxmk_zm0000gn/T//cc8Nwo3z.ltrans0.ltrans.o
 .text.send_programmable_button
                0x10001364        0x2 /var/folders/x9/cy1bx1f960zd_7xhdrxmk_zm0000gn/T//cc8Nwo3z.ltrans0.ltrans.o
 .text.shared_in_cb
                0x10001366        0x2 /var/folders/x9/cy1bx1f960zd_7xhdrxmk_zm0000gn/T//cc8Nwo3z.ltrans0.ltrans.o
 .text.keyboard_leds
                0x10001368        0xc /var/folders/x9/cy1bx1f960zd_7xhdrxmk_zm0000gn/T//cc8Nwo3z.ltrans0.ltrans.o
 .text.usb_request_hook_cb
                0x10001374      0x1ec /var/folders/x9/cy1bx1f960zd_7xhdrxmk_zm0000gn/T//cc8Nwo3z.ltrans0.ltrans.o
 .text.set_led_transfer_cb
                0x10001560       0x2c /var/folders/x9/cy1bx1f960zd_7xhdrxmk_zm0000gn/T//cc8Nwo3z.ltrans0.ltrans.o
 .text.usb_event_queue_enqueue
                0x1000158c       0x30 /var/folders/x9/cy1bx1f960zd_7xhdrxmk_zm0000gn/T//cc8Nwo3z.ltrans0.ltrans.o
 .text.usb_get_descriptor_cb
                0x100015bc       0x8c /var/folders/x9/cy1bx1f960zd_7xhdrxmk_zm0000gn/T//cc8Nwo3z.ltrans0.ltrans.o
 .text.bootloader_jump
                0x10001648       0x1c /var/folders/x9/cy1bx1f960zd_7xhdrxmk_zm0000gn/T//cc8Nwo3z.ltrans0.ltrans.o
 .text.host_consumer_send
                0x10001664       0x24 /var/folders/x9/cy1bx1f960zd_7xhdrxmk_zm0000gn/T//cc8Nwo3z.ltrans0.ltrans.o
 .text.host_system_send
                0x10001688       0x24 /var/folders/x9/cy1bx1f960zd_7xhdrxmk_zm0000gn/T//cc8Nwo3z.ltrans0.ltrans.o
 .text.host_keyboard_leds
                0x100016ac       0x14 /var/folders/x9/cy1bx1f960zd_7xhdrxmk_zm0000gn/T//cc8Nwo3z.ltrans0.ltrans.o
 .text.key_override_matches_active_modifiers.part.0
                0x100016c0       0x36 /var/folders/x9/cy1bx1f960zd_7xhdrxmk_zm0000gn/T//cc8Nwo3z.ltrans0.ltrans.o
 *fill*         0x100016f6        0x2 
 .text.mousekey_apply
                0x100016f8       0x68 /var/folders/x9/cy1bx1f960zd_7xhdrxmk_zm0000gn/T//cc8Nwo3z.ltrans0.ltrans.o
 .text.auto_shift_timeout_apply
                0x10001760       0x14 /var/folders/x9/cy1bx1f960zd_7xhdrxmk_zm0000gn/T//cc8Nwo3z.ltrans0.ltrans.o
 .text.reload_tap_dance
                0x10001774       0x30 /var/folders/x9/cy1bx1f960zd_7xhdrxmk_zm0000gn/T//cc8Nwo3z.ltrans0.ltrans.o
 .text.vial_keycode_firewall
                0x100017a4       0x1c /var/folders/x9/cy1bx1f960zd_7xhdrxmk_zm0000gn/T//cc8Nwo3z.ltrans0.ltrans.o
 .text.backing_store_read_bulk
                0x100017c0       0x20 /var/folders/x9/cy1bx1f960zd_7xhdrxmk_zm0000gn/T//cc8Nwo3z.ltrans0.ltrans.o
 .text.backing_store_erase
                0x100017e0       0x20 /var/folders/x9/cy1bx1f960zd_7xhdrxmk_zm0000gn/T//cc8Nwo3z.ltrans0.ltrans.o
 .text.wear_leveling_lock
                0x10001800       0x1c /var/folders/x9/cy1bx1f960zd_7xhdrxmk_zm0000gn/T//cc8Nwo3z.ltrans0.ltrans.o
 .text.wear_leveling_unlock
                0x1000181c       0x1c /var/folders/x9/cy1bx1f960zd_7xhdrxmk_zm0000gn/T//cc8Nwo3z.ltrans0.ltrans.o
 .text.wear_leveling_write_consolidated
                0x10001838       0xf4 /var/folders/x9/cy1bx1f960zd_7xhdrxmk_zm0000gn/T//cc8Nwo3z.ltrans0.ltrans.o
 .text.wear_leveling_consolidate_if_needed
                0x1000192c       0x34 /var/folders/x9/cy1bx1f960zd_7xhdrxmk_zm0000gn/T//cc8Nwo3z.ltrans0.ltrans.o
 .text.wear_leveling_append_raw
                0x10001960       0x40 /var/folders/x9/cy1bx1f960zd_7xhdrxmk_zm0000gn/T//cc8Nwo3z.ltrans0.ltrans.o
 .text.mousekey_off
                0x100019a0      0x104 /var/folders/x9/cy1bx1f960zd_7xhdrxmk_zm0000gn/T//cc8Nwo3z.ltrans0.ltrans.o
 .text.wheel_unit
                0x10001aa4       0x68 /var/folders/x9/cy1bx1f960zd_7xhdrxmk_zm0000gn/T//cc8Nwo3z.ltrans0.ltrans.o
 .text.move_unit
                0x10001b0c       0x78 /var/folders/x9/cy1bx1f960zd_7xhdrxmk_zm0000gn/T//cc8Nwo3z.ltrans0.ltrans.o
 .text.mousekey_on
                0x10001b84       0xdc /var/folders/x9/cy1bx1f960zd_7xhdrxmk_zm0000gn/T//cc8Nwo3z.ltrans0.ltrans.o
 .text.putchar_wrapper
                0x10001c60       0x10 /var/folders/x9/cy1bx1f960zd_7xhdrxmk_zm0000gn/T//cc8Nwo3z.ltrans0.ltrans.o
 .text.putchar_via_gadget
                0x10001c70       0x24 /var/folders/x9/cy1bx1f960zd_7xhdrxmk_zm0000gn/T//cc8Nwo3z.ltrans0.ltrans.o
 .text.out_rev_
                0x10001c94       0x56 /var/folders/x9/cy1bx1f960zd_7xhdrxmk_zm0000gn/T//cc8Nwo3z.ltrans0.ltrans.o
 *fill*         0x10001cea        0x2 
 .text.print_integer
                0x10001cec      0x174 /var/folders/x9/cy1bx1f960zd_7xhdrxmk_zm0000gn/T//cc8Nwo3z.ltrans0.ltrans.o
 .text.vsnprintf_impl.constprop.95
                0x10001e60      0x38c /var/folders/x9/cy1bx1f960zd_7xhdrxmk_zm0000gn/T//cc8Nwo3z.ltrans0.ltrans.o
 .text.null_sendchar_func
                0x100021ec        0x4 /var/folders/x9/cy1bx1f960zd_7xhdrxmk_zm0000gn/T//cc8Nwo3z.ltrans0.ltrans.o
 .text.mod_config
                0x100021f0       0xa8 /var/folders/x9/cy1bx1f960zd_7xhdrxmk_zm0000gn/T//cc8Nwo3z.ltrans0.ltrans.o
 .text.action_for_keycode
                0x10002298      0x2b4 /var/folders/x9/cy1bx1f960zd_7xhdrxmk_zm0000gn/T//cc8Nwo3z.ltrans0.ltrans.o
 .text.del_mods
                0x1000254c       0x10 /var/folders/x9/cy1bx1f960zd_7xhdrxmk_zm0000gn/T//cc8Nwo3z.ltrans0.ltrans.o
 .text.add_mods
                0x1000255c       0x10 /var/folders/x9/cy1bx1f960zd_7xhdrxmk_zm0000gn/T//cc8Nwo3z.ltrans0.ltrans.o
 .text.del_key  0x1000256c       0x54 /var/folders/x9/cy1bx1f960zd_7xhdrxmk_zm0000gn/T//cc8Nwo3z.ltrans0.ltrans.o
 .text.add_key  0x100025c0       0x64 /var/folders/x9/cy1bx1f960zd_7xhdrxmk_zm0000gn/T//cc8Nwo3z.ltrans0.ltrans.o
 .text.waiting_buffer_typed.isra.2
                0x10002624       0x48 /var/folders/x9/cy1bx1f960zd_7xhdrxmk_zm0000gn/T//cc8Nwo3z.ltrans0.ltrans.o
 .text.debug_waiting_buffer
                0x1000266c       0x20 /var/folders/x9/cy1bx1f960zd_7xhdrxmk_zm0000gn/T//cc8Nwo3z.ltrans0.ltrans.o
 .text.is_tap_action
                0x1000268c       0x4c /var/folders/x9/cy1bx1f960zd_7xhdrxmk_zm0000gn/T//cc8Nwo3z.ltrans0.ltrans.o
 .text.autoshift_press_user.constprop.68
                0x100026d8       0x44 /var/folders/x9/cy1bx1f960zd_7xhdrxmk_zm0000gn/T//cc8Nwo3z.ltrans0.ltrans.o
 .text.usb_lld_start.part.3
                0x1000271c       0x98 /var/folders/x9/cy1bx1f960zd_7xhdrxmk_zm0000gn/T//cc8Nwo3z.ltrans0.ltrans.o
 .text.usbInitEndpointI
                0x100027b4       0x36 /var/folders/x9/cy1bx1f960zd_7xhdrxmk_zm0000gn/T//cc8Nwo3z.ltrans0.ltrans.o
 *fill*         0x100027ea        0x2 
 .text.usb_event_cb
                0x100027ec      0x238 /var/folders/x9/cy1bx1f960zd_7xhdrxmk_zm0000gn/T//cc8Nwo3z.ltrans0.ltrans.o
 .text.clear_keys_from_report
                0x10002a24       0x28 /var/folders/x9/cy1bx1f960zd_7xhdrxmk_zm0000gn/T//cc8Nwo3z.ltrans0.ltrans.o
 .text.wear_leveling_clear_cache
                0x10002a4c       0x20 /var/folders/x9/cy1bx1f960zd_7xhdrxmk_zm0000gn/T//cc8Nwo3z.ltrans0.ltrans.o
 .text.wear_leveling_erase
                0x10002a6c       0x2e /var/folders/x9/cy1bx1f960zd_7xhdrxmk_zm0000gn/T//cc8Nwo3z.ltrans0.ltrans.o
 .text.usb_prepare_in_ep_buffer
                0x10002a9a       0x74 /var/folders/x9/cy1bx1f960zd_7xhdrxmk_zm0000gn/T//cc8Nwo3z.ltrans0.ltrans.o
 *fill*         0x10002b0e        0x2 
 .text.usb_prepare_in_ep
                0x10002b10       0x8c /var/folders/x9/cy1bx1f960zd_7xhdrxmk_zm0000gn/T//cc8Nwo3z.ltrans0.ltrans.o
 .text.usbStartTransmitI
                0x10002b9c       0x28 /var/folders/x9/cy1bx1f960zd_7xhdrxmk_zm0000gn/T//cc8Nwo3z.ltrans0.ltrans.o
 .text._usb_ep0out
                0x10002bc4       0x80 /var/folders/x9/cy1bx1f960zd_7xhdrxmk_zm0000gn/T//cc8Nwo3z.ltrans0.ltrans.o
 .text._usb_ep0in
                0x10002c44       0xb0 /var/folders/x9/cy1bx1f960zd_7xhdrxmk_zm0000gn/T//cc8Nwo3z.ltrans0.ltrans.o
 .text.qmkusbDataTransmitted
                0x10002cf4       0xa2 /var/folders/x9/cy1bx1f960zd_7xhdrxmk_zm0000gn/T//cc8Nwo3z.ltrans0.ltrans.o
 .text.obnotify
                0x10002d96       0x3c /var/folders/x9/cy1bx1f960zd_7xhdrxmk_zm0000gn/T//cc8Nwo3z.ltrans0.ltrans.o
 *fill*         0x10002dd2        0x2 
 .text.keyboard_idle_timer_cb
                0x10002dd4       0x80 /var/folders/x9/cy1bx1f960zd_7xhdrxmk_zm0000gn/T//cc8Nwo3z.ltrans0.ltrans.o
 .text.usb_sof_cb
                0x10002e54       0xb8 /var/folders/x9/cy1bx1f960zd_7xhdrxmk_zm0000gn/T//cc8Nwo3z.ltrans0.ltrans.o
 .text._usb_ep0setup
                0x10002f0c      0x3b8 /var/folders/x9/cy1bx1f960zd_7xhdrxmk_zm0000gn/T//cc8Nwo3z.ltrans0.ltrans.o
 .text.magic_settings_get
                0x100032c4       0x60 /var/folders/x9/cy1bx1f960zd_7xhdrxmk_zm0000gn/T//cc8Nwo3z.ltrans0.ltrans.o
 .text.eeprom_settings_get
                0x10003324       0x1e /var/folders/x9/cy1bx1f960zd_7xhdrxmk_zm0000gn/T//cc8Nwo3z.ltrans0.ltrans.o
 *fill*         0x10003342        0x2 
 .text.wear_leveling_read
                0x10003344       0x24 /var/folders/x9/cy1bx1f960zd_7xhdrxmk_zm0000gn/T//cc8Nwo3z.ltrans0.ltrans.o
 .text.reload_key_override
                0x10003368       0xb8 /var/folders/x9/cy1bx1f960zd_7xhdrxmk_zm0000gn/T//cc8Nwo3z.ltrans0.ltrans.o
 .text.dynamic_keymap_get_tap_dance
                0x10003420       0x20 /var/folders/x9/cy1bx1f960zd_7xhdrxmk_zm0000gn/T//cc8Nwo3z.ltrans0.ltrans.o
 .text.get_tapping_term
                0x10003440       0x2c /var/folders/x9/cy1bx1f960zd_7xhdrxmk_zm0000gn/T//cc8Nwo3z.ltrans0.ltrans.o
 .text.reload_combo
                0x1000346c       0x5c /var/folders/x9/cy1bx1f960zd_7xhdrxmk_zm0000gn/T//cc8Nwo3z.ltrans0.ltrans.o
 .text.eeprom_read_byte
                0x100034c8       0x16 /var/folders/x9/cy1bx1f960zd_7xhdrxmk_zm0000gn/T//cc8Nwo3z.ltrans0.ltrans.o
 *fill*         0x100034de        0x2 
 .text.qmk_settings_init
                0x100034e0       0x38 /var/folders/x9/cy1bx1f960zd_7xhdrxmk_zm0000gn/T//cc8Nwo3z.ltrans0.ltrans.o
 .text.dynamic_keymap_get_keycode.part.0
                0x10003518       0x2c /var/folders/x9/cy1bx1f960zd_7xhdrxmk_zm0000gn/T//cc8Nwo3z.ltrans0.ltrans.o
 .text.via_get_layout_options
                0x10003544       0x18 /var/folders/x9/cy1bx1f960zd_7xhdrxmk_zm0000gn/T//cc8Nwo3z.ltrans0.ltrans.o
 .text.via_eeprom_is_valid
                0x1000355c       0x28 /var/folders/x9/cy1bx1f960zd_7xhdrxmk_zm0000gn/T//cc8Nwo3z.ltrans0.ltrans.o
 .text.eeconfig_read_keymap
                0x10003584       0x18 /var/folders/x9/cy1bx1f960zd_7xhdrxmk_zm0000gn/T//cc8Nwo3z.ltrans0.ltrans.o
 .text.chSchGoSleepS
                0x1000359c       0x2c /var/folders/x9/cy1bx1f960zd_7xhdrxmk_zm0000gn/T//cc8Nwo3z.ltrans0.ltrans.o
 .text.chSchGoSleepTimeoutS
                0x100035c8       0x60 /var/folders/x9/cy1bx1f960zd_7xhdrxmk_zm0000gn/T//cc8Nwo3z.ltrans0.ltrans.o
 .text.chThdEnqueueTimeoutS
                0x10003628       0x34 /var/folders/x9/cy1bx1f960zd_7xhdrxmk_zm0000gn/T//cc8Nwo3z.ltrans0.ltrans.o
 .text.obqGetEmptyBufferTimeoutS
                0x1000365c       0x36 /var/folders/x9/cy1bx1f960zd_7xhdrxmk_zm0000gn/T//cc8Nwo3z.ltrans0.ltrans.o
 .text.obqWriteTimeout
                0x10003692       0x86 /var/folders/x9/cy1bx1f960zd_7xhdrxmk_zm0000gn/T//cc8Nwo3z.ltrans0.ltrans.o
 .text._writet  0x10003718        0xa /var/folders/x9/cy1bx1f960zd_7xhdrxmk_zm0000gn/T//cc8Nwo3z.ltrans0.ltrans.o
 .text._write   0x10003722        0xe /var/folders/x9/cy1bx1f960zd_7xhdrxmk_zm0000gn/T//cc8Nwo3z.ltrans0.ltrans.o
 .text.obqPutTimeout
                0x10003730       0x48 /var/folders/x9/cy1bx1f960zd_7xhdrxmk_zm0000gn/T//cc8Nwo3z.ltrans0.ltrans.o
 .text._putt    0x10003778        0xa /var/folders/x9/cy1bx1f960zd_7xhdrxmk_zm0000gn/T//cc8Nwo3z.ltrans0.ltrans.o
 .text._put     0x10003782        0xe /var/folders/x9/cy1bx1f960zd_7xhdrxmk_zm0000gn/T//cc8Nwo3z.ltrans0.ltrans.o
 .text.ibqGetFullBufferTimeoutS
                0x10003790       0x36 /var/folders/x9/cy1bx1f960zd_7xhdrxmk_zm0000gn/T//cc8Nwo3z.ltrans0.ltrans.o
 .text.ibqReadTimeout
                0x100037c6       0x82 /var/folders/x9/cy1bx1f960zd_7xhdrxmk_zm0000gn/T//cc8Nwo3z.ltrans0.ltrans.o
 .text._readt   0x10003848        0xa /var/folders/x9/cy1bx1f960zd_7xhdrxmk_zm0000gn/T//cc8Nwo3z.ltrans0.ltrans.o
 .text._read    0x10003852        0xe /var/folders/x9/cy1bx1f960zd_7xhdrxmk_zm0000gn/T//cc8Nwo3z.ltrans0.ltrans.o
 .text.ibqGetTimeout
                0x10003860       0x3a /var/folders/x9/cy1bx1f960zd_7xhdrxmk_zm0000gn/T//cc8Nwo3z.ltrans0.ltrans.o
 .text._gett    0x1000389a        0xa /var/folders/x9/cy1bx1f960zd_7xhdrxmk_zm0000gn/T//cc8Nwo3z.ltrans0.ltrans.o
 .text._get     0x100038a4        0xe /var/folders/x9/cy1bx1f960zd_7xhdrxmk_zm0000gn/T//cc8Nwo3z.ltrans0.ltrans.o
 *fill*         0x100038b2        0x2 
 .text.send_extra
                0x100038b4       0x68 /var/folders/x9/cy1bx1f960zd_7xhdrxmk_zm0000gn/T//cc8Nwo3z.ltrans0.ltrans.o
 .text.send_consumer
                0x1000391c        0xc /var/folders/x9/cy1bx1f960zd_7xhdrxmk_zm0000gn/T//cc8Nwo3z.ltrans0.ltrans.o
 .text.send_system
                0x10003928        0xc /var/folders/x9/cy1bx1f960zd_7xhdrxmk_zm0000gn/T//cc8Nwo3z.ltrans0.ltrans.o
 .text.send_mouse
                0x10003934       0x58 /var/folders/x9/cy1bx1f960zd_7xhdrxmk_zm0000gn/T//cc8Nwo3z.ltrans0.ltrans.o
 .text.osalThreadSuspendS
                0x1000398c       0x28 /var/folders/x9/cy1bx1f960zd_7xhdrxmk_zm0000gn/T//cc8Nwo3z.ltrans0.ltrans.o
 .text.send_keyboard
                0x100039b4       0x84 /var/folders/x9/cy1bx1f960zd_7xhdrxmk_zm0000gn/T//cc8Nwo3z.ltrans0.ltrans.o
 .text.wear_leveling_write
                0x10003a38      0x1a0 /var/folders/x9/cy1bx1f960zd_7xhdrxmk_zm0000gn/T//cc8Nwo3z.ltrans0.ltrans.o
 .text.eeprom_update_dword.constprop.78
                0x10003bd8       0x24 /var/folders/x9/cy1bx1f960zd_7xhdrxmk_zm0000gn/T//cc8Nwo3z.ltrans0.ltrans.o
 .text.eeprom_update_word
                0x10003bfc       0x2a /var/folders/x9/cy1bx1f960zd_7xhdrxmk_zm0000gn/T//cc8Nwo3z.ltrans0.ltrans.o
 .text.eeprom_update_byte
                0x10003c26       0x1e /var/folders/x9/cy1bx1f960zd_7xhdrxmk_zm0000gn/T//cc8Nwo3z.ltrans0.ltrans.o
 .text.persist_unicode_input_mode
                0x10003c44       0x14 /var/folders/x9/cy1bx1f960zd_7xhdrxmk_zm0000gn/T//cc8Nwo3z.ltrans0.ltrans.o
 .text.eeprom_settings_save
                0x10003c58       0x2c /var/folders/x9/cy1bx1f960zd_7xhdrxmk_zm0000gn/T//cc8Nwo3z.ltrans0.ltrans.o
 .text.eeprom_settings_set
                0x10003c84       0x1e /var/folders/x9/cy1bx1f960zd_7xhdrxmk_zm0000gn/T//cc8Nwo3z.ltrans0.ltrans.o
 *fill*         0x10003ca2        0x2 
 .text.dynamic_keymap_macro_reset
                0x10003ca4       0x1c /var/folders/x9/cy1bx1f960zd_7xhdrxmk_zm0000gn/T//cc8Nwo3z.ltrans0.ltrans.o
 .text.dynamic_keymap_set_keycode
                0x10003cc0       0x36 /var/folders/x9/cy1bx1f960zd_7xhdrxmk_zm0000gn/T//cc8Nwo3z.ltrans0.ltrans.o
 .text.via_set_layout_options
                0x10003cf6       0x18 /var/folders/x9/cy1bx1f960zd_7xhdrxmk_zm0000gn/T//cc8Nwo3z.ltrans0.ltrans.o
 .text.via_eeprom_set_valid
                0x10003d0e       0x2e /var/folders/x9/cy1bx1f960zd_7xhdrxmk_zm0000gn/T//cc8Nwo3z.ltrans0.ltrans.o
 .text.eeconfig_update_keymap
                0x10003d3c       0x16 /var/folders/x9/cy1bx1f960zd_7xhdrxmk_zm0000gn/T//cc8Nwo3z.ltrans0.ltrans.o
 .text._fini    0x10003d52        0x2 /var/folders/x9/cy1bx1f960zd_7xhdrxmk_zm0000gn/T//cc8Nwo3z.ltrans0.ltrans.o
                0x10003d52                _fini
 .text.shutdown_user
                0x10003d54        0x2 /var/folders/x9/cy1bx1f960zd_7xhdrxmk_zm0000gn/T//cc8Nwo3z.ltrans0.ltrans.o
                0x10003d54                __cpu_init
                0x10003d54                shutdown_user
 *fill*         0x10003d56        0x2 
 .text.Vector54
                0x10003d58      0x2ac /var/folders/x9/cy1bx1f960zd_7xhdrxmk_zm0000gn/T//cc8Nwo3z.ltrans0.ltrans.o
                0x10003d58                Vector54
 .text.SysTick_Handler
                0x10004004       0x70 /var/folders/x9/cy1bx1f960zd_7xhdrxmk_zm0000gn/T//cc8Nwo3z.ltrans0.ltrans.o
                0x10004004                SysTick_Handler
 .text.__port_spinlock_release
                0x10004074       0x10 /var/folders/x9/cy1bx1f960zd_7xhdrxmk_zm0000gn/T//cc8Nwo3z.ltrans0.ltrans.o
                0x10004074                __port_spinlock_release
 .text.Vector80
                0x10004084       0x40 /var/folders/x9/cy1bx1f960zd_7xhdrxmk_zm0000gn/T//cc8Nwo3z.ltrans0.ltrans.o
                0x10004084                Vector80
 .text.Vector7C
                0x100040c4       0x24 /var/folders/x9/cy1bx1f960zd_7xhdrxmk_zm0000gn/T//cc8Nwo3z.ltrans0.ltrans.o
                0x100040c4                Vector7C
 .text.NMI_Handler
                0x100040e8       0x12 /var/folders/x9/cy1bx1f960zd_7xhdrxmk_zm0000gn/T//cc8Nwo3z.ltrans0.ltrans.o
                0x100040e8                NMI_Handler
 .text.chThdSleep
                0x100040fa       0x16 /var/folders/x9/cy1bx1f960zd_7xhdrxmk_zm0000gn/T//cc8Nwo3z.ltrans0.ltrans.o
                0x100040fa                chThdSleep
 .text.chThdExit
                0x10004110       0x28 /var/folders/x9/cy1bx1f960zd_7xhdrxmk_zm0000gn/T//cc8Nwo3z.ltrans0.ltrans.o
                0x10004110                chThdExit
 .text.__sch_reschedule_ahead
                0x10004138       0x44 /var/folders/x9/cy1bx1f960zd_7xhdrxmk_zm0000gn/T//cc8Nwo3z.ltrans0.ltrans.o
                0x10004138                chSchDoPreemption
 .text.__init_ram_areas
                0x1000417c       0x30 /var/folders/x9/cy1bx1f960zd_7xhdrxmk_zm0000gn/T//cc8Nwo3z.ltrans0.ltrans.o
                0x1000417c                __init_ram_areas
 .text.__default_exit
                0x100041ac        0x2 /var/folders/x9/cy1bx1f960zd_7xhdrxmk_zm0000gn/T//cc8Nwo3z.ltrans0.ltrans.o
                0x100041ac                __default_exit
 .text.__early_init
                0x100041ae        0x2 /var/folders/x9/cy1bx1f960zd_7xhdrxmk_zm0000gn/T//cc8Nwo3z.ltrans0.ltrans.o
                0x100041ae                __early_init
 .text.__late_init
                0x100041b0       0x54 /var/folders/x9/cy1bx1f960zd_7xhdrxmk_zm0000gn/T//cc8Nwo3z.ltrans0.ltrans.o
                0x100041b0                __late_init
 .text.timer_read32
                0x10004204       0x84 /var/folders/x9/cy1bx1f960zd_7xhdrxmk_zm0000gn/T//cc8Nwo3z.ltrans0.ltrans.o
                0x10004204                timer_read32
 .text.schedule_deferred_register
                0x10004288       0x40 /var/folders/x9/cy1bx1f960zd_7xhdrxmk_zm0000gn/T//cc8Nwo3z.ltrans0.ltrans.o
 .text.vial_keycode_up
                0x100042c8       0x40 /var/folders/x9/cy1bx1f960zd_7xhdrxmk_zm0000gn/T//cc8Nwo3z.ltrans0.ltrans.o
 .text.on_dance_reset
                0x10004308       0x9c /var/folders/x9/cy1bx1f960zd_7xhdrxmk_zm0000gn/T//cc8Nwo3z.ltrans0.ltrans.o
 .text.vial_keycode_down
                0x100043a4       0x3c /var/folders/x9/cy1bx1f960zd_7xhdrxmk_zm0000gn/T//cc8Nwo3z.ltrans0.ltrans.o
 .text.vial_keycode_tap
                0x100043e0       0x48 /var/folders/x9/cy1bx1f960zd_7xhdrxmk_zm0000gn/T//cc8Nwo3z.ltrans0.ltrans.o
 .text.on_dance_finished
                0x10004428       0x9c /var/folders/x9/cy1bx1f960zd_7xhdrxmk_zm0000gn/T//cc8Nwo3z.ltrans0.ltrans.o
 .text.on_dance
                0x100044c4       0x3c /var/folders/x9/cy1bx1f960zd_7xhdrxmk_zm0000gn/T//cc8Nwo3z.ltrans0.ltrans.o
 .text.matrix_scan
                0x10004500      0x2f0 /var/folders/x9/cy1bx1f960zd_7xhdrxmk_zm0000gn/T//cc8Nwo3z.ltrans0.ltrans.o
 .text.set_oneshot_mods
                0x100047f0       0x2c /var/folders/x9/cy1bx1f960zd_7xhdrxmk_zm0000gn/T//cc8Nwo3z.ltrans0.ltrans.o
 .text.drop_combo_from_buffer
                0x1000481c       0x4c /var/folders/x9/cy1bx1f960zd_7xhdrxmk_zm0000gn/T//cc8Nwo3z.ltrans0.ltrans.o
                0x1000481c                drop_combo_from_buffer
 .text.clear_combos
                0x10004868       0x28 /var/folders/x9/cy1bx1f960zd_7xhdrxmk_zm0000gn/T//cc8Nwo3z.ltrans0.ltrans.o
                0x10004868                clear_combos
 .text.keymap_key_to_keycode
                0x10004890       0x44 /var/folders/x9/cy1bx1f960zd_7xhdrxmk_zm0000gn/T//cc8Nwo3z.ltrans0.ltrans.o
                0x10004890                keymap_key_to_keycode
 .text.vprintf  0x100048d4       0x28 /var/folders/x9/cy1bx1f960zd_7xhdrxmk_zm0000gn/T//cc8Nwo3z.ltrans0.ltrans.o
                0x100048d4                vprintf
 .text.printf   0x100048fc       0x16 /var/folders/x9/cy1bx1f960zd_7xhdrxmk_zm0000gn/T//cc8Nwo3z.ltrans0.ltrans.o
 *fill*         0x10004912        0x2 
 .text.mousekey_send
                0x10004914       0xf8 /var/folders/x9/cy1bx1f960zd_7xhdrxmk_zm0000gn/T//cc8Nwo3z.ltrans0.ltrans.o
 .text.clear_oneshot_mods
                0x10004a0c       0x1c /var/folders/x9/cy1bx1f960zd_7xhdrxmk_zm0000gn/T//cc8Nwo3z.ltrans0.ltrans.o
                0x10004a0c                clear_oneshot_mods
 .text.del_weak_mods
                0x10004a28       0x10 /var/folders/x9/cy1bx1f960zd_7xhdrxmk_zm0000gn/T//cc8Nwo3z.ltrans0.ltrans.o
                0x10004a28                del_weak_mods
 .text.has_oneshot_mods_timed_out
                0x10004a38       0x2c /var/folders/x9/cy1bx1f960zd_7xhdrxmk_zm0000gn/T//cc8Nwo3z.ltrans0.ltrans.o
                0x10004a38                has_oneshot_mods_timed_out
 .text.send_keyboard_report
                0x10004a64       0xe8 /var/folders/x9/cy1bx1f960zd_7xhdrxmk_zm0000gn/T//cc8Nwo3z.ltrans0.ltrans.o
                0x10004a64                send_keyboard_report
 .text.process_tap_dance_action_on_reset
                0x10004b4c       0x2a /var/folders/x9/cy1bx1f960zd_7xhdrxmk_zm0000gn/T//cc8Nwo3z.ltrans0.ltrans.o
 *fill*         0x10004b76        0x2 
 .text.process_tap_dance_action_on_dance_finished
                0x10004b78       0x4c /var/folders/x9/cy1bx1f960zd_7xhdrxmk_zm0000gn/T//cc8Nwo3z.ltrans0.ltrans.o
 .text.autoshift_flush_shift
                0x10004bc4       0x40 /var/folders/x9/cy1bx1f960zd_7xhdrxmk_zm0000gn/T//cc8Nwo3z.ltrans0.ltrans.o
 .text.autoshift_end
                0x10004c04      0x174 /var/folders/x9/cy1bx1f960zd_7xhdrxmk_zm0000gn/T//cc8Nwo3z.ltrans0.ltrans.o
 .text.unregister_code.part.2
                0x10004d78       0x78 /var/folders/x9/cy1bx1f960zd_7xhdrxmk_zm0000gn/T//cc8Nwo3z.ltrans0.ltrans.o
 .text.unregister_code
                0x10004df0       0x48 /var/folders/x9/cy1bx1f960zd_7xhdrxmk_zm0000gn/T//cc8Nwo3z.ltrans0.ltrans.o
                0x10004df0                unregister_code
 .text.clear_active_override
                0x10004e38       0xb4 /var/folders/x9/cy1bx1f960zd_7xhdrxmk_zm0000gn/T//cc8Nwo3z.ltrans0.ltrans.o
 .text.register_code.part.1
                0x10004eec       0xe8 /var/folders/x9/cy1bx1f960zd_7xhdrxmk_zm0000gn/T//cc8Nwo3z.ltrans0.ltrans.o
 .text.register_code
                0x10004fd4       0x58 /var/folders/x9/cy1bx1f960zd_7xhdrxmk_zm0000gn/T//cc8Nwo3z.ltrans0.ltrans.o
                0x10004fd4                register_code
 .text.tap_code
                0x1000502c       0x34 /var/folders/x9/cy1bx1f960zd_7xhdrxmk_zm0000gn/T//cc8Nwo3z.ltrans0.ltrans.o
 .text.send_char
                0x10005060       0x70 /var/folders/x9/cy1bx1f960zd_7xhdrxmk_zm0000gn/T//cc8Nwo3z.ltrans0.ltrans.o
 .text.send_string_with_delay.constprop.64
                0x100050d0       0x78 /var/folders/x9/cy1bx1f960zd_7xhdrxmk_zm0000gn/T//cc8Nwo3z.ltrans0.ltrans.o
 .text.clear_keyboard_but_mods_and_keys
                0x10005148       0x48 /var/folders/x9/cy1bx1f960zd_7xhdrxmk_zm0000gn/T//cc8Nwo3z.ltrans0.ltrans.o
 .text.update_tri_layer.constprop.65
                0x10005190       0x24 /var/folders/x9/cy1bx1f960zd_7xhdrxmk_zm0000gn/T//cc8Nwo3z.ltrans0.ltrans.o
 .text.layer_off
                0x100051b4       0x18 /var/folders/x9/cy1bx1f960zd_7xhdrxmk_zm0000gn/T//cc8Nwo3z.ltrans0.ltrans.o
 .text.clear_oneshot_layer_state
                0x100051cc       0x40 /var/folders/x9/cy1bx1f960zd_7xhdrxmk_zm0000gn/T//cc8Nwo3z.ltrans0.ltrans.o
                0x100051cc                clear_oneshot_layer_state
 .text.oneshot_set
                0x1000520c       0x30 /var/folders/x9/cy1bx1f960zd_7xhdrxmk_zm0000gn/T//cc8Nwo3z.ltrans0.ltrans.o
 .text.layer_on
                0x1000523c       0x18 /var/folders/x9/cy1bx1f960zd_7xhdrxmk_zm0000gn/T//cc8Nwo3z.ltrans0.ltrans.o
 .text.set_oneshot_layer
                0x10005254       0x34 /var/folders/x9/cy1bx1f960zd_7xhdrxmk_zm0000gn/T//cc8Nwo3z.ltrans0.ltrans.o
 .text.layer_switch_get_layer
                0x10005288       0x50 /var/folders/x9/cy1bx1f960zd_7xhdrxmk_zm0000gn/T//cc8Nwo3z.ltrans0.ltrans.o
                0x10005288                layer_switch_get_layer
 .text.layer_switch_get_action
                0x100052d8       0x20 /var/folders/x9/cy1bx1f960zd_7xhdrxmk_zm0000gn/T//cc8Nwo3z.ltrans0.ltrans.o
 .text.is_tap_record
                0x100052f8       0x38 /var/folders/x9/cy1bx1f960zd_7xhdrxmk_zm0000gn/T//cc8Nwo3z.ltrans0.ltrans.o
 .text.read_source_layers_cache
                0x10005330       0x48 /var/folders/x9/cy1bx1f960zd_7xhdrxmk_zm0000gn/T//cc8Nwo3z.ltrans0.ltrans.o
                0x10005330                read_source_layers_cache
 .text.update_source_layers_cache
                0x10005378       0x54 /var/folders/x9/cy1bx1f960zd_7xhdrxmk_zm0000gn/T//cc8Nwo3z.ltrans0.ltrans.o
                0x10005378                update_source_layers_cache
 .text.clear_keyboard
                0x100053cc       0x1c /var/folders/x9/cy1bx1f960zd_7xhdrxmk_zm0000gn/T//cc8Nwo3z.ltrans0.ltrans.o
                0x100053cc                clear_keyboard
 .text.qmk_settings_reset
                0x100053e8       0x68 /var/folders/x9/cy1bx1f960zd_7xhdrxmk_zm0000gn/T//cc8Nwo3z.ltrans0.ltrans.o
 .text.dynamic_keymap_reset
                0x10005450      0x130 /var/folders/x9/cy1bx1f960zd_7xhdrxmk_zm0000gn/T//cc8Nwo3z.ltrans0.ltrans.o
 .text.eeconfig_init_via
                0x10005580       0x1e /var/folders/x9/cy1bx1f960zd_7xhdrxmk_zm0000gn/T//cc8Nwo3z.ltrans0.ltrans.o
 *fill*         0x1000559e        0x2 
 .text.eeconfig_init_quantum
                0x100055a0       0x9c /var/folders/x9/cy1bx1f960zd_7xhdrxmk_zm0000gn/T//cc8Nwo3z.ltrans0.ltrans.o
 .text.magic_settings_set
                0x1000563c       0xa8 /var/folders/x9/cy1bx1f960zd_7xhdrxmk_zm0000gn/T//cc8Nwo3z.ltrans0.ltrans.o
 .text.unregister_mods
                0x100056e4       0x10 /var/folders/x9/cy1bx1f960zd_7xhdrxmk_zm0000gn/T//cc8Nwo3z.ltrans0.ltrans.o
                0x100056e4                unregister_mods
 .text.register_mods
                0x100056f4       0x10 /var/folders/x9/cy1bx1f960zd_7xhdrxmk_zm0000gn/T//cc8Nwo3z.ltrans0.ltrans.o
                0x100056f4                register_mods
 .text.perform_space_cadet
                0x10005704       0xb8 /var/folders/x9/cy1bx1f960zd_7xhdrxmk_zm0000gn/T//cc8Nwo3z.ltrans0.ltrans.o
 .text.process_record
                0x100057bc     0x16bc /var/folders/x9/cy1bx1f960zd_7xhdrxmk_zm0000gn/T//cc8Nwo3z.ltrans0.ltrans.o
 .text.waiting_buffer_scan_tap
                0x10006e78       0xa4 /var/folders/x9/cy1bx1f960zd_7xhdrxmk_zm0000gn/T//cc8Nwo3z.ltrans0.ltrans.o
 .text.process_tapping
                0x10006f1c      0x33c /var/folders/x9/cy1bx1f960zd_7xhdrxmk_zm0000gn/T//cc8Nwo3z.ltrans0.ltrans.o
 .text.action_tapping_process
                0x10007258       0xb0 /var/folders/x9/cy1bx1f960zd_7xhdrxmk_zm0000gn/T//cc8Nwo3z.ltrans0.ltrans.o
                0x10007258                action_tapping_process
 .text.dump_key_buffer.lto_priv.143
                0x10007308       0x8c /var/folders/x9/cy1bx1f960zd_7xhdrxmk_zm0000gn/T//cc8Nwo3z.ltrans0.ltrans.o
                0x10007308                dump_key_buffer.lto_priv.143
 .text.combo_disable
                0x10007394       0x30 /var/folders/x9/cy1bx1f960zd_7xhdrxmk_zm0000gn/T//cc8Nwo3z.ltrans0.ltrans.o
                0x10007394                combo_disable
 .text.apply_combos.lto_priv.144
                0x100073c4       0xec /var/folders/x9/cy1bx1f960zd_7xhdrxmk_zm0000gn/T//cc8Nwo3z.ltrans0.ltrans.o
                0x100073c4                apply_combos.lto_priv.144
 .text.startup.main
                0x100074b0     0x14bc /var/folders/x9/cy1bx1f960zd_7xhdrxmk_zm0000gn/T//cc8Nwo3z.ltrans0.ltrans.o
                0x100074b0                main
 .text.bitrev   0x1000896c       0x26 /var/folders/x9/cy1bx1f960zd_7xhdrxmk_zm0000gn/T//cc8Nwo3z.ltrans1.ltrans.o
                0x1000896c                bitrev
 .text.get_event_keycode
                0x10008992       0x32 /var/folders/x9/cy1bx1f960zd_7xhdrxmk_zm0000gn/T//cc8Nwo3z.ltrans1.ltrans.o
                0x10008992                get_event_keycode
 .text.get_record_keycode
                0x100089c4       0x1c /var/folders/x9/cy1bx1f960zd_7xhdrxmk_zm0000gn/T//cc8Nwo3z.ltrans1.ltrans.o
                0x100089c4                get_record_keycode
 .text.action_exec
                0x100089e0      0x3ac /var/folders/x9/cy1bx1f960zd_7xhdrxmk_zm0000gn/T//cc8Nwo3z.ltrans1.ltrans.o
                0x100089e0                action_exec
 .text.soft_reset_keyboard
                0x10008d8c       0x2c /var/folders/x9/cy1bx1f960zd_7xhdrxmk_zm0000gn/T//cc8Nwo3z.ltrans1.ltrans.o
                0x10008d8c                soft_reset_keyboard
 .text.extract_mod_bits
                0x10008db8       0x64 /var/folders/x9/cy1bx1f960zd_7xhdrxmk_zm0000gn/T//cc8Nwo3z.ltrans1.ltrans.o
                0x10008db8                extract_mod_bits
 .text.unregister_code16
                0x10008e1c       0x30 /var/folders/x9/cy1bx1f960zd_7xhdrxmk_zm0000gn/T//cc8Nwo3z.ltrans1.ltrans.o
                0x10008e1c                unregister_code16
 .text.register_code16
                0x10008e4c       0x38 /var/folders/x9/cy1bx1f960zd_7xhdrxmk_zm0000gn/T//cc8Nwo3z.ltrans1.ltrans.o
                0x10008e4c                register_code16
 .text.tap_code16
                0x10008e84       0x34 /var/folders/x9/cy1bx1f960zd_7xhdrxmk_zm0000gn/T//cc8Nwo3z.ltrans1.ltrans.o
                0x10008e84                tap_code16
 .text.tap_code16.__stub
                0x10008eb8       0x20 linker stubs
 *(.glue_7t)
 .glue_7t       0x10008ed8        0x0 linker stubs
 *(.glue_7)
 .glue_7        0x10008ed8        0x0 linker stubs
 *(.gcc*)
                0x10008ed8                        __text_end__ = .

.vfp11_veneer   0x10008ed8        0x0
 .vfp11_veneer  0x10008ed8        0x0 linker stubs

.v4_bx          0x10008ed8        0x0
 .v4_bx         0x10008ed8        0x0 linker stubs

.iplt           0x10008ed8        0x0
 .iplt          0x10008ed8        0x0 .build/obj_converter_cumulus_ta15_vial/./lib/chibios/os/common/startup/ARMCMx/compilers/GCC/crt0_v6m.o

.rodata         0x10008ed8      0xcc4
                0x10008ed8                        __rodata_base__ = .
 *(.rodata)
 .rodata        0x10008ed8        0x2 /var/folders/x9/cy1bx1f960zd_7xhdrxmk_zm0000gn/T//cc8Nwo3z.ltrans0.ltrans.o
 *fill*         0x10008eda        0x2 
 .rodata        0x10008edc      0x101 /usr/local/Cellar/arm-none-eabi-gcc@8/8.5.0_2/lib/arm-none-eabi-gcc/8/gcc/arm-none-eabi/8.5.0/../../../../../../arm-none-eabi/lib/thumb/v6-m/nofp/libg_nano.a(lib_a-ctype_.o)
                0x10008edc                _ctype_
 *(.rodata.*)
 *fill*         0x10008fdd        0x3 
 .rodata.CSWTCH.0
                0x10008fe0       0x10 /var/folders/x9/cy1bx1f960zd_7xhdrxmk_zm0000gn/T//cc8Nwo3z.ltrans0.ltrans.o
 .rodata.CSWTCH.1
                0x10008ff0        0x4 /var/folders/x9/cy1bx1f960zd_7xhdrxmk_zm0000gn/T//cc8Nwo3z.ltrans0.ltrans.o
 .rodata.CSWTCH.15
                0x10008ff4        0x3 /var/folders/x9/cy1bx1f960zd_7xhdrxmk_zm0000gn/T//cc8Nwo3z.ltrans0.ltrans.o
 *fill*         0x10008ff7        0x1 
 .rodata.CSWTCH.16
                0x10008ff8       0x2e /var/folders/x9/cy1bx1f960zd_7xhdrxmk_zm0000gn/T//cc8Nwo3z.ltrans0.ltrans.o
 *fill*         0x10009026        0x2 
 .rodata.CSWTCH.2
                0x10009028       0x10 /var/folders/x9/cy1bx1f960zd_7xhdrxmk_zm0000gn/T//cc8Nwo3z.ltrans0.ltrans.o
 .rodata.CSWTCH.3
                0x10009038       0x10 /var/folders/x9/cy1bx1f960zd_7xhdrxmk_zm0000gn/T//cc8Nwo3z.ltrans0.ltrans.o
 .rodata.CSWTCH.4
                0x10009048        0x4 /var/folders/x9/cy1bx1f960zd_7xhdrxmk_zm0000gn/T//cc8Nwo3z.ltrans0.ltrans.o
 .rodata.ConfigurationDescriptor
                0x1000904c       0x7b /var/folders/x9/cy1bx1f960zd_7xhdrxmk_zm0000gn/T//cc8Nwo3z.ltrans0.ltrans.o
 .rodata.ConsoleReport
                0x100090c7       0x22 /var/folders/x9/cy1bx1f960zd_7xhdrxmk_zm0000gn/T//cc8Nwo3z.ltrans0.ltrans.o
 .rodata.DeviceDescriptor
                0x100090e9       0x12 /var/folders/x9/cy1bx1f960zd_7xhdrxmk_zm0000gn/T//cc8Nwo3z.ltrans0.ltrans.o
 .rodata.KeyboardReport
                0x100090fb       0x40 /var/folders/x9/cy1bx1f960zd_7xhdrxmk_zm0000gn/T//cc8Nwo3z.ltrans0.ltrans.o
 .rodata.LanguageString
                0x1000913b        0x4 /var/folders/x9/cy1bx1f960zd_7xhdrxmk_zm0000gn/T//cc8Nwo3z.ltrans0.ltrans.o
 .rodata.ManufacturerString
                0x1000913f       0x1a /var/folders/x9/cy1bx1f960zd_7xhdrxmk_zm0000gn/T//cc8Nwo3z.ltrans0.ltrans.o
 .rodata.ProductString
                0x10009159       0x1e /var/folders/x9/cy1bx1f960zd_7xhdrxmk_zm0000gn/T//cc8Nwo3z.ltrans0.ltrans.o
 .rodata.RawReport
                0x10009177       0x22 /var/folders/x9/cy1bx1f960zd_7xhdrxmk_zm0000gn/T//cc8Nwo3z.ltrans0.ltrans.o
 .rodata.SerialNumberString
                0x10009199       0x1e /var/folders/x9/cy1bx1f960zd_7xhdrxmk_zm0000gn/T//cc8Nwo3z.ltrans0.ltrans.o
 .rodata.SharedReport
                0x100091b7       0xbc /var/folders/x9/cy1bx1f960zd_7xhdrxmk_zm0000gn/T//cc8Nwo3z.ltrans0.ltrans.o
 .rodata.Vector80.str1.1
                0x10009273       0xf0 /var/folders/x9/cy1bx1f960zd_7xhdrxmk_zm0000gn/T//cc8Nwo3z.ltrans0.ltrans.o
                                  0xd (size before relaxing)
 .rodata.active_status
                0x10009363        0x2 /var/folders/x9/cy1bx1f960zd_7xhdrxmk_zm0000gn/T//cc8Nwo3z.ltrans0.ltrans.o
 .rodata.ascii_to_altgr_lut
                0x10009365       0x10 /var/folders/x9/cy1bx1f960zd_7xhdrxmk_zm0000gn/T//cc8Nwo3z.ltrans0.ltrans.o
 .rodata.ascii_to_keycode_lut
                0x10009375       0x80 /var/folders/x9/cy1bx1f960zd_7xhdrxmk_zm0000gn/T//cc8Nwo3z.ltrans0.ltrans.o
 .rodata.ascii_to_shift_lut
                0x100093f5       0x10 /var/folders/x9/cy1bx1f960zd_7xhdrxmk_zm0000gn/T//cc8Nwo3z.ltrans0.ltrans.o
 *fill*         0x10009405        0x3 
 .rodata.ch_core0_cfg
                0x10009408        0xc /var/folders/x9/cy1bx1f960zd_7xhdrxmk_zm0000gn/T//cc8Nwo3z.ltrans0.ltrans.o
 .rodata.col_pins
                0x10009414       0x44 /var/folders/x9/cy1bx1f960zd_7xhdrxmk_zm0000gn/T//cc8Nwo3z.ltrans0.ltrans.o
 .rodata.ep0config
                0x10009458       0x1c /var/folders/x9/cy1bx1f960zd_7xhdrxmk_zm0000gn/T//cc8Nwo3z.ltrans0.ltrans.o
 .rodata.halted_status
                0x10009474        0x2 /var/folders/x9/cy1bx1f960zd_7xhdrxmk_zm0000gn/T//cc8Nwo3z.ltrans0.ltrans.o
 *fill*         0x10009476        0x2 
 .rodata.kbd_ep_config
                0x10009478       0x1c /var/folders/x9/cy1bx1f960zd_7xhdrxmk_zm0000gn/T//cc8Nwo3z.ltrans0.ltrans.o
 .rodata.keyboard_definition
                0x10009494      0x204 /var/folders/x9/cy1bx1f960zd_7xhdrxmk_zm0000gn/T//cc8Nwo3z.ltrans0.ltrans.o
 .rodata.keymaps
                0x10009698      0x264 /var/folders/x9/cy1bx1f960zd_7xhdrxmk_zm0000gn/T//cc8Nwo3z.ltrans0.ltrans.o
 .rodata.main.str1.1
                0x100098fc       0x48 /var/folders/x9/cy1bx1f960zd_7xhdrxmk_zm0000gn/T//cc8Nwo3z.ltrans0.ltrans.o
 .rodata.mousekey_send.str1.1
                0x100098fc       0x3a /var/folders/x9/cy1bx1f960zd_7xhdrxmk_zm0000gn/T//cc8Nwo3z.ltrans0.ltrans.o
 .rodata.process_record.str1.1
                0x100098fc       0x55 /var/folders/x9/cy1bx1f960zd_7xhdrxmk_zm0000gn/T//cc8Nwo3z.ltrans0.ltrans.o
 .rodata.protos
                0x100098fc      0x1a4 /var/folders/x9/cy1bx1f960zd_7xhdrxmk_zm0000gn/T//cc8Nwo3z.ltrans0.ltrans.o
 .rodata.ram_areas
                0x10009aa0       0x80 /var/folders/x9/cy1bx1f960zd_7xhdrxmk_zm0000gn/T//cc8Nwo3z.ltrans0.ltrans.o
 .rodata.row_pins
                0x10009b20       0x24 /var/folders/x9/cy1bx1f960zd_7xhdrxmk_zm0000gn/T//cc8Nwo3z.ltrans0.ltrans.o
 .rodata.shared_ep_config
                0x10009b44       0x1c /var/folders/x9/cy1bx1f960zd_7xhdrxmk_zm0000gn/T//cc8Nwo3z.ltrans0.ltrans.o
 .rodata.str1.1
                0x10009b60        0x3 /var/folders/x9/cy1bx1f960zd_7xhdrxmk_zm0000gn/T//cc8Nwo3z.ltrans0.ltrans.o
 .rodata.usbcfg
                0x10009b60       0x10 /var/folders/x9/cy1bx1f960zd_7xhdrxmk_zm0000gn/T//cc8Nwo3z.ltrans0.ltrans.o
 .rodata.vmt    0x10009b70       0x28 /var/folders/x9/cy1bx1f960zd_7xhdrxmk_zm0000gn/T//cc8Nwo3z.ltrans0.ltrans.o
 .rodata.vsnprintf_impl.constprop.95.str1.1
                0x10009b98        0xd /var/folders/x9/cy1bx1f960zd_7xhdrxmk_zm0000gn/T//cc8Nwo3z.ltrans0.ltrans.o
 .rodata.zero_status
                0x10009b98        0x2 /var/folders/x9/cy1bx1f960zd_7xhdrxmk_zm0000gn/T//cc8Nwo3z.ltrans0.ltrans.o
                0x10009ba8                        . = ALIGN (0x4)
 *fill*         0x10009b9a        0x2 
                0x10009b9c                        __rodata_end__ = .

.ARM.extab
 *(.ARM.extab* .gnu.linkonce.armextab.*)

.ARM.exidx      0x10009b9c        0x8
                0x10009b9c                        __exidx_base__ = .
                0x10009b9c                        __exidx_start = .
 *(.ARM.exidx* .gnu.linkonce.armexidx.*)
 .ARM.exidx     0x10009b9c        0x8 /usr/local/Cellar/arm-none-eabi-gcc@8/8.5.0_2/lib/arm-none-eabi-gcc/8/gcc/arm-none-eabi/8.5.0/thumb/v6-m/nofp/libgcc.a(_udivmoddi4.o)
                0x10009ba4                        __exidx_end__ = .
                0x10009ba4                        __exidx_end = .

.rel.dyn        0x10009ba4        0x0
 .rel.iplt      0x10009ba4        0x0 .build/obj_converter_cumulus_ta15_vial/./lib/chibios/os/common/startup/ARMCMx/compilers/GCC/crt0_v6m.o

.eh_frame_hdr
 *(.eh_frame_hdr)

.eh_frame
 *(.eh_frame)

.data           0x20000000      0x55c load address 0x10009ba4
                [!provide]                        PROVIDE (_textdata = LOADADDR (.data))
                [!provide]                        PROVIDE (_data = .)
                0x10009ba4                        __textdata_base__ = LOADADDR (.data)
                0x20000000                        __data_base__ = .
 *(vtable)
 *(.time_critical*)
 .time_critical.flash_enable_xip_via_boot2
                0x20000000       0x20 /var/folders/x9/cy1bx1f960zd_7xhdrxmk_zm0000gn/T//cc8Nwo3z.ltrans0.ltrans.o
 .time_critical.flash_init_boot2_copyout
                0x20000020       0x30 /var/folders/x9/cy1bx1f960zd_7xhdrxmk_zm0000gn/T//cc8Nwo3z.ltrans0.ltrans.o
 .time_critical.flash_range_erase
                0x20000050       0x60 /var/folders/x9/cy1bx1f960zd_7xhdrxmk_zm0000gn/T//cc8Nwo3z.ltrans0.ltrans.o
 .time_critical.flash_was_aborted
                0x200000b0       0x10 /var/folders/x9/cy1bx1f960zd_7xhdrxmk_zm0000gn/T//cc8Nwo3z.ltrans0.ltrans.o
 .time_critical.flash_cs_force
                0x200000c0       0x24 /var/folders/x9/cy1bx1f960zd_7xhdrxmk_zm0000gn/T//cc8Nwo3z.ltrans0.ltrans.o
 .time_critical.flash_put_cmd_addr
                0x200000e4       0x24 /var/folders/x9/cy1bx1f960zd_7xhdrxmk_zm0000gn/T//cc8Nwo3z.ltrans0.ltrans.o
 .time_critical.flash_put_get
                0x20000108       0x6a /var/folders/x9/cy1bx1f960zd_7xhdrxmk_zm0000gn/T//cc8Nwo3z.ltrans0.ltrans.o
 .time_critical._flash_do_cmd
                0x20000172       0x22 /var/folders/x9/cy1bx1f960zd_7xhdrxmk_zm0000gn/T//cc8Nwo3z.ltrans0.ltrans.o
 .time_critical.flash_enable_write
                0x20000194        0xe /var/folders/x9/cy1bx1f960zd_7xhdrxmk_zm0000gn/T//cc8Nwo3z.ltrans0.ltrans.o
 .time_critical.flash_wait_ready
                0x200001a2       0x22 /var/folders/x9/cy1bx1f960zd_7xhdrxmk_zm0000gn/T//cc8Nwo3z.ltrans0.ltrans.o
 .time_critical.pico_program_bulk
                0x200001c4       0x94 /var/folders/x9/cy1bx1f960zd_7xhdrxmk_zm0000gn/T//cc8Nwo3z.ltrans0.ltrans.o
                0x20000258                        . = ALIGN (0x4)
 *(.data)
 *(.data.*)
 .data.autoshift_flags
                0x20000258        0x1 /var/folders/x9/cy1bx1f960zd_7xhdrxmk_zm0000gn/T//cc8Nwo3z.ltrans0.ltrans.o
 *fill*         0x20000259        0x1 
 .data.autoshift_timeout
                0x2000025a        0x2 /var/folders/x9/cy1bx1f960zd_7xhdrxmk_zm0000gn/T//cc8Nwo3z.ltrans0.ltrans.o
 .data.b_combo_enable.lto_priv.132
                0x2000025c        0x1 /var/folders/x9/cy1bx1f960zd_7xhdrxmk_zm0000gn/T//cc8Nwo3z.ltrans0.ltrans.o
                0x2000025c                b_combo_enable.lto_priv.132
 *fill*         0x2000025d        0x3 
 .data.chibios_driver
                0x20000260       0x18 /var/folders/x9/cy1bx1f960zd_7xhdrxmk_zm0000gn/T//cc8Nwo3z.ltrans0.ltrans.o
 .data.drivers  0x20000278      0x2c0 /var/folders/x9/cy1bx1f960zd_7xhdrxmk_zm0000gn/T//cc8Nwo3z.ltrans0.ltrans.o
 .data.enabled  0x20000538        0x1 /var/folders/x9/cy1bx1f960zd_7xhdrxmk_zm0000gn/T//cc8Nwo3z.ltrans0.ltrans.o
 *fill*         0x20000539        0x3 
 .data.func     0x2000053c        0x4 /var/folders/x9/cy1bx1f960zd_7xhdrxmk_zm0000gn/T//cc8Nwo3z.ltrans0.ltrans.o
 .data.keyboard_protocol
                0x20000540        0x1 /var/folders/x9/cy1bx1f960zd_7xhdrxmk_zm0000gn/T//cc8Nwo3z.ltrans0.ltrans.o
 .data.linecoding
                0x20000541        0x7 /var/folders/x9/cy1bx1f960zd_7xhdrxmk_zm0000gn/T//cc8Nwo3z.ltrans0.ltrans.o
 .data.macro_end.11675
                0x20000548        0x4 /var/folders/x9/cy1bx1f960zd_7xhdrxmk_zm0000gn/T//cc8Nwo3z.ltrans0.ltrans.o
 .data.mk_delay
                0x2000054c        0x1 /var/folders/x9/cy1bx1f960zd_7xhdrxmk_zm0000gn/T//cc8Nwo3z.ltrans0.ltrans.o
 .data.mk_interval
                0x2000054d        0x1 /var/folders/x9/cy1bx1f960zd_7xhdrxmk_zm0000gn/T//cc8Nwo3z.ltrans0.ltrans.o
 .data.mk_max_speed
                0x2000054e        0x1 /var/folders/x9/cy1bx1f960zd_7xhdrxmk_zm0000gn/T//cc8Nwo3z.ltrans0.ltrans.o
 .data.mk_time_to_max
                0x2000054f        0x1 /var/folders/x9/cy1bx1f960zd_7xhdrxmk_zm0000gn/T//cc8Nwo3z.ltrans0.ltrans.o
 .data.mk_wheel_delay
                0x20000550        0x1 /var/folders/x9/cy1bx1f960zd_7xhdrxmk_zm0000gn/T//cc8Nwo3z.ltrans0.ltrans.o
 .data.mk_wheel_interval
                0x20000551        0x1 /var/folders/x9/cy1bx1f960zd_7xhdrxmk_zm0000gn/T//cc8Nwo3z.ltrans0.ltrans.o
 .data.mk_wheel_max_speed
                0x20000552        0x1 /var/folders/x9/cy1bx1f960zd_7xhdrxmk_zm0000gn/T//cc8Nwo3z.ltrans0.ltrans.o
 .data.mk_wheel_time_to_max
                0x20000553        0x1 /var/folders/x9/cy1bx1f960zd_7xhdrxmk_zm0000gn/T//cc8Nwo3z.ltrans0.ltrans.o
 .data.r_macro_end.11677
                0x20000554        0x4 /var/folders/x9/cy1bx1f960zd_7xhdrxmk_zm0000gn/T//cc8Nwo3z.ltrans0.ltrans.o
 .data.vial_unlocked
                0x20000558        0x4 /var/folders/x9/cy1bx1f960zd_7xhdrxmk_zm0000gn/T//cc8Nwo3z.ltrans0.ltrans.o
 *(.ramtext)
                0x2000055c                        . = ALIGN (0x4)
                [!provide]                        PROVIDE (_edata = .)
                0x2000055c                        __data_end__ = .

.igot.plt       0x2000055c        0x0 load address 0x1000a100
 .igot.plt      0x2000055c        0x0 .build/obj_converter_cumulus_ta15_vial/./lib/chibios/os/common/startup/ARMCMx/compilers/GCC/crt0_v6m.o

.bss            0x2000055c     0x1fb8 load address 0x1000a100
                0x2000055c                        __bss_base__ = .
 *(.bss)
 *(.bss.*)
 .bss.BOOT2_ROM_RAM
                0x2000055c      0x100 /var/folders/x9/cy1bx1f960zd_7xhdrxmk_zm0000gn/T//cc8Nwo3z.ltrans0.ltrans.o
 .bss.QS        0x2000065c       0x24 /var/folders/x9/cy1bx1f960zd_7xhdrxmk_zm0000gn/T//cc8Nwo3z.ltrans0.ltrans.o
                0x2000065c                QS
 .bss.USBD1     0x20000680       0xe4 /var/folders/x9/cy1bx1f960zd_7xhdrxmk_zm0000gn/T//cc8Nwo3z.ltrans0.ltrans.o
 .bss.__compound_literal.0.lto_priv.130
                0x20000764       0x20 /var/folders/x9/cy1bx1f960zd_7xhdrxmk_zm0000gn/T//cc8Nwo3z.ltrans0.ltrans.o
 .bss.__compound_literal.0.lto_priv.131
                0x20000784       0x90 /var/folders/x9/cy1bx1f960zd_7xhdrxmk_zm0000gn/T//cc8Nwo3z.ltrans0.ltrans.o
 .bss.__compound_literal.1
                0x20000814       0x90 /var/folders/x9/cy1bx1f960zd_7xhdrxmk_zm0000gn/T//cc8Nwo3z.ltrans0.ltrans.o
 .bss.__compound_literal.2
                0x200008a4       0x90 /var/folders/x9/cy1bx1f960zd_7xhdrxmk_zm0000gn/T//cc8Nwo3z.ltrans0.ltrans.o
 .bss.__compound_literal.3
                0x20000934       0x90 /var/folders/x9/cy1bx1f960zd_7xhdrxmk_zm0000gn/T//cc8Nwo3z.ltrans0.ltrans.o
 .bss.active_override
                0x200009c4        0x4 /var/folders/x9/cy1bx1f960zd_7xhdrxmk_zm0000gn/T//cc8Nwo3z.ltrans0.ltrans.o
 .bss.active_override_trigger_is_down
                0x200009c8        0x1 /var/folders/x9/cy1bx1f960zd_7xhdrxmk_zm0000gn/T//cc8Nwo3z.ltrans0.ltrans.o
 *fill*         0x200009c9        0x1 
 .bss.active_td
                0x200009ca        0x2 /var/folders/x9/cy1bx1f960zd_7xhdrxmk_zm0000gn/T//cc8Nwo3z.ltrans0.ltrans.o
 .bss.autoshift_lastkey
                0x200009cc        0x2 /var/folders/x9/cy1bx1f960zd_7xhdrxmk_zm0000gn/T//cc8Nwo3z.ltrans0.ltrans.o
 .bss.autoshift_lastrecord
                0x200009ce        0xa /var/folders/x9/cy1bx1f960zd_7xhdrxmk_zm0000gn/T//cc8Nwo3z.ltrans0.ltrans.o
 .bss.autoshift_shift_states
                0x200009d8       0x20 /var/folders/x9/cy1bx1f960zd_7xhdrxmk_zm0000gn/T//cc8Nwo3z.ltrans0.ltrans.o
 .bss.autoshift_time
                0x200009f8        0x2 /var/folders/x9/cy1bx1f960zd_7xhdrxmk_zm0000gn/T//cc8Nwo3z.ltrans0.ltrans.o
 *fill*         0x200009fa        0x2 
 .bss.boot2_copyout
                0x200009fc      0x100 /var/folders/x9/cy1bx1f960zd_7xhdrxmk_zm0000gn/T//cc8Nwo3z.ltrans0.ltrans.o
 .bss.boot2_copyout_valid
                0x20000afc        0x1 /var/folders/x9/cy1bx1f960zd_7xhdrxmk_zm0000gn/T//cc8Nwo3z.ltrans0.ltrans.o
 *fill*         0x20000afd        0x1 
 .bss.bulk_write_buffer.5499
                0x20000afe       0x80 /var/folders/x9/cy1bx1f960zd_7xhdrxmk_zm0000gn/T//cc8Nwo3z.ltrans0.ltrans.o
 *fill*         0x20000b7e        0x2 
 .bss.ch_memcore
                0x20000b80        0x8 /var/folders/x9/cy1bx1f960zd_7xhdrxmk_zm0000gn/T//cc8Nwo3z.ltrans0.ltrans.o
 .bss.ch_system
                0x20000b88       0x10 /var/folders/x9/cy1bx1f960zd_7xhdrxmk_zm0000gn/T//cc8Nwo3z.ltrans0.ltrans.o
 .bss.combo_buffer.lto_priv.139
                0x20000b98        0x8 /var/folders/x9/cy1bx1f960zd_7xhdrxmk_zm0000gn/T//cc8Nwo3z.ltrans0.ltrans.o
                0x20000b98                combo_buffer.lto_priv.139
 .bss.combo_buffer_read.lto_priv.136
                0x20000ba0        0x1 /var/folders/x9/cy1bx1f960zd_7xhdrxmk_zm0000gn/T//cc8Nwo3z.ltrans0.ltrans.o
                0x20000ba0                combo_buffer_read.lto_priv.136
 .bss.combo_buffer_write.lto_priv.137
                0x20000ba1        0x1 /var/folders/x9/cy1bx1f960zd_7xhdrxmk_zm0000gn/T//cc8Nwo3z.ltrans0.ltrans.o
                0x20000ba1                combo_buffer_write.lto_priv.137
 *fill*         0x20000ba2        0x2 
 .bss.configured_freq
                0x20000ba4       0x28 /var/folders/x9/cy1bx1f960zd_7xhdrxmk_zm0000gn/T//cc8Nwo3z.ltrans0.ltrans.o
 .bss.dance_state
                0x20000bcc        0x4 /var/folders/x9/cy1bx1f960zd_7xhdrxmk_zm0000gn/T//cc8Nwo3z.ltrans0.ltrans.o
 .bss.debouncing
                0x20000bd0        0x1 /var/folders/x9/cy1bx1f960zd_7xhdrxmk_zm0000gn/T//cc8Nwo3z.ltrans0.ltrans.o
 *fill*         0x20000bd1        0x3 
 .bss.debouncing_time
                0x20000bd4        0x4 /var/folders/x9/cy1bx1f960zd_7xhdrxmk_zm0000gn/T//cc8Nwo3z.ltrans0.ltrans.o
 .bss.debug_config
                0x20000bd8        0x1 /var/folders/x9/cy1bx1f960zd_7xhdrxmk_zm0000gn/T//cc8Nwo3z.ltrans0.ltrans.o
 .bss.default_layer_state
                0x20000bd9        0x1 /var/folders/x9/cy1bx1f960zd_7xhdrxmk_zm0000gn/T//cc8Nwo3z.ltrans0.ltrans.o
 *fill*         0x20000bda        0x2 
 .bss.defer_delay
                0x20000bdc        0x4 /var/folders/x9/cy1bx1f960zd_7xhdrxmk_zm0000gn/T//cc8Nwo3z.ltrans0.ltrans.o
 .bss.defer_reference_time
                0x20000be0        0x4 /var/folders/x9/cy1bx1f960zd_7xhdrxmk_zm0000gn/T//cc8Nwo3z.ltrans0.ltrans.o
 .bss.deferred_register
                0x20000be4        0x2 /var/folders/x9/cy1bx1f960zd_7xhdrxmk_zm0000gn/T//cc8Nwo3z.ltrans0.ltrans.o
 *fill*         0x20000be6        0x2 
 .bss.desc.9828
                0x20000be8        0x8 /var/folders/x9/cy1bx1f960zd_7xhdrxmk_zm0000gn/T//cc8Nwo3z.ltrans0.ltrans.o
 .bss.driver.lto_priv.128
                0x20000bf0        0x4 /var/folders/x9/cy1bx1f960zd_7xhdrxmk_zm0000gn/T//cc8Nwo3z.ltrans0.ltrans.o
 .bss.driver.lto_priv.129
                0x20000bf4        0x4 /var/folders/x9/cy1bx1f960zd_7xhdrxmk_zm0000gn/T//cc8Nwo3z.ltrans0.ltrans.o
 .bss.ep0_state
                0x20000bf8       0x40 /var/folders/x9/cy1bx1f960zd_7xhdrxmk_zm0000gn/T//cc8Nwo3z.ltrans0.ltrans.o
 .bss.event_queue
                0x20000c38       0x10 /var/folders/x9/cy1bx1f960zd_7xhdrxmk_zm0000gn/T//cc8Nwo3z.ltrans0.ltrans.o
 .bss.event_queue_head
                0x20000c48        0x1 /var/folders/x9/cy1bx1f960zd_7xhdrxmk_zm0000gn/T//cc8Nwo3z.ltrans0.ltrans.o
 .bss.event_queue_tail
                0x20000c49        0x1 /var/folders/x9/cy1bx1f960zd_7xhdrxmk_zm0000gn/T//cc8Nwo3z.ltrans0.ltrans.o
 .bss.g_vial_magic_keycode_override
                0x20000c4a        0x2 /var/folders/x9/cy1bx1f960zd_7xhdrxmk_zm0000gn/T//cc8Nwo3z.ltrans0.ltrans.o
 .bss.grave_esc_was_shifted
                0x20000c4c        0x1 /var/folders/x9/cy1bx1f960zd_7xhdrxmk_zm0000gn/T//cc8Nwo3z.ltrans0.ltrans.o
 *fill*         0x20000c4d        0x3 
 .bss.interrupts
                0x20000c50        0x4 /var/folders/x9/cy1bx1f960zd_7xhdrxmk_zm0000gn/T//cc8Nwo3z.ltrans0.ltrans.o
 .bss.kbd_ep_state
                0x20000c54       0x20 /var/folders/x9/cy1bx1f960zd_7xhdrxmk_zm0000gn/T//cc8Nwo3z.ltrans0.ltrans.o
 .bss.key_buffer.lto_priv.135
                0x20000c74       0x70 /var/folders/x9/cy1bx1f960zd_7xhdrxmk_zm0000gn/T//cc8Nwo3z.ltrans0.ltrans.o
                0x20000c74                key_buffer.lto_priv.135
 .bss.key_buffer_next.11681
                0x20000ce4        0x1 /var/folders/x9/cy1bx1f960zd_7xhdrxmk_zm0000gn/T//cc8Nwo3z.ltrans0.ltrans.o
 .bss.key_buffer_size.lto_priv.134
                0x20000ce5        0x1 /var/folders/x9/cy1bx1f960zd_7xhdrxmk_zm0000gn/T//cc8Nwo3z.ltrans0.ltrans.o
                0x20000ce5                key_buffer_size.lto_priv.134
 *fill*         0x20000ce6        0x2 
 .bss.key_combos
                0x20000ce8       0x30 /var/folders/x9/cy1bx1f960zd_7xhdrxmk_zm0000gn/T//cc8Nwo3z.ltrans0.ltrans.o
                0x20000ce8                key_combos
 .bss.key_combos_keys
                0x20000d18       0x28 /var/folders/x9/cy1bx1f960zd_7xhdrxmk_zm0000gn/T//cc8Nwo3z.ltrans0.ltrans.o
 .bss.keyboard_idle
                0x20000d40        0x1 /var/folders/x9/cy1bx1f960zd_7xhdrxmk_zm0000gn/T//cc8Nwo3z.ltrans0.ltrans.o
 *fill*         0x20000d41        0x3 
 .bss.keyboard_idle_timer
                0x20000d44       0x18 /var/folders/x9/cy1bx1f960zd_7xhdrxmk_zm0000gn/T//cc8Nwo3z.ltrans0.ltrans.o
 .bss.keyboard_led_state
                0x20000d5c        0x1 /var/folders/x9/cy1bx1f960zd_7xhdrxmk_zm0000gn/T//cc8Nwo3z.ltrans0.ltrans.o
 .bss.keyboard_report_sent
                0x20000d5d       0x20 /var/folders/x9/cy1bx1f960zd_7xhdrxmk_zm0000gn/T//cc8Nwo3z.ltrans0.ltrans.o
 *fill*         0x20000d7d        0x1 
 .bss.keymap_config
                0x20000d7e        0x2 /var/folders/x9/cy1bx1f960zd_7xhdrxmk_zm0000gn/T//cc8Nwo3z.ltrans0.ltrans.o
                0x20000d7e                keymap_config
 .bss.last_consumer_report
                0x20000d80        0x2 /var/folders/x9/cy1bx1f960zd_7xhdrxmk_zm0000gn/T//cc8Nwo3z.ltrans0.ltrans.o
 .bss.last_key_down
                0x20000d82        0x2 /var/folders/x9/cy1bx1f960zd_7xhdrxmk_zm0000gn/T//cc8Nwo3z.ltrans0.ltrans.o
 .bss.last_key_down_time
                0x20000d84        0x4 /var/folders/x9/cy1bx1f960zd_7xhdrxmk_zm0000gn/T//cc8Nwo3z.ltrans0.ltrans.o
 .bss.last_led_status.9508
                0x20000d88        0x1 /var/folders/x9/cy1bx1f960zd_7xhdrxmk_zm0000gn/T//cc8Nwo3z.ltrans0.ltrans.o
 .bss.last_report.10055
                0x20000d89       0x20 /var/folders/x9/cy1bx1f960zd_7xhdrxmk_zm0000gn/T//cc8Nwo3z.ltrans0.ltrans.o
 .bss.last_suspend_state
                0x20000da9        0x1 /var/folders/x9/cy1bx1f960zd_7xhdrxmk_zm0000gn/T//cc8Nwo3z.ltrans0.ltrans.o
 .bss.last_system_report
                0x20000daa        0x2 /var/folders/x9/cy1bx1f960zd_7xhdrxmk_zm0000gn/T//cc8Nwo3z.ltrans0.ltrans.o
 .bss.last_tap_time
                0x20000dac        0x2 /var/folders/x9/cy1bx1f960zd_7xhdrxmk_zm0000gn/T//cc8Nwo3z.ltrans0.ltrans.o
 .bss.last_tick.11804
                0x20000dae        0x2 /var/folders/x9/cy1bx1f960zd_7xhdrxmk_zm0000gn/T//cc8Nwo3z.ltrans0.ltrans.o
 .bss.last_ticks
                0x20000db0        0x4 /var/folders/x9/cy1bx1f960zd_7xhdrxmk_zm0000gn/T//cc8Nwo3z.ltrans0.ltrans.o
 .bss.last_timer_c
                0x20000db4        0x2 /var/folders/x9/cy1bx1f960zd_7xhdrxmk_zm0000gn/T//cc8Nwo3z.ltrans0.ltrans.o
 .bss.last_timer_w
                0x20000db6        0x2 /var/folders/x9/cy1bx1f960zd_7xhdrxmk_zm0000gn/T//cc8Nwo3z.ltrans0.ltrans.o
 .bss.layer_state
                0x20000db8        0x1 /var/folders/x9/cy1bx1f960zd_7xhdrxmk_zm0000gn/T//cc8Nwo3z.ltrans0.ltrans.o
 *fill*         0x20000db9        0x1 
 .bss.longest_term.lto_priv.138
                0x20000dba        0x2 /var/folders/x9/cy1bx1f960zd_7xhdrxmk_zm0000gn/T//cc8Nwo3z.ltrans0.ltrans.o
                0x20000dba                longest_term.lto_priv.138
 .bss.macro_buffer.11674
                0x20000dbc      0x500 /var/folders/x9/cy1bx1f960zd_7xhdrxmk_zm0000gn/T//cc8Nwo3z.ltrans0.ltrans.o
 .bss.macro_id.11679
                0x200012bc        0x1 /var/folders/x9/cy1bx1f960zd_7xhdrxmk_zm0000gn/T//cc8Nwo3z.ltrans0.ltrans.o
 *fill*         0x200012bd        0x3 
 .bss.macro_pointer.11678
                0x200012c0        0x4 /var/folders/x9/cy1bx1f960zd_7xhdrxmk_zm0000gn/T//cc8Nwo3z.ltrans0.ltrans.o
 .bss.matrix    0x200012c4       0x24 /var/folders/x9/cy1bx1f960zd_7xhdrxmk_zm0000gn/T//cc8Nwo3z.ltrans0.ltrans.o
 .bss.matrix_previous.11811
                0x200012e8       0x24 /var/folders/x9/cy1bx1f960zd_7xhdrxmk_zm0000gn/T//cc8Nwo3z.ltrans0.ltrans.o
 .bss.mouse_report
                0x2000130c        0x6 /var/folders/x9/cy1bx1f960zd_7xhdrxmk_zm0000gn/T//cc8Nwo3z.ltrans0.ltrans.o
 .bss.mousekey_accel
                0x20001312        0x1 /var/folders/x9/cy1bx1f960zd_7xhdrxmk_zm0000gn/T//cc8Nwo3z.ltrans0.ltrans.o
 .bss.mousekey_repeat
                0x20001313        0x1 /var/folders/x9/cy1bx1f960zd_7xhdrxmk_zm0000gn/T//cc8Nwo3z.ltrans0.ltrans.o
 .bss.mousekey_wheel_repeat
                0x20001314        0x1 /var/folders/x9/cy1bx1f960zd_7xhdrxmk_zm0000gn/T//cc8Nwo3z.ltrans0.ltrans.o
 *fill*         0x20001315        0x3 
 .bss.ms_offset
                0x20001318        0x4 /var/folders/x9/cy1bx1f960zd_7xhdrxmk_zm0000gn/T//cc8Nwo3z.ltrans0.ltrans.o
 .bss.oneshot_layer_data.lto_priv.141
                0x2000131c        0x1 /var/folders/x9/cy1bx1f960zd_7xhdrxmk_zm0000gn/T//cc8Nwo3z.ltrans0.ltrans.o
                0x2000131c                oneshot_layer_data.lto_priv.141
 *fill*         0x2000131d        0x1 
 .bss.oneshot_layer_time.lto_priv.140
                0x2000131e        0x2 /var/folders/x9/cy1bx1f960zd_7xhdrxmk_zm0000gn/T//cc8Nwo3z.ltrans0.ltrans.o
                0x2000131e                oneshot_layer_time.lto_priv.140
 .bss.oneshot_locked_mods
                0x20001320        0x1 /var/folders/x9/cy1bx1f960zd_7xhdrxmk_zm0000gn/T//cc8Nwo3z.ltrans0.ltrans.o
 .bss.oneshot_mods
                0x20001321        0x1 /var/folders/x9/cy1bx1f960zd_7xhdrxmk_zm0000gn/T//cc8Nwo3z.ltrans0.ltrans.o
 .bss.oneshot_time
                0x20001322        0x2 /var/folders/x9/cy1bx1f960zd_7xhdrxmk_zm0000gn/T//cc8Nwo3z.ltrans0.ltrans.o
 .bss.override_ptrs
                0x20001324       0x14 /var/folders/x9/cy1bx1f960zd_7xhdrxmk_zm0000gn/T//cc8Nwo3z.ltrans0.ltrans.o
 .bss.overrides
                0x20001338       0x60 /var/folders/x9/cy1bx1f960zd_7xhdrxmk_zm0000gn/T//cc8Nwo3z.ltrans0.ltrans.o
 .bss.raw_matrix
                0x20001398       0x24 /var/folders/x9/cy1bx1f960zd_7xhdrxmk_zm0000gn/T//cc8Nwo3z.ltrans0.ltrans.o
 .bss.real_mods
                0x200013bc        0x1 /var/folders/x9/cy1bx1f960zd_7xhdrxmk_zm0000gn/T//cc8Nwo3z.ltrans0.ltrans.o
 .bss.report.10000
                0x200013bd        0x3 /var/folders/x9/cy1bx1f960zd_7xhdrxmk_zm0000gn/T//cc8Nwo3z.ltrans0.ltrans.o
 .bss.retro_tapping_counter
                0x200013c0        0x4 /var/folders/x9/cy1bx1f960zd_7xhdrxmk_zm0000gn/T//cc8Nwo3z.ltrans0.ltrans.o
                0x200013c0                retro_tapping_counter
 .bss.sc_last   0x200013c4        0x1 /var/folders/x9/cy1bx1f960zd_7xhdrxmk_zm0000gn/T//cc8Nwo3z.ltrans0.ltrans.o
 *fill*         0x200013c5        0x1 
 .bss.sc_timer  0x200013c6        0x2 /var/folders/x9/cy1bx1f960zd_7xhdrxmk_zm0000gn/T//cc8Nwo3z.ltrans0.ltrans.o
 .bss.set_report_buf
                0x200013c8        0x2 /var/folders/x9/cy1bx1f960zd_7xhdrxmk_zm0000gn/T//cc8Nwo3z.ltrans0.ltrans.o
 *fill*         0x200013ca        0x2 
 .bss.shared_ep_state
                0x200013cc       0x20 /var/folders/x9/cy1bx1f960zd_7xhdrxmk_zm0000gn/T//cc8Nwo3z.ltrans0.ltrans.o
 .bss.source_layers_cache
                0x200013ec       0x3c /var/folders/x9/cy1bx1f960zd_7xhdrxmk_zm0000gn/T//cc8Nwo3z.ltrans0.ltrans.o
 .bss.suppressed_mods
                0x20001428        0x1 /var/folders/x9/cy1bx1f960zd_7xhdrxmk_zm0000gn/T//cc8Nwo3z.ltrans0.ltrans.o
 *fill*         0x20001429        0x3 
 .bss.tap_dance_actions
                0x2000142c       0x60 /var/folders/x9/cy1bx1f960zd_7xhdrxmk_zm0000gn/T//cc8Nwo3z.ltrans0.ltrans.o
 .bss.tapping_key
                0x2000148c        0xa /var/folders/x9/cy1bx1f960zd_7xhdrxmk_zm0000gn/T//cc8Nwo3z.ltrans0.ltrans.o
 .bss.td_entry  0x20001496        0xa /var/folders/x9/cy1bx1f960zd_7xhdrxmk_zm0000gn/T//cc8Nwo3z.ltrans0.ltrans.o
 .bss.ticks_offset
                0x200014a0        0x4 /var/folders/x9/cy1bx1f960zd_7xhdrxmk_zm0000gn/T//cc8Nwo3z.ltrans0.ltrans.o
 .bss.timed_out.10017
                0x200014a4        0x1 /var/folders/x9/cy1bx1f960zd_7xhdrxmk_zm0000gn/T//cc8Nwo3z.ltrans0.ltrans.o
 *fill*         0x200014a5        0x1 
 .bss.timer.lto_priv.133
                0x200014a6        0x2 /var/folders/x9/cy1bx1f960zd_7xhdrxmk_zm0000gn/T//cc8Nwo3z.ltrans0.ltrans.o
                0x200014a6                timer.lto_priv.133
 .bss.unicode_config
                0x200014a8        0x4 /var/folders/x9/cy1bx1f960zd_7xhdrxmk_zm0000gn/T//cc8Nwo3z.ltrans0.ltrans.o
 .bss.unicode_saved_caps_lock
                0x200014ac        0x1 /var/folders/x9/cy1bx1f960zd_7xhdrxmk_zm0000gn/T//cc8Nwo3z.ltrans0.ltrans.o
 .bss.unicode_saved_mods
                0x200014ad        0x1 /var/folders/x9/cy1bx1f960zd_7xhdrxmk_zm0000gn/T//cc8Nwo3z.ltrans0.ltrans.o
 .bss.unicode_saved_num_lock
                0x200014ae        0x1 /var/folders/x9/cy1bx1f960zd_7xhdrxmk_zm0000gn/T//cc8Nwo3z.ltrans0.ltrans.o
 .bss.vial_key_override_disabled
                0x200014af        0x1 /var/folders/x9/cy1bx1f960zd_7xhdrxmk_zm0000gn/T//cc8Nwo3z.ltrans0.ltrans.o
 .bss.vial_unlock_counter
                0x200014b0        0x4 /var/folders/x9/cy1bx1f960zd_7xhdrxmk_zm0000gn/T//cc8Nwo3z.ltrans0.ltrans.o
 .bss.vial_unlock_in_progress
                0x200014b4        0x4 /var/folders/x9/cy1bx1f960zd_7xhdrxmk_zm0000gn/T//cc8Nwo3z.ltrans0.ltrans.o
 .bss.waiting_buffer
                0x200014b8       0x50 /var/folders/x9/cy1bx1f960zd_7xhdrxmk_zm0000gn/T//cc8Nwo3z.ltrans0.ltrans.o
 .bss.waiting_buffer_head
                0x20001508        0x1 /var/folders/x9/cy1bx1f960zd_7xhdrxmk_zm0000gn/T//cc8Nwo3z.ltrans0.ltrans.o
 .bss.waiting_buffer_tail
                0x20001509        0x1 /var/folders/x9/cy1bx1f960zd_7xhdrxmk_zm0000gn/T//cc8Nwo3z.ltrans0.ltrans.o
 .bss.weak_mods.lto_priv.142
                0x2000150a        0x1 /var/folders/x9/cy1bx1f960zd_7xhdrxmk_zm0000gn/T//cc8Nwo3z.ltrans0.ltrans.o
                0x2000150a                weak_mods.lto_priv.142
 .bss.weak_override_mods
                0x2000150b        0x1 /var/folders/x9/cy1bx1f960zd_7xhdrxmk_zm0000gn/T//cc8Nwo3z.ltrans0.ltrans.o
 .bss.wear_leveling
                0x2000150c     0x1008 /var/folders/x9/cy1bx1f960zd_7xhdrxmk_zm0000gn/T//cc8Nwo3z.ltrans0.ltrans.o
 *(COMMON)
                0x20002514                        . = ALIGN (0x4)
                0x20002514                        __bss_end__ = .
                [!provide]                        PROVIDE (end = .)
                0x20000000                        __ram0_base__ = ORIGIN (ram0)
                0x00040000                        __ram0_size__ = LENGTH (ram0)
                0x20040000                        __ram0_end__ = (__ram0_base__ + __ram0_size__)
                0x00000000                        __ram1_base__ = ORIGIN (ram1)
                0x00040000                        __ram1_size__ = LENGTH (ram1)
                0x00040000                        __ram1_end__ = (__ram1_base__ + __ram1_size__)
                0x00000000                        __ram2_base__ = ORIGIN (ram2)
                0x00000000                        __ram2_size__ = LENGTH (ram2)
                0x00000000                        __ram2_end__ = (__ram2_base__ + __ram2_size__)
                0x00000000                        __ram3_base__ = ORIGIN (ram3)
                0x00000000                        __ram3_size__ = LENGTH (ram3)
                0x00000000                        __ram3_end__ = (__ram3_base__ + __ram3_size__)
                0x20040000                        __ram4_base__ = ORIGIN (ram4)
                0x00001000                        __ram4_size__ = LENGTH (ram4)
                0x20041000                        __ram4_end__ = (__ram4_base__ + __ram4_size__)
                0x20041000                        __ram5_base__ = ORIGIN (ram5)
                0x00001000                        __ram5_size__ = LENGTH (ram5)
                0x20042000                        __ram5_end__ = (__ram5_base__ + __ram5_size__)
                0x00000000                        __ram6_base__ = ORIGIN (ram6)
                0x00000000                        __ram6_size__ = LENGTH (ram6)
                0x00000000                        __ram6_end__ = (__ram6_base__ + __ram6_size__)
                0x20041f00                        __ram7_base__ = ORIGIN (ram7)
                0x00000100                        __ram7_size__ = LENGTH (ram7)
                0x20042000                        __ram7_end__ = (__ram7_base__ + __ram7_size__)
                0x00000000                        __flash0_base__ = ORIGIN (flash0)
                0x00004000                        __flash0_size__ = LENGTH (flash0)
                0x00004000                        __flash0_end__ = (__flash0_base__ + __flash0_size__)
                0x10000000                        __flash1_base__ = ORIGIN (flash1)
                0x00200000                        __flash1_size__ = LENGTH (flash1)
                0x10200000                        __flash1_end__ = (__flash1_base__ + __flash1_size__)
                0x00000000                        __flash2_base__ = ORIGIN (flash2)
                0x00000000                        __flash2_size__ = LENGTH (flash2)
                0x00000000                        __flash2_end__ = (__flash2_base__ + __flash2_size__)
                0x00000000                        __flash3_base__ = ORIGIN (flash3)
                0x00000000                        __flash3_size__ = LENGTH (flash3)
                0x00000000                        __flash3_end__ = (__flash3_base__ + __flash3_size__)
                0x00000000                        __flash4_base__ = ORIGIN (flash4)
                0x00000000                        __flash4_size__ = LENGTH (flash4)
                0x00000000                        __flash4_end__ = (__flash4_base__ + __flash4_size__)
                0x00000000                        __flash5_base__ = ORIGIN (flash5)
                0x00000000                        __flash5_size__ = LENGTH (flash5)
                0x00000000                        __flash5_end__ = (__flash5_base__ + __flash5_size__)
                0x00000000                        __flash6_base__ = ORIGIN (flash6)
                0x00000000                        __flash6_size__ = LENGTH (flash6)
                0x00000000                        __flash6_end__ = (__flash6_base__ + __flash6_size__)
                0x00000000                        __flash7_base__ = ORIGIN (flash7)
                0x00000000                        __flash7_size__ = LENGTH (flash7)
                0x00000000                        __flash7_end__ = (__flash7_base__ + __flash7_size__)

.ram0_init      0x20002514        0x0 load address 0x1000a100
                0x1000a100                        __ram0_init_text__ = LOADADDR (.ram0_init)
                0x20002514                        __ram0_init__ = .
 *(.ram0_init)
 *(.ram0_init.*)
                0x20002514                        . = ALIGN (0x4)

.ram0           0x20002514        0x4 load address 0x1000a100
                0x20002514                        __ram0_clear__ = .
 *(.ram0_clear)
 *(.ram0_clear.*)
                0x20002514                        . = ALIGN (0x4)
                0x20002514                        __ram0_noinit__ = .
 *(.ram0)
 *(.ram0.*)
 .ram0.bootloader_magic
                0x20002514        0x4 /var/folders/x9/cy1bx1f960zd_7xhdrxmk_zm0000gn/T//cc8Nwo3z.ltrans0.ltrans.o
                0x20002518                        . = ALIGN (0x4)
                0x20002518                        __ram0_free__ = .

.ram1_init      0x00000000        0x0 load address 0x1000a100
                0x1000a100                        __ram1_init_text__ = LOADADDR (.ram1_init)
                0x00000000                        __ram1_init__ = .
 *(.ram1_init)
 *(.ram1_init.*)
                0x00000000                        . = ALIGN (0x4)

.ram1           0x00000000        0x0 load address 0x1000a100
                0x00000000                        __ram1_clear__ = .
 *(.ram1_clear)
 *(.ram1_clear.*)
                0x00000000                        . = ALIGN (0x4)
                0x00000000                        __ram1_noinit__ = .
 *(.ram1)
 *(.ram1.*)
                0x00000000                        . = ALIGN (0x4)
                0x00000000                        __ram1_free__ = .

.ram2_init      0x00000000        0x0 load address 0x1000a100
                0x1000a100                        __ram2_init_text__ = LOADADDR (.ram2_init)
                0x00000000                        __ram2_init__ = .
 *(.ram2_init)
 *(.ram2_init.*)
                0x00000000                        . = ALIGN (0x4)

.ram2           0x00000000        0x0 load address 0x1000a100
                0x00000000                        __ram2_clear__ = .
 *(.ram2_clear)
 *(.ram2_clear.*)
                0x00000000                        . = ALIGN (0x4)
                0x00000000                        __ram2_noinit__ = .
 *(.ram2)
 *(.ram2.*)
                0x00000000                        . = ALIGN (0x4)
                0x00000000                        __ram2_free__ = .

.ram3_init      0x00000000        0x0 load address 0x1000a100
                0x1000a100                        __ram3_init_text__ = LOADADDR (.ram3_init)
                0x00000000                        __ram3_init__ = .
 *(.ram3_init)
 *(.ram3_init.*)
                0x00000000                        . = ALIGN (0x4)

.ram3           0x00000000        0x0 load address 0x1000a100
                0x00000000                        __ram3_clear__ = .
 *(.ram3_clear)
 *(.ram3_clear.*)
                0x00000000                        . = ALIGN (0x4)
                0x00000000                        __ram3_noinit__ = .
 *(.ram3)
 *(.ram3.*)
                0x00000000                        . = ALIGN (0x4)
                0x00000000                        __ram3_free__ = .

.ram4_init      0x20040c00        0x0 load address 0x1000a100
                0x1000a100                        __ram4_init_text__ = LOADADDR (.ram4_init)
                0x20040c00                        __ram4_init__ = .
 *(.ram4_init)
 *(.ram4_init.*)
                0x20040c00                        . = ALIGN (0x4)

.ram4           0x20040c00      0x120 load address 0x1000a100
                0x20040c00                        __ram4_clear__ = .
 *(.ram4_clear)
 *(.ram4_clear.*)
 .ram4_clear.core0
                0x20040c00      0x120 /var/folders/x9/cy1bx1f960zd_7xhdrxmk_zm0000gn/T//cc8Nwo3z.ltrans0.ltrans.o
                0x20040d20                        . = ALIGN (0x4)
                0x20040d20                        __ram4_noinit__ = .
 *(.ram4)
 *(.ram4.*)
                0x20040d20                        . = ALIGN (0x4)
                0x20040d20                        __ram4_free__ = .

.ram5_init      0x20041c00        0x0 load address 0x1000a100
                0x1000a100                        __ram5_init_text__ = LOADADDR (.ram5_init)
                0x20041c00                        __ram5_init__ = .
 *(.ram5_init)
 *(.ram5_init.*)
                0x20041c00                        . = ALIGN (0x4)

.ram5           0x20041c00        0x0 load address 0x1000a100
                0x20041c00                        __ram5_clear__ = .
 *(.ram5_clear)
 *(.ram5_clear.*)
                0x20041c00                        . = ALIGN (0x4)
                0x20041c00                        __ram5_noinit__ = .
 *(.ram5)
 *(.ram5.*)
                0x20041c00                        . = ALIGN (0x4)
                0x20041c00                        __ram5_free__ = .

.ram6_init      0x00000000        0x0 load address 0x1000a100
                0x1000a100                        __ram6_init_text__ = LOADADDR (.ram6_init)
                0x00000000                        __ram6_init__ = .
 *(.ram6_init)
 *(.ram6_init.*)
                0x00000000                        . = ALIGN (0x4)

.ram6           0x00000000        0x0 load address 0x1000a100
                0x00000000                        __ram6_clear__ = .
 *(.ram6_clear)
 *(.ram6_clear.*)
                0x00000000                        . = ALIGN (0x4)
                0x00000000                        __ram6_noinit__ = .
 *(.ram6)
 *(.ram6.*)
                0x00000000                        . = ALIGN (0x4)
                0x00000000                        __ram6_free__ = .

.ram7_init      0x20041f00        0x0 load address 0x1000a100
                0x1000a100                        __ram7_init_text__ = LOADADDR (.ram7_init)
                0x20041f00                        __ram7_init__ = .
 *(.ram7_init)
 *(.ram7_init.*)
                0x20041f00                        . = ALIGN (0x4)

.ram7           0x20041f00        0x0 load address 0x1000a100
                0x20041f00                        __ram7_clear__ = .
 *(.ram7_clear)
 *(.ram7_clear.*)
                0x20041f00                        . = ALIGN (0x4)
                0x20041f00                        __ram7_noinit__ = .
 *(.ram7)
 *(.ram7.*)
                0x20041f00                        . = ALIGN (0x4)
                0x20041f00                        __ram7_free__ = .

.flash0         0x00000000        0x0
                0x00000000                        __flash0_init__ = .
 *(.flash0_init)
 *(.flash0_init.*)
                0x00000000                        __flash0_free__ = .

.flash1         0x1000a100        0x0
                0x1000a100                        __flash1_init__ = .
 *(.flash1_init)
 *(.flash1_init.*)
                0x1000a100                        __flash1_free__ = .

.flash2         0x00000000        0x0
                0x00000000                        __flash2_init__ = .
 *(.flash2_init)
 *(.flash2_init.*)
                0x00000000                        __flash2_free__ = .

.flash3         0x00000000        0x0
                0x00000000                        __flash3_init__ = .
 *(.flash3_init)
 *(.flash3_init.*)
                0x00000000                        __flash3_free__ = .

.flash4         0x00000000        0x0
                0x00000000                        __flash4_init__ = .
 *(.flash4_init)
 *(.flash4_init.*)
                0x00000000                        __flash4_free__ = .

.flash5         0x00000000        0x0
                0x00000000                        __flash5_init__ = .
 *(.flash5_init)
 *(.flash5_init.*)
                0x00000000                        __flash5_free__ = .

.flash6         0x00000000        0x0
                0x00000000                        __flash6_init__ = .
 *(.flash6_init)
 *(.flash6_init.*)
                0x00000000                        __flash6_free__ = .

.flash7         0x00000000        0x0
                0x00000000                        __flash7_init__ = .
 *(.flash7_init)
 *(.flash7_init.*)
                0x00000000                        __flash7_free__ = .

.heap           0x20002518    0x3dae8
                0x20002518                        . = ALIGN (0x8)
                0x20002518                        __heap_base__ = .
                0x20040000                        . = (ORIGIN (HEAP_RAM) + LENGTH (HEAP_RAM))
 *fill*         0x20002518    0x3dae8 
                0x20040000                        __heap_end__ = .

.flash_end      0x1000a100        0x0
                0x1000a100                        __flash_binary_end = .
OUTPUT(.build/converter_cumulus_ta15_vial.elf elf32-littlearm)
LOAD linker stubs

.debug_info     0x00000000    0xfbc57
 .debug_info    0x00000000    0xe672a /var/folders/x9/cy1bx1f960zd_7xhdrxmk_zm0000gn/T//ccbHuJM1debugobj
                0x00000000                cumulus_ta15.c.894a67da
                0x00002475                default_keyboard.c.3443f21d
                0x000048ea                keymap_introspection.c.753028dd
                0x000081ba                quantum.c.37e74607
                0x0000be97                bitwise.c.58a62397
                0x0000c087                led.c.526da298
                0x0000e041                action.c.d870710c
                0x000113ea                action_layer.c.a77f9146
                0x00013cbc                action_tapping.c.a881ae7b
                0x000150a3                action_util.c.c9941ec7
                0x00017626                eeconfig.c.8bb3accf
                0x00018152                keyboard.c.06296d10
                0x0001aac8                keymap_common.c.134df2fe
                0x0001e7c3                keycode_config.c.6292a3df
                0x0001edfc                sync_timer.c.f575104c
                0x0001ee97                debug.c.f15ba547
                0x0001f858                sendchar.c.aaa4bde6
                0x0001f90a                print.c.801493d3
                0x0001fa22                bootmagic_lite.c.c2a0f6ac
                0x00021ed8                magic.c.f7ec6814
                0x00023fef                matrix_common.c.cad6f8d0
                0x000266e0                matrix.c.f6bd54bb
                0x00029367                sym_defer_g.c.3904d204
                0x0002b903                main.c.bb3bc6b8
                0x0002b991                printf.c.35dc1981
                0x0002c1fa                mousekey.c.ac61eae7
                0x0002e47c                eeprom_driver.c.3dc26550
                0x0002eff7                eeprom_wear_leveling.c.83082750
                0x0002f9ad                wear_leveling.c.b99e979c
                0x00030aae                wear_leveling_rp2040_flash.c.a5e82603
                0x00031bb3                via.c.d5b53b9f
                0x000345c2                vial.c.4e4068c8
                0x000387b5                dynamic_keymap.c.d238cd6c
                0x0003b8e8                qmk_settings.c.0d2524cb
                0x0003ea51                qmk_fnv_type_validation.c.f89b19d9
                0x0003f571                hash_32a.c.f816a164
                0x00040117                hash_64a.c.1d561502
                0x00040cbd                process_unicode.c.2430e17f
                0x00043fbe                process_unicode_common.c.cd854e7c
                0x00047933                utf8.c.2055acc7
                0x00047a03                process_magic.c.eb32f2d9
                0x0004ad04                send_string.c.4d8f4471
                0x0004d7a5                process_auto_shift.c.1820be67
                0x000513aa                process_combo.c.6890f198
                0x00054cf4                process_dynamic_macro.c.97f4c2e9
                0x000581bf                process_grave_esc.c.4d56b3d4
                0x0005babc                process_key_override.c.0fa24d56
                0x0005f584                process_space_cadet.c.d7a90b9c
                0x00062d58                process_tap_dance.c.b953f68e
                0x0006636d                host.c.de5900a4
                0x00068c79                report.c.5f794c79
                0x0006b283                usb_device_state.c.67c82180
                0x0006b412                usb_util.c.19a21ef5
                0x0006d8a7                suspend.c.bcf6d205
                0x0006d97e                hardware_id.c.d2143281
                0x0006e148                platform.c.f6945328
                0x0006f5e2                suspend.c.c13cfc16
                0x00071475                timer.c.210d6a75
                0x00072087                rp2040.c.6ed05248
                0x000746bb                usb_main.c.fb20a81f
                0x00077ff9                chibios.c.27485aef
                0x0007a14e                usb_descriptor.c.a421121f
                0x0007c5b9                usb_driver.c.807120a1
                0x0007f0be                usb_util.c.213d6342
                0x00080564                chmboxes.c.c8908508
                0x00080cdf                chmemcore.c.96dab5e4
                0x0008197c                chmemheaps.c.e185df12
                0x000820f7                chmempools.c.04f1bd64
                0x00082872                chpipes.c.b578e457
                0x0008387b                chobjcaches.c.1dcf88d8
                0x00083ff6                chdelegates.c.a5f99009
                0x00084771                chfactory.c.bad310e8
                0x0008577a                crt1.c.c15b2a00
                0x00085a4e                chsys.c.e19acbe5
                0x00086c3f                chrfcu.c.da083c14
                0x000873f6                chdebug.c.bc196852
                0x00087b71                chtrace.c.88e6a878
                0x000882ec                chvt.c.87243062
                0x00089a61                chschd.c.9eac00fc
                0x0008aa7a                chinstances.c.70a3dfd9
                0x0008b6ab                chthreads.c.aeb244af
                0x0008c8c8                chtm.c.a37cadff
                0x0008d043                chstats.c.99639f85
                0x0008d7be                chregistry.c.13be683f
                0x0008e7c7                chsem.c.79d25abb
                0x0008f65c                chmtx.c.bc7e2d52
                0x00090459                chcond.c.34fb3387
                0x00090bd4                chevents.c.ab1fc464
                0x00091c7b                chmsg.c.8d7f7cdc
                0x000923f6                chdynamic.c.f4d19eab
                0x00092b71                chcore.c.3f41ed31
                0x00093ad2                osal.c.4a707d63
                0x0009424d                hal.c.fe603a5b
                0x000956f0                hal_st.c.92d6508f
                0x00096bfa                hal_buffers.c.17170541
                0x0009942a                hal_queues.c.d92994c0
                0x0009bb30                hal_flash.c.cd07c207
                0x0009d4af                hal_mmcsd.c.1d51729a
                0x0009e941                hal_adc.c.3e2ebf37
                0x0009fdd3                hal_can.c.09b95dd0
                0x000a1265                hal_crypto.c.51dd2e5b
                0x000a26f7                hal_dac.c.ae10a33b
                0x000a3b89                hal_efl.c.f29307f6
                0x000a501b                hal_gpt.c.95c2c7be
                0x000a64ad                hal_i2c.c.e3d388c2
                0x000a793f                hal_i2s.c.76ad06f2
                0x000a8dd1                hal_icu.c.bc5c046b
                0x000aa263                hal_mac.c.86d440a8
                0x000ab6f5                hal_mmc_spi.c.1bc836fd
                0x000ad415                hal_pal.c.8fd1e2cb
                0x000aece6                hal_pwm.c.e128d70d
                0x000b0178                hal_rtc.c.f4e3727f
                0x000b160a                hal_sdc.c.05f53d12
                0x000b332a                hal_serial.c.b2a0c1a1
                0x000b47bc                hal_serial_usb.c.c1075b42
                0x000b5c4e                hal_sio.c.c7e54b10
                0x000b70e0                hal_spi.c.1eeabfb1
                0x000b8572                hal_trng.c.2e71d8ea
                0x000b9a04                hal_uart.c.5e2dfd54
                0x000bae96                hal_usb.c.5f555a8a
                0x000bdba2                hal_wdg.c.21849733
                0x000bf034                hal_wspi.c.bae1c734
                0x000c04c6                nvic.c.d6b825ee
                0x000c1bc1                rp_isr.c.0cf38114
                0x000c3063                hal_lld.c.3cb906ec
                0x000c4604                rp_dma.c.b60d1813
                0x000c5a96                hal_pal_lld.c.cabc3557
                0x000c6f87                hal_spi_lld.c.bee7eea4
                0x000c8419                hal_st_lld.c.ec3ce55c
                0x000c9d7d                hal_sio_lld.c.1cea61c5
                0x000cb20f                hal_rtc_lld.c.d0e133d2
                0x000cc6a1                hal_wdg_lld.c.fb14ac47
                0x000cdb33                hal_i2c_lld.c.ff96313e
                0x000cefc5                hal_pwm_lld.c.b2e17e81
                0x000d0457                hal_adc_lld.c.486f7087
                0x000d18e9                hal_usb_lld.c.59850fc7
                0x000d47d9                board.c.e9171d66
                0x000d5c7b                chprintf.c.357747ed
                0x000d7575                chscanf.c.f9c31651
                0x000d8df9                memstreams.c.ed292e80
                0x000dadf4                nullstreams.c.84e16131
                0x000dc4c3                bufstreams.c.8488a8ab
                0x000de546                syscalls.c.e8ce088f
                0x000df9dc                syscall_fallbacks.c.2533bc88
                0x000e0872                wait.c.3b4dd040
                0x000e1d04                synchronization_util.c.e199c182
                0x000e247f                clocks.c.3f53510f
                0x000e2b9f                pll.c.e59fca51
                0x000e2e29                pio.c.f513228c
                0x000e3c2d                flash.c.f36a0c4d
                0x000e4320                gpio.c.1999ea8c
                0x000e4d74                claim.c.9dd320f9
                0x000e507e                watchdog.c.c4e13931
                0x000e5bd4                xosc.c.fcdec69d
                0x000e5d48                bootrom.c.db36fc41
                0x000e5ef9                stage2_bootloaders.c.d756db6a
                0x000e5f91                pico_sdk_shims.c.82543663
 .debug_info    0x000e672a    0x147fa /var/folders/x9/cy1bx1f960zd_7xhdrxmk_zm0000gn/T//cc8Nwo3z.ltrans0.ltrans.o
 .debug_info    0x000faf24      0xd33 /var/folders/x9/cy1bx1f960zd_7xhdrxmk_zm0000gn/T//cc8Nwo3z.ltrans1.ltrans.o

.debug_abbrev   0x00000000    0x16308
 .debug_abbrev  0x00000000    0x15d45 /var/folders/x9/cy1bx1f960zd_7xhdrxmk_zm0000gn/T//ccbHuJM1debugobj
 .debug_abbrev  0x00015d45      0x400 /var/folders/x9/cy1bx1f960zd_7xhdrxmk_zm0000gn/T//cc8Nwo3z.ltrans0.ltrans.o
 .debug_abbrev  0x00016145      0x1c3 /var/folders/x9/cy1bx1f960zd_7xhdrxmk_zm0000gn/T//cc8Nwo3z.ltrans1.ltrans.o

.debug_line     0x00000000    0x30dfb
 .debug_line    0x00000000    0x21c6f /var/folders/x9/cy1bx1f960zd_7xhdrxmk_zm0000gn/T//ccbHuJM1debugobj
 .debug_line    0x00021c6f     0xe82d /var/folders/x9/cy1bx1f960zd_7xhdrxmk_zm0000gn/T//cc8Nwo3z.ltrans0.ltrans.o
 .debug_line    0x0003049c      0x95f /var/folders/x9/cy1bx1f960zd_7xhdrxmk_zm0000gn/T//cc8Nwo3z.ltrans1.ltrans.o

.debug_str      0x00000000     0xde20
 .debug_str     0x00000000     0xde20 /var/folders/x9/cy1bx1f960zd_7xhdrxmk_zm0000gn/T//ccbHuJM1debugobj
                              0x9ec16 (size before relaxing)
 .debug_str     0x0000de20      0x1c0 /var/folders/x9/cy1bx1f960zd_7xhdrxmk_zm0000gn/T//cc8Nwo3z.ltrans0.ltrans.o
 .debug_str     0x0000de20      0x1b3 /var/folders/x9/cy1bx1f960zd_7xhdrxmk_zm0000gn/T//cc8Nwo3z.ltrans1.ltrans.o

.debug_loc      0x00000000    0x11765
 .debug_loc     0x00000000    0x10d67 /var/folders/x9/cy1bx1f960zd_7xhdrxmk_zm0000gn/T//cc8Nwo3z.ltrans0.ltrans.o
 .debug_loc     0x00010d67      0x9fe /var/folders/x9/cy1bx1f960zd_7xhdrxmk_zm0000gn/T//cc8Nwo3z.ltrans1.ltrans.o

.debug_aranges  0x00000000      0x828
 .debug_aranges
                0x00000000      0x7c8 /var/folders/x9/cy1bx1f960zd_7xhdrxmk_zm0000gn/T//cc8Nwo3z.ltrans0.ltrans.o
 .debug_aranges
                0x000007c8       0x60 /var/folders/x9/cy1bx1f960zd_7xhdrxmk_zm0000gn/T//cc8Nwo3z.ltrans1.ltrans.o

.debug_ranges   0x00000000     0x6720
 .debug_ranges  0x00000000     0x6240 /var/folders/x9/cy1bx1f960zd_7xhdrxmk_zm0000gn/T//cc8Nwo3z.ltrans0.ltrans.o
 .debug_ranges  0x00006240      0x4e0 /var/folders/x9/cy1bx1f960zd_7xhdrxmk_zm0000gn/T//cc8Nwo3z.ltrans1.ltrans.o

.comment        0x00000000       0x26
 .comment       0x00000000       0x26 /var/folders/x9/cy1bx1f960zd_7xhdrxmk_zm0000gn/T//cc8Nwo3z.ltrans0.ltrans.o
                                 0x27 (size before relaxing)
 .comment       0x00000026       0x27 /var/folders/x9/cy1bx1f960zd_7xhdrxmk_zm0000gn/T//cc8Nwo3z.ltrans1.ltrans.o

.ARM.attributes
                0x00000000       0x2a
 .ARM.attributes
                0x00000000       0x2a /var/folders/x9/cy1bx1f960zd_7xhdrxmk_zm0000gn/T//cc8Nwo3z.ltrans0.ltrans.o
 .ARM.attributes
                0x0000002a       0x2a /var/folders/x9/cy1bx1f960zd_7xhdrxmk_zm0000gn/T//cc8Nwo3z.ltrans1.ltrans.o
 .ARM.attributes
                0x00000054       0x21 .build/obj_converter_cumulus_ta15_vial/./lib/chibios/os/common/startup/ARMCMx/compilers/GCC/crt0_v6m.o
 .ARM.attributes
                0x00000075       0x21 .build/obj_converter_cumulus_ta15_vial/./lib/chibios/os/common/startup/ARMCMx/compilers/GCC/vectors.o
 .ARM.attributes
                0x00000096       0x21 .build/obj_converter_cumulus_ta15_vial/./lib/chibios/os/common/ports/ARMv6-M-RP2/compilers/GCC/chcoreasm.o
 .ARM.attributes
                0x000000b7       0x2c /usr/local/Cellar/arm-none-eabi-gcc@8/8.5.0_2/lib/arm-none-eabi-gcc/8/gcc/arm-none-eabi/8.5.0/../../../../../../arm-none-eabi/lib/thumb/v6-m/nofp/libg_nano.a(lib_a-ctype_.o)
 .ARM.attributes
                0x000000e3       0x2c /usr/local/Cellar/arm-none-eabi-gcc@8/8.5.0_2/lib/arm-none-eabi-gcc/8/gcc/arm-none-eabi/8.5.0/../../../../../../arm-none-eabi/lib/thumb/v6-m/nofp/libg_nano.a(lib_a-memcpy-stub.o)
 .ARM.attributes
                0x0000010f       0x2c /usr/local/Cellar/arm-none-eabi-gcc@8/8.5.0_2/lib/arm-none-eabi-gcc/8/gcc/arm-none-eabi/8.5.0/../../../../../../arm-none-eabi/lib/thumb/v6-m/nofp/libg_nano.a(lib_a-memset.o)
 .ARM.attributes
                0x0000013b       0x2c /usr/local/Cellar/arm-none-eabi-gcc@8/8.5.0_2/lib/arm-none-eabi-gcc/8/gcc/arm-none-eabi/8.5.0/../../../../../../arm-none-eabi/lib/thumb/v6-m/nofp/libg_nano.a(lib_a-memcmp.o)
 .ARM.attributes
                0x00000167       0x1e /usr/local/Cellar/arm-none-eabi-gcc@8/8.5.0_2/lib/arm-none-eabi-gcc/8/gcc/arm-none-eabi/8.5.0/thumb/v6-m/nofp/libgcc.a(_udivsi3.o)
 .ARM.attributes
                0x00000185       0x1e /usr/local/Cellar/arm-none-eabi-gcc@8/8.5.0_2/lib/arm-none-eabi-gcc/8/gcc/arm-none-eabi/8.5.0/thumb/v6-m/nofp/libgcc.a(_divsi3.o)
 .ARM.attributes
                0x000001a3       0x1e /usr/local/Cellar/arm-none-eabi-gcc@8/8.5.0_2/lib/arm-none-eabi-gcc/8/gcc/arm-none-eabi/8.5.0/thumb/v6-m/nofp/libgcc.a(_dvmd_tls.o)
 .ARM.attributes
                0x000001c1       0x2c /usr/local/Cellar/arm-none-eabi-gcc@8/8.5.0_2/lib/arm-none-eabi-gcc/8/gcc/arm-none-eabi/8.5.0/thumb/v6-m/nofp/libgcc.a(_muldi3.o)
 .ARM.attributes
                0x000001ed       0x1e /usr/local/Cellar/arm-none-eabi-gcc@8/8.5.0_2/lib/arm-none-eabi-gcc/8/gcc/arm-none-eabi/8.5.0/thumb/v6-m/nofp/libgcc.a(_thumb1_case_sqi.o)
 .ARM.attributes
                0x0000020b       0x1e /usr/local/Cellar/arm-none-eabi-gcc@8/8.5.0_2/lib/arm-none-eabi-gcc/8/gcc/arm-none-eabi/8.5.0/thumb/v6-m/nofp/libgcc.a(_thumb1_case_uqi.o)
 .ARM.attributes
                0x00000229       0x1e /usr/local/Cellar/arm-none-eabi-gcc@8/8.5.0_2/lib/arm-none-eabi-gcc/8/gcc/arm-none-eabi/8.5.0/thumb/v6-m/nofp/libgcc.a(_thumb1_case_shi.o)
 .ARM.attributes
                0x00000247       0x1e /usr/local/Cellar/arm-none-eabi-gcc@8/8.5.0_2/lib/arm-none-eabi-gcc/8/gcc/arm-none-eabi/8.5.0/thumb/v6-m/nofp/libgcc.a(_thumb1_case_uhi.o)
 .ARM.attributes
                0x00000265       0x1e /usr/local/Cellar/arm-none-eabi-gcc@8/8.5.0_2/lib/arm-none-eabi-gcc/8/gcc/arm-none-eabi/8.5.0/thumb/v6-m/nofp/libgcc.a(_aeabi_uldivmod.o)
 .ARM.attributes
                0x00000283       0x2c /usr/local/Cellar/arm-none-eabi-gcc@8/8.5.0_2/lib/arm-none-eabi-gcc/8/gcc/arm-none-eabi/8.5.0/thumb/v6-m/nofp/libgcc.a(_udivmoddi4.o)
 .ARM.attributes
                0x000002af       0x1e /usr/local/Cellar/arm-none-eabi-gcc@8/8.5.0_2/lib/arm-none-eabi-gcc/8/gcc/arm-none-eabi/8.5.0/thumb/v6-m/nofp/libgcc.a(_clzdi2.o)
 .ARM.attributes
                0x000002cd       0x1e /usr/local/Cellar/arm-none-eabi-gcc@8/8.5.0_2/lib/arm-none-eabi-gcc/8/gcc/arm-none-eabi/8.5.0/thumb/v6-m/nofp/libgcc.a(_clzsi2.o)

.debug_frame    0x00000000     0x1b3c
 .debug_frame   0x00000000     0x190c /var/folders/x9/cy1bx1f960zd_7xhdrxmk_zm0000gn/T//cc8Nwo3z.ltrans0.ltrans.o
 .debug_frame   0x0000190c       0xf0 /var/folders/x9/cy1bx1f960zd_7xhdrxmk_zm0000gn/T//cc8Nwo3z.ltrans1.ltrans.o
 .debug_frame   0x000019fc       0x34 /usr/local/Cellar/arm-none-eabi-gcc@8/8.5.0_2/lib/arm-none-eabi-gcc/8/gcc/arm-none-eabi/8.5.0/../../../../../../arm-none-eabi/lib/thumb/v6-m/nofp/libg_nano.a(lib_a-memcpy-stub.o)
 .debug_frame   0x00001a30       0x30 /usr/local/Cellar/arm-none-eabi-gcc@8/8.5.0_2/lib/arm-none-eabi-gcc/8/gcc/arm-none-eabi/8.5.0/../../../../../../arm-none-eabi/lib/thumb/v6-m/nofp/libg_nano.a(lib_a-memset.o)
 .debug_frame   0x00001a60       0x2c /usr/local/Cellar/arm-none-eabi-gcc@8/8.5.0_2/lib/arm-none-eabi-gcc/8/gcc/arm-none-eabi/8.5.0/../../../../../../arm-none-eabi/lib/thumb/v6-m/nofp/libg_nano.a(lib_a-memcmp.o)
 .debug_frame   0x00001a8c       0x20 /usr/local/Cellar/arm-none-eabi-gcc@8/8.5.0_2/lib/arm-none-eabi-gcc/8/gcc/arm-none-eabi/8.5.0/thumb/v6-m/nofp/libgcc.a(_udivsi3.o)
 .debug_frame   0x00001aac       0x20 /usr/local/Cellar/arm-none-eabi-gcc@8/8.5.0_2/lib/arm-none-eabi-gcc/8/gcc/arm-none-eabi/8.5.0/thumb/v6-m/nofp/libgcc.a(_divsi3.o)
 .debug_frame   0x00001acc       0x34 /usr/local/Cellar/arm-none-eabi-gcc@8/8.5.0_2/lib/arm-none-eabi-gcc/8/gcc/arm-none-eabi/8.5.0/thumb/v6-m/nofp/libgcc.a(_muldi3.o)
 .debug_frame   0x00001b00       0x3c /usr/local/Cellar/arm-none-eabi-gcc@8/8.5.0_2/lib/arm-none-eabi-gcc/8/gcc/arm-none-eabi/8.5.0/thumb/v6-m/nofp/libgcc.a(_udivmoddi4.o)

Cross Reference Table

Symbol                                            File
BOOT2_ROM                                         /var/folders/x9/cy1bx1f960zd_7xhdrxmk_zm0000gn/T//cc8Nwo3z.ltrans0.ltrans.o
                                                  .build/obj_converter_cumulus_ta15/platforms/chibios/vendors/RP/stage2_bootloaders.o (symbol from plugin)
                                                  .build/obj_converter_cumulus_ta15_vial/wear_leveling_rp2040_flash.o (symbol from plugin)
BusFault_Handler                                  .build/obj_converter_cumulus_ta15_vial/./lib/chibios/os/common/startup/ARMCMx/compilers/GCC/vectors.o
COMBO_LEN                                         /var/folders/x9/cy1bx1f960zd_7xhdrxmk_zm0000gn/T//cc8Nwo3z.ltrans0.ltrans.o
                                                  .build/obj_converter_cumulus_ta15_vial/quantum/process_keycode/process_combo.o (symbol from plugin)
ConfigurationDescriptor                           .build/obj_converter_cumulus_ta15_vial/usb_descriptor.o (symbol from plugin)
ConsoleReport                                     .build/obj_converter_cumulus_ta15_vial/usb_descriptor.o (symbol from plugin)
DebugMon_Handler                                  .build/obj_converter_cumulus_ta15_vial/./lib/chibios/os/common/startup/ARMCMx/compilers/GCC/vectors.o
DeviceDescriptor                                  .build/obj_converter_cumulus_ta15_vial/usb_descriptor.o (symbol from plugin)
HardFault_Handler                                 .build/obj_converter_cumulus_ta15_vial/./lib/chibios/os/common/startup/ARMCMx/compilers/GCC/vectors.o
KeyboardReport                                    .build/obj_converter_cumulus_ta15_vial/usb_descriptor.o (symbol from plugin)
LanguageString                                    .build/obj_converter_cumulus_ta15_vial/usb_descriptor.o (symbol from plugin)
ManufacturerString                                .build/obj_converter_cumulus_ta15_vial/usb_descriptor.o (symbol from plugin)
MemManage_Handler                                 .build/obj_converter_cumulus_ta15_vial/./lib/chibios/os/common/startup/ARMCMx/compilers/GCC/vectors.o
NMI_Handler                                       /var/folders/x9/cy1bx1f960zd_7xhdrxmk_zm0000gn/T//cc8Nwo3z.ltrans0.ltrans.o
                                                  .build/obj_converter_cumulus_ta15/lib/chibios/os/common/ports/ARMv6-M-RP2/chcore.o (symbol from plugin)
                                                  .build/obj_converter_cumulus_ta15_vial/./lib/chibios/os/common/startup/ARMCMx/compilers/GCC/vectors.o
PendSV_Handler                                    .build/obj_converter_cumulus_ta15_vial/./lib/chibios/os/common/startup/ARMCMx/compilers/GCC/vectors.o
ProductString                                     .build/obj_converter_cumulus_ta15_vial/usb_descriptor.o (symbol from plugin)
QS                                                /var/folders/x9/cy1bx1f960zd_7xhdrxmk_zm0000gn/T//cc8Nwo3z.ltrans0.ltrans.o
                                                  .build/obj_converter_cumulus_ta15_vial/quantum/qmk_settings.o (symbol from plugin)
                                                  /var/folders/x9/cy1bx1f960zd_7xhdrxmk_zm0000gn/T//cc8Nwo3z.ltrans1.ltrans.o
                                                  .build/obj_converter_cumulus_ta15_vial/quantum/process_keycode/process_grave_esc.o (symbol from plugin)
                                                  .build/obj_converter_cumulus_ta15_vial/quantum/process_keycode/process_auto_shift.o (symbol from plugin)
                                                  .build/obj_converter_cumulus_ta15_vial/quantum/vial.o (symbol from plugin)
                                                  .build/obj_converter_cumulus_ta15_vial/quantum/mousekey.o (symbol from plugin)
                                                  .build/obj_converter_cumulus_ta15_vial/quantum/action_util.o (symbol from plugin)
                                                  .build/obj_converter_cumulus_ta15_vial/quantum/action.o (symbol from plugin)
                                                  .build/obj_converter_cumulus_ta15_vial/quantum/quantum.o (symbol from plugin)
RawReport                                         .build/obj_converter_cumulus_ta15_vial/usb_descriptor.o (symbol from plugin)
Reset_Handler                                     .build/obj_converter_cumulus_ta15_vial/./lib/chibios/os/common/startup/ARMCMx/compilers/GCC/vectors.o
SVC_Handler                                       .build/obj_converter_cumulus_ta15_vial/./lib/chibios/os/common/startup/ARMCMx/compilers/GCC/vectors.o
SecureFault_Handler                               .build/obj_converter_cumulus_ta15_vial/./lib/chibios/os/common/startup/ARMCMx/compilers/GCC/vectors.o
SerialNumberString                                .build/obj_converter_cumulus_ta15_vial/usb_descriptor.o (symbol from plugin)
SharedReport                                      .build/obj_converter_cumulus_ta15_vial/usb_descriptor.o (symbol from plugin)
SysTick_Handler                                   /var/folders/x9/cy1bx1f960zd_7xhdrxmk_zm0000gn/T//cc8Nwo3z.ltrans0.ltrans.o
                                                  .build/obj_converter_cumulus_ta15/lib/chibios/os/hal/ports/RP/LLD/TIMERv1/hal_st_lld.o (symbol from plugin)
                                                  .build/obj_converter_cumulus_ta15_vial/./lib/chibios/os/common/startup/ARMCMx/compilers/GCC/vectors.o
SystemCoreClock                                   .build/obj_converter_cumulus_ta15/lib/chibios/os/hal/ports/RP/RP2040/hal_lld.o (symbol from plugin)
USBD1                                             .build/obj_converter_cumulus_ta15/lib/chibios-contrib/os/hal/ports/RP/LLD/USBDv1/hal_usb_lld.o (symbol from plugin)
                                                  .build/obj_converter_cumulus_ta15_vial/protocol/chibios/usb_util.o (symbol from plugin)
                                                  .build/obj_converter_cumulus_ta15_vial/protocol/chibios/chibios.o (symbol from plugin)
                                                  .build/obj_converter_cumulus_ta15_vial/protocol/chibios/usb_main.o (symbol from plugin)
UsageFault_Handler                                .build/obj_converter_cumulus_ta15_vial/./lib/chibios/os/common/startup/ARMCMx/compilers/GCC/vectors.o
Vector20                                          .build/obj_converter_cumulus_ta15_vial/./lib/chibios/os/common/startup/ARMCMx/compilers/GCC/vectors.o
Vector24                                          .build/obj_converter_cumulus_ta15_vial/./lib/chibios/os/common/startup/ARMCMx/compilers/GCC/vectors.o
Vector28                                          .build/obj_converter_cumulus_ta15_vial/./lib/chibios/os/common/startup/ARMCMx/compilers/GCC/vectors.o
Vector34                                          .build/obj_converter_cumulus_ta15_vial/./lib/chibios/os/common/startup/ARMCMx/compilers/GCC/vectors.o
Vector40                                          .build/obj_converter_cumulus_ta15_vial/./lib/chibios/os/common/startup/ARMCMx/compilers/GCC/vectors.o
Vector44                                          .build/obj_converter_cumulus_ta15_vial/./lib/chibios/os/common/startup/ARMCMx/compilers/GCC/vectors.o
Vector48                                          .build/obj_converter_cumulus_ta15_vial/./lib/chibios/os/common/startup/ARMCMx/compilers/GCC/vectors.o
Vector4C                                          .build/obj_converter_cumulus_ta15_vial/./lib/chibios/os/common/startup/ARMCMx/compilers/GCC/vectors.o
Vector50                                          .build/obj_converter_cumulus_ta15_vial/./lib/chibios/os/common/startup/ARMCMx/compilers/GCC/vectors.o
Vector54                                          /var/folders/x9/cy1bx1f960zd_7xhdrxmk_zm0000gn/T//cc8Nwo3z.ltrans0.ltrans.o
                                                  .build/obj_converter_cumulus_ta15/lib/chibios-contrib/os/hal/ports/RP/LLD/USBDv1/hal_usb_lld.o (symbol from plugin)
                                                  .build/obj_converter_cumulus_ta15_vial/./lib/chibios/os/common/startup/ARMCMx/compilers/GCC/vectors.o
Vector58                                          .build/obj_converter_cumulus_ta15_vial/./lib/chibios/os/common/startup/ARMCMx/compilers/GCC/vectors.o
Vector5C                                          .build/obj_converter_cumulus_ta15_vial/./lib/chibios/os/common/startup/ARMCMx/compilers/GCC/vectors.o
Vector60                                          .build/obj_converter_cumulus_ta15_vial/./lib/chibios/os/common/startup/ARMCMx/compilers/GCC/vectors.o
Vector64                                          .build/obj_converter_cumulus_ta15_vial/./lib/chibios/os/common/startup/ARMCMx/compilers/GCC/vectors.o
Vector68                                          .build/obj_converter_cumulus_ta15_vial/./lib/chibios/os/common/startup/ARMCMx/compilers/GCC/vectors.o
Vector6C                                          .build/obj_converter_cumulus_ta15_vial/./lib/chibios/os/common/startup/ARMCMx/compilers/GCC/vectors.o
Vector70                                          .build/obj_converter_cumulus_ta15_vial/./lib/chibios/os/common/startup/ARMCMx/compilers/GCC/vectors.o
Vector74                                          .build/obj_converter_cumulus_ta15_vial/./lib/chibios/os/common/startup/ARMCMx/compilers/GCC/vectors.o
Vector78                                          .build/obj_converter_cumulus_ta15_vial/./lib/chibios/os/common/startup/ARMCMx/compilers/GCC/vectors.o
Vector7C                                          /var/folders/x9/cy1bx1f960zd_7xhdrxmk_zm0000gn/T//cc8Nwo3z.ltrans0.ltrans.o
                                                  .build/obj_converter_cumulus_ta15/lib/chibios/os/common/ports/ARMv6-M-RP2/chcore.o (symbol from plugin)
                                                  .build/obj_converter_cumulus_ta15_vial/./lib/chibios/os/common/startup/ARMCMx/compilers/GCC/vectors.o
Vector80                                          /var/folders/x9/cy1bx1f960zd_7xhdrxmk_zm0000gn/T//cc8Nwo3z.ltrans0.ltrans.o
                                                  .build/obj_converter_cumulus_ta15/lib/chibios/os/common/ports/ARMv6-M-RP2/chcore.o (symbol from plugin)
                                                  .build/obj_converter_cumulus_ta15_vial/./lib/chibios/os/common/startup/ARMCMx/compilers/GCC/vectors.o
Vector84                                          .build/obj_converter_cumulus_ta15_vial/./lib/chibios/os/common/startup/ARMCMx/compilers/GCC/vectors.o
Vector88                                          .build/obj_converter_cumulus_ta15_vial/./lib/chibios/os/common/startup/ARMCMx/compilers/GCC/vectors.o
Vector8C                                          .build/obj_converter_cumulus_ta15_vial/./lib/chibios/os/common/startup/ARMCMx/compilers/GCC/vectors.o
Vector90                                          .build/obj_converter_cumulus_ta15_vial/./lib/chibios/os/common/startup/ARMCMx/compilers/GCC/vectors.o
Vector94                                          .build/obj_converter_cumulus_ta15_vial/./lib/chibios/os/common/startup/ARMCMx/compilers/GCC/vectors.o
Vector98                                          .build/obj_converter_cumulus_ta15_vial/./lib/chibios/os/common/startup/ARMCMx/compilers/GCC/vectors.o
Vector9C                                          .build/obj_converter_cumulus_ta15_vial/./lib/chibios/os/common/startup/ARMCMx/compilers/GCC/vectors.o
VectorA0                                          .build/obj_converter_cumulus_ta15_vial/./lib/chibios/os/common/startup/ARMCMx/compilers/GCC/vectors.o
VectorA4                                          .build/obj_converter_cumulus_ta15_vial/./lib/chibios/os/common/startup/ARMCMx/compilers/GCC/vectors.o
VectorA8                                          .build/obj_converter_cumulus_ta15_vial/./lib/chibios/os/common/startup/ARMCMx/compilers/GCC/vectors.o
VectorAC                                          .build/obj_converter_cumulus_ta15_vial/./lib/chibios/os/common/startup/ARMCMx/compilers/GCC/vectors.o
VectorB0                                          .build/obj_converter_cumulus_ta15_vial/./lib/chibios/os/common/startup/ARMCMx/compilers/GCC/vectors.o
VectorB4                                          .build/obj_converter_cumulus_ta15_vial/./lib/chibios/os/common/startup/ARMCMx/compilers/GCC/vectors.o
VectorB8                                          .build/obj_converter_cumulus_ta15_vial/./lib/chibios/os/common/startup/ARMCMx/compilers/GCC/vectors.o
VectorBC                                          .build/obj_converter_cumulus_ta15_vial/./lib/chibios/os/common/startup/ARMCMx/compilers/GCC/vectors.o
__aeabi_idiv                                      /usr/local/Cellar/arm-none-eabi-gcc@8/8.5.0_2/lib/arm-none-eabi-gcc/8/gcc/arm-none-eabi/8.5.0/thumb/v6-m/nofp/libgcc.a(_divsi3.o)
                                                  /var/folders/x9/cy1bx1f960zd_7xhdrxmk_zm0000gn/T//cc8Nwo3z.ltrans0.ltrans.o
                                                  /usr/local/Cellar/arm-none-eabi-gcc@8/8.5.0_2/lib/arm-none-eabi-gcc/8/gcc/arm-none-eabi/8.5.0/../../../../../../arm-none-eabi/lib/thumb/v6-m/nofp/libg_nano.a(lib_a-fvwrite.o)
__aeabi_idiv0                                     /usr/local/Cellar/arm-none-eabi-gcc@8/8.5.0_2/lib/arm-none-eabi-gcc/8/gcc/arm-none-eabi/8.5.0/thumb/v6-m/nofp/libgcc.a(_dvmd_tls.o)
                                                  /usr/local/Cellar/arm-none-eabi-gcc@8/8.5.0_2/lib/arm-none-eabi-gcc/8/gcc/arm-none-eabi/8.5.0/thumb/v6-m/nofp/libgcc.a(_divsi3.o)
                                                  /usr/local/Cellar/arm-none-eabi-gcc@8/8.5.0_2/lib/arm-none-eabi-gcc/8/gcc/arm-none-eabi/8.5.0/thumb/v6-m/nofp/libgcc.a(_udivsi3.o)
__aeabi_idivmod                                   /usr/local/Cellar/arm-none-eabi-gcc@8/8.5.0_2/lib/arm-none-eabi-gcc/8/gcc/arm-none-eabi/8.5.0/thumb/v6-m/nofp/libgcc.a(_divsi3.o)
                                                  /var/folders/x9/cy1bx1f960zd_7xhdrxmk_zm0000gn/T//cc8Nwo3z.ltrans0.ltrans.o
__aeabi_ldiv0                                     /usr/local/Cellar/arm-none-eabi-gcc@8/8.5.0_2/lib/arm-none-eabi-gcc/8/gcc/arm-none-eabi/8.5.0/thumb/v6-m/nofp/libgcc.a(_dvmd_tls.o)
                                                  /usr/local/Cellar/arm-none-eabi-gcc@8/8.5.0_2/lib/arm-none-eabi-gcc/8/gcc/arm-none-eabi/8.5.0/thumb/v6-m/nofp/libgcc.a(_aeabi_uldivmod.o)
                                                  /usr/local/Cellar/arm-none-eabi-gcc@8/8.5.0_2/lib/arm-none-eabi-gcc/8/gcc/arm-none-eabi/8.5.0/thumb/v6-m/nofp/libgcc.a(_aeabi_ldivmod.o)
__aeabi_ldivmod                                   /usr/local/Cellar/arm-none-eabi-gcc@8/8.5.0_2/lib/arm-none-eabi-gcc/8/gcc/arm-none-eabi/8.5.0/thumb/v6-m/nofp/libgcc.a(_aeabi_ldivmod.o)
                                                  /var/folders/x9/cy1bx1f960zd_7xhdrxmk_zm0000gn/T//cc8Nwo3z.ltrans0.ltrans.o
__aeabi_lmul                                      /usr/local/Cellar/arm-none-eabi-gcc@8/8.5.0_2/lib/arm-none-eabi-gcc/8/gcc/arm-none-eabi/8.5.0/thumb/v6-m/nofp/libgcc.a(_muldi3.o)
                                                  /usr/local/Cellar/arm-none-eabi-gcc@8/8.5.0_2/lib/arm-none-eabi-gcc/8/gcc/arm-none-eabi/8.5.0/thumb/v6-m/nofp/libgcc.a(bpabi.o)
                                                  /var/folders/x9/cy1bx1f960zd_7xhdrxmk_zm0000gn/T//cc8Nwo3z.ltrans0.ltrans.o
                                                  /usr/local/Cellar/arm-none-eabi-gcc@8/8.5.0_2/lib/arm-none-eabi-gcc/8/gcc/arm-none-eabi/8.5.0/../../../../../../arm-none-eabi/lib/thumb/v6-m/nofp/libg_nano.a(lib_a-rand.o)
__aeabi_uidiv                                     /usr/local/Cellar/arm-none-eabi-gcc@8/8.5.0_2/lib/arm-none-eabi-gcc/8/gcc/arm-none-eabi/8.5.0/thumb/v6-m/nofp/libgcc.a(_udivsi3.o)
                                                  /var/folders/x9/cy1bx1f960zd_7xhdrxmk_zm0000gn/T//cc8Nwo3z.ltrans0.ltrans.o
__aeabi_uidivmod                                  /usr/local/Cellar/arm-none-eabi-gcc@8/8.5.0_2/lib/arm-none-eabi-gcc/8/gcc/arm-none-eabi/8.5.0/thumb/v6-m/nofp/libgcc.a(_udivsi3.o)
                                                  /var/folders/x9/cy1bx1f960zd_7xhdrxmk_zm0000gn/T//cc8Nwo3z.ltrans0.ltrans.o
                                                  /usr/local/Cellar/arm-none-eabi-gcc@8/8.5.0_2/lib/arm-none-eabi-gcc/8/gcc/arm-none-eabi/8.5.0/../../../../../../arm-none-eabi/lib/thumb/v6-m/nofp/libg_nano.a(lib_a-nano-vfprintf_i.o)
__aeabi_uldivmod                                  /usr/local/Cellar/arm-none-eabi-gcc@8/8.5.0_2/lib/arm-none-eabi-gcc/8/gcc/arm-none-eabi/8.5.0/thumb/v6-m/nofp/libgcc.a(_aeabi_uldivmod.o)
                                                  /var/folders/x9/cy1bx1f960zd_7xhdrxmk_zm0000gn/T//cc8Nwo3z.ltrans0.ltrans.o
__assert                                          /usr/local/Cellar/arm-none-eabi-gcc@8/8.5.0_2/lib/arm-none-eabi-gcc/8/gcc/arm-none-eabi/8.5.0/../../../../../../arm-none-eabi/lib/thumb/v6-m/nofp/libg_nano.a(lib_a-assert.o)
__assert_func                                     /usr/local/Cellar/arm-none-eabi-gcc@8/8.5.0_2/lib/arm-none-eabi-gcc/8/gcc/arm-none-eabi/8.5.0/../../../../../../arm-none-eabi/lib/thumb/v6-m/nofp/libg_nano.a(lib_a-assert.o)
                                                  /usr/local/Cellar/arm-none-eabi-gcc@8/8.5.0_2/lib/arm-none-eabi-gcc/8/gcc/arm-none-eabi/8.5.0/../../../../../../arm-none-eabi/lib/thumb/v6-m/nofp/libg_nano.a(lib_a-rand.o)
__bss_base__                                      .build/obj_converter_cumulus_ta15_vial/./lib/chibios/os/common/startup/ARMCMx/compilers/GCC/crt0_v6m.o
__bss_end__                                       .build/obj_converter_cumulus_ta15_vial/./lib/chibios/os/common/startup/ARMCMx/compilers/GCC/crt0_v6m.o
__chibios_override___early_init                   .build/obj_converter_cumulus_ta15/lib/chibios/os/hal/boards/RP_PICO_RP2040/board.o (symbol from plugin)
                                                  .build/obj_converter_cumulus_ta15_vial/protocol/chibios/chibios.o (symbol from plugin)
__chibios_override_boardInit                      .build/obj_converter_cumulus_ta15/lib/chibios/os/hal/boards/RP_PICO_RP2040/board.o (symbol from plugin)
                                                  .build/obj_converter_cumulus_ta15_vial/protocol/chibios/chibios.o (symbol from plugin)
__clzdi2                                          /usr/local/Cellar/arm-none-eabi-gcc@8/8.5.0_2/lib/arm-none-eabi-gcc/8/gcc/arm-none-eabi/8.5.0/thumb/v6-m/nofp/libgcc.a(_clzdi2.o)
                                                  /usr/local/Cellar/arm-none-eabi-gcc@8/8.5.0_2/lib/arm-none-eabi-gcc/8/gcc/arm-none-eabi/8.5.0/thumb/v6-m/nofp/libgcc.a(_divdi3.o)
                                                  /usr/local/Cellar/arm-none-eabi-gcc@8/8.5.0_2/lib/arm-none-eabi-gcc/8/gcc/arm-none-eabi/8.5.0/thumb/v6-m/nofp/libgcc.a(_udivmoddi4.o)
__clzsi2                                          /usr/local/Cellar/arm-none-eabi-gcc@8/8.5.0_2/lib/arm-none-eabi-gcc/8/gcc/arm-none-eabi/8.5.0/thumb/v6-m/nofp/libgcc.a(_clzsi2.o)
                                                  /usr/local/Cellar/arm-none-eabi-gcc@8/8.5.0_2/lib/arm-none-eabi-gcc/8/gcc/arm-none-eabi/8.5.0/thumb/v6-m/nofp/libgcc.a(_clzdi2.o)
__core_init                                       .build/obj_converter_cumulus_ta15_vial/./lib/chibios/os/oslib/src/chmemcore.o (symbol from plugin)
                                                  .build/obj_converter_cumulus_ta15/lib/chibios/os/rt/src/chsys.o (symbol from plugin)
__cpu_init                                        /var/folders/x9/cy1bx1f960zd_7xhdrxmk_zm0000gn/T//cc8Nwo3z.ltrans0.ltrans.o
                                                  .build/obj_converter_cumulus_ta15/lib/chibios/os/common/startup/ARMCMx/compilers/GCC/crt1.o (symbol from plugin)
                                                  .build/obj_converter_cumulus_ta15_vial/./lib/chibios/os/common/startup/ARMCMx/compilers/GCC/crt0_v6m.o
__cxa_pure_virtual                                .build/obj_converter_cumulus_ta15/lib/chibios/os/various/syscalls.o (symbol from plugin)
__data_base__                                     .build/obj_converter_cumulus_ta15_vial/./lib/chibios/os/common/startup/ARMCMx/compilers/GCC/crt0_v6m.o
__data_end__                                      .build/obj_converter_cumulus_ta15_vial/./lib/chibios/os/common/startup/ARMCMx/compilers/GCC/crt0_v6m.o
__default_exit                                    /var/folders/x9/cy1bx1f960zd_7xhdrxmk_zm0000gn/T//cc8Nwo3z.ltrans0.ltrans.o
                                                  .build/obj_converter_cumulus_ta15/lib/chibios/os/common/startup/ARMCMx/compilers/GCC/crt1.o (symbol from plugin)
                                                  .build/obj_converter_cumulus_ta15_vial/./lib/chibios/os/common/startup/ARMCMx/compilers/GCC/crt0_v6m.o
__divdi3                                          /usr/local/Cellar/arm-none-eabi-gcc@8/8.5.0_2/lib/arm-none-eabi-gcc/8/gcc/arm-none-eabi/8.5.0/thumb/v6-m/nofp/libgcc.a(_divdi3.o)
                                                  /usr/local/Cellar/arm-none-eabi-gcc@8/8.5.0_2/lib/arm-none-eabi-gcc/8/gcc/arm-none-eabi/8.5.0/thumb/v6-m/nofp/libgcc.a(bpabi.o)
__divsi3                                          /usr/local/Cellar/arm-none-eabi-gcc@8/8.5.0_2/lib/arm-none-eabi-gcc/8/gcc/arm-none-eabi/8.5.0/thumb/v6-m/nofp/libgcc.a(_divsi3.o)
__dso_handle                                      /var/folders/x9/cy1bx1f960zd_7xhdrxmk_zm0000gn/T//cc8Nwo3z.ltrans1.ltrans.o
                                                  .build/obj_converter_cumulus_ta15/platforms/chibios/syscall-fallbacks.o (symbol from plugin)
__early_init                                      /var/folders/x9/cy1bx1f960zd_7xhdrxmk_zm0000gn/T//cc8Nwo3z.ltrans0.ltrans.o
                                                  .build/obj_converter_cumulus_ta15_vial/protocol/chibios/chibios.o (symbol from plugin)
                                                  .build/obj_converter_cumulus_ta15_vial/./lib/chibios/os/common/startup/ARMCMx/compilers/GCC/crt0_v6m.o
__errno                                           /usr/local/Cellar/arm-none-eabi-gcc@8/8.5.0_2/lib/arm-none-eabi-gcc/8/gcc/arm-none-eabi/8.5.0/../../../../../../arm-none-eabi/lib/thumb/v6-m/nofp/libg_nano.a(lib_a-errno.o)
                                                  .build/obj_converter_cumulus_ta15/platforms/chibios/syscall-fallbacks.o (symbol from plugin)
__fini_array_base__                               .build/obj_converter_cumulus_ta15_vial/./lib/chibios/os/common/startup/ARMCMx/compilers/GCC/crt0_v6m.o
__fini_array_end__                                .build/obj_converter_cumulus_ta15_vial/./lib/chibios/os/common/startup/ARMCMx/compilers/GCC/crt0_v6m.o
__fp_lock_all                                     /usr/local/Cellar/arm-none-eabi-gcc@8/8.5.0_2/lib/arm-none-eabi-gcc/8/gcc/arm-none-eabi/8.5.0/../../../../../../arm-none-eabi/lib/thumb/v6-m/nofp/libg_nano.a(lib_a-findfp.o)
__fp_unlock_all                                   /usr/local/Cellar/arm-none-eabi-gcc@8/8.5.0_2/lib/arm-none-eabi-gcc/8/gcc/arm-none-eabi/8.5.0/../../../../../../arm-none-eabi/lib/thumb/v6-m/nofp/libg_nano.a(lib_a-findfp.o)
__gnu_ldivmod_helper                              /usr/local/Cellar/arm-none-eabi-gcc@8/8.5.0_2/lib/arm-none-eabi-gcc/8/gcc/arm-none-eabi/8.5.0/thumb/v6-m/nofp/libgcc.a(bpabi.o)
                                                  /usr/local/Cellar/arm-none-eabi-gcc@8/8.5.0_2/lib/arm-none-eabi-gcc/8/gcc/arm-none-eabi/8.5.0/thumb/v6-m/nofp/libgcc.a(_aeabi_ldivmod.o)
__gnu_thumb1_case_shi                             /usr/local/Cellar/arm-none-eabi-gcc@8/8.5.0_2/lib/arm-none-eabi-gcc/8/gcc/arm-none-eabi/8.5.0/thumb/v6-m/nofp/libgcc.a(_thumb1_case_shi.o)
                                                  /var/folders/x9/cy1bx1f960zd_7xhdrxmk_zm0000gn/T//cc8Nwo3z.ltrans0.ltrans.o
__gnu_thumb1_case_sqi                             /usr/local/Cellar/arm-none-eabi-gcc@8/8.5.0_2/lib/arm-none-eabi-gcc/8/gcc/arm-none-eabi/8.5.0/thumb/v6-m/nofp/libgcc.a(_thumb1_case_sqi.o)
                                                  /var/folders/x9/cy1bx1f960zd_7xhdrxmk_zm0000gn/T//cc8Nwo3z.ltrans0.ltrans.o
__gnu_thumb1_case_uhi                             /usr/local/Cellar/arm-none-eabi-gcc@8/8.5.0_2/lib/arm-none-eabi-gcc/8/gcc/arm-none-eabi/8.5.0/thumb/v6-m/nofp/libgcc.a(_thumb1_case_uhi.o)
                                                  /var/folders/x9/cy1bx1f960zd_7xhdrxmk_zm0000gn/T//cc8Nwo3z.ltrans0.ltrans.o
__gnu_thumb1_case_uqi                             /usr/local/Cellar/arm-none-eabi-gcc@8/8.5.0_2/lib/arm-none-eabi-gcc/8/gcc/arm-none-eabi/8.5.0/thumb/v6-m/nofp/libgcc.a(_thumb1_case_uqi.o)
                                                  /var/folders/x9/cy1bx1f960zd_7xhdrxmk_zm0000gn/T//cc8Nwo3z.ltrans0.ltrans.o
__heap_base__                                     /var/folders/x9/cy1bx1f960zd_7xhdrxmk_zm0000gn/T//cc8Nwo3z.ltrans0.ltrans.o
                                                  .build/obj_converter_cumulus_ta15_vial/./lib/chibios/os/oslib/src/chmemcore.o (symbol from plugin)
__heap_end__                                      /var/folders/x9/cy1bx1f960zd_7xhdrxmk_zm0000gn/T//cc8Nwo3z.ltrans0.ltrans.o
                                                  .build/obj_converter_cumulus_ta15_vial/./lib/chibios/os/oslib/src/chmemcore.o (symbol from plugin)
__init_array_base__                               .build/obj_converter_cumulus_ta15_vial/./lib/chibios/os/common/startup/ARMCMx/compilers/GCC/crt0_v6m.o
__init_array_end__                                .build/obj_converter_cumulus_ta15_vial/./lib/chibios/os/common/startup/ARMCMx/compilers/GCC/crt0_v6m.o
__init_ram_areas                                  /var/folders/x9/cy1bx1f960zd_7xhdrxmk_zm0000gn/T//cc8Nwo3z.ltrans0.ltrans.o
                                                  .build/obj_converter_cumulus_ta15/lib/chibios/os/common/startup/ARMCMx/compilers/GCC/crt1.o (symbol from plugin)
                                                  .build/obj_converter_cumulus_ta15_vial/./lib/chibios/os/common/startup/ARMCMx/compilers/GCC/crt0_v6m.o
__late_init                                       /var/folders/x9/cy1bx1f960zd_7xhdrxmk_zm0000gn/T//cc8Nwo3z.ltrans0.ltrans.o
                                                  .build/obj_converter_cumulus_ta15_vial/platforms/chibios/bootloaders/rp2040.o (symbol from plugin)
                                                  .build/obj_converter_cumulus_ta15_vial/./lib/chibios/os/common/startup/ARMCMx/compilers/GCC/crt0_v6m.o
__lock___arc4random_mutex                         /usr/local/Cellar/arm-none-eabi-gcc@8/8.5.0_2/lib/arm-none-eabi-gcc/8/gcc/arm-none-eabi/8.5.0/../../../../../../arm-none-eabi/lib/thumb/v6-m/nofp/libg_nano.a(lib_a-lock.o)
__lock___at_quick_exit_mutex                      /usr/local/Cellar/arm-none-eabi-gcc@8/8.5.0_2/lib/arm-none-eabi-gcc/8/gcc/arm-none-eabi/8.5.0/../../../../../../arm-none-eabi/lib/thumb/v6-m/nofp/libg_nano.a(lib_a-lock.o)
__lock___atexit_recursive_mutex                   /usr/local/Cellar/arm-none-eabi-gcc@8/8.5.0_2/lib/arm-none-eabi-gcc/8/gcc/arm-none-eabi/8.5.0/../../../../../../arm-none-eabi/lib/thumb/v6-m/nofp/libg_nano.a(lib_a-lock.o)
__lock___dd_hash_mutex                            /usr/local/Cellar/arm-none-eabi-gcc@8/8.5.0_2/lib/arm-none-eabi-gcc/8/gcc/arm-none-eabi/8.5.0/../../../../../../arm-none-eabi/lib/thumb/v6-m/nofp/libg_nano.a(lib_a-lock.o)
__lock___env_recursive_mutex                      /usr/local/Cellar/arm-none-eabi-gcc@8/8.5.0_2/lib/arm-none-eabi-gcc/8/gcc/arm-none-eabi/8.5.0/../../../../../../arm-none-eabi/lib/thumb/v6-m/nofp/libg_nano.a(lib_a-lock.o)
__lock___malloc_recursive_mutex                   /usr/local/Cellar/arm-none-eabi-gcc@8/8.5.0_2/lib/arm-none-eabi-gcc/8/gcc/arm-none-eabi/8.5.0/../../../../../../arm-none-eabi/lib/thumb/v6-m/nofp/libg_nano.a(lib_a-lock.o)
                                                  /usr/local/Cellar/arm-none-eabi-gcc@8/8.5.0_2/lib/arm-none-eabi-gcc/8/gcc/arm-none-eabi/8.5.0/../../../../../../arm-none-eabi/lib/thumb/v6-m/nofp/libg_nano.a(lib_a-mlock.o)
__lock___sfp_recursive_mutex                      /usr/local/Cellar/arm-none-eabi-gcc@8/8.5.0_2/lib/arm-none-eabi-gcc/8/gcc/arm-none-eabi/8.5.0/../../../../../../arm-none-eabi/lib/thumb/v6-m/nofp/libg_nano.a(lib_a-lock.o)
                                                  /usr/local/Cellar/arm-none-eabi-gcc@8/8.5.0_2/lib/arm-none-eabi-gcc/8/gcc/arm-none-eabi/8.5.0/../../../../../../arm-none-eabi/lib/thumb/v6-m/nofp/libg_nano.a(lib_a-findfp.o)
__lock___sinit_recursive_mutex                    /usr/local/Cellar/arm-none-eabi-gcc@8/8.5.0_2/lib/arm-none-eabi-gcc/8/gcc/arm-none-eabi/8.5.0/../../../../../../arm-none-eabi/lib/thumb/v6-m/nofp/libg_nano.a(lib_a-lock.o)
                                                  /usr/local/Cellar/arm-none-eabi-gcc@8/8.5.0_2/lib/arm-none-eabi-gcc/8/gcc/arm-none-eabi/8.5.0/../../../../../../arm-none-eabi/lib/thumb/v6-m/nofp/libg_nano.a(lib_a-findfp.o)
__lock___tz_mutex                                 /usr/local/Cellar/arm-none-eabi-gcc@8/8.5.0_2/lib/arm-none-eabi-gcc/8/gcc/arm-none-eabi/8.5.0/../../../../../../arm-none-eabi/lib/thumb/v6-m/nofp/libg_nano.a(lib_a-lock.o)
__main_stack_base__                               .build/obj_converter_cumulus_ta15_vial/./lib/chibios/os/common/startup/ARMCMx/compilers/GCC/crt0_v6m.o
__main_stack_end__                                .build/obj_converter_cumulus_ta15_vial/./lib/chibios/os/common/startup/ARMCMx/compilers/GCC/vectors.o
                                                  .build/obj_converter_cumulus_ta15_vial/./lib/chibios/os/common/startup/ARMCMx/compilers/GCC/crt0_v6m.o
__malloc_free_list                                /usr/local/Cellar/arm-none-eabi-gcc@8/8.5.0_2/lib/arm-none-eabi-gcc/8/gcc/arm-none-eabi/8.5.0/../../../../../../arm-none-eabi/lib/thumb/v6-m/nofp/libg_nano.a(lib_a-nano-mallocr.o)
                                                  /usr/local/Cellar/arm-none-eabi-gcc@8/8.5.0_2/lib/arm-none-eabi-gcc/8/gcc/arm-none-eabi/8.5.0/../../../../../../arm-none-eabi/lib/thumb/v6-m/nofp/libg_nano.a(lib_a-nano-freer.o)
__malloc_lock                                     /usr/local/Cellar/arm-none-eabi-gcc@8/8.5.0_2/lib/arm-none-eabi-gcc/8/gcc/arm-none-eabi/8.5.0/../../../../../../arm-none-eabi/lib/thumb/v6-m/nofp/libg_nano.a(lib_a-mlock.o)
                                                  /usr/local/Cellar/arm-none-eabi-gcc@8/8.5.0_2/lib/arm-none-eabi-gcc/8/gcc/arm-none-eabi/8.5.0/../../../../../../arm-none-eabi/lib/thumb/v6-m/nofp/libg_nano.a(lib_a-nano-mallocr.o)
                                                  /usr/local/Cellar/arm-none-eabi-gcc@8/8.5.0_2/lib/arm-none-eabi-gcc/8/gcc/arm-none-eabi/8.5.0/../../../../../../arm-none-eabi/lib/thumb/v6-m/nofp/libg_nano.a(lib_a-nano-freer.o)
__malloc_sbrk_start                               /usr/local/Cellar/arm-none-eabi-gcc@8/8.5.0_2/lib/arm-none-eabi-gcc/8/gcc/arm-none-eabi/8.5.0/../../../../../../arm-none-eabi/lib/thumb/v6-m/nofp/libg_nano.a(lib_a-nano-mallocr.o)
__malloc_unlock                                   /usr/local/Cellar/arm-none-eabi-gcc@8/8.5.0_2/lib/arm-none-eabi-gcc/8/gcc/arm-none-eabi/8.5.0/../../../../../../arm-none-eabi/lib/thumb/v6-m/nofp/libg_nano.a(lib_a-mlock.o)
                                                  /usr/local/Cellar/arm-none-eabi-gcc@8/8.5.0_2/lib/arm-none-eabi-gcc/8/gcc/arm-none-eabi/8.5.0/../../../../../../arm-none-eabi/lib/thumb/v6-m/nofp/libg_nano.a(lib_a-nano-mallocr.o)
                                                  /usr/local/Cellar/arm-none-eabi-gcc@8/8.5.0_2/lib/arm-none-eabi-gcc/8/gcc/arm-none-eabi/8.5.0/../../../../../../arm-none-eabi/lib/thumb/v6-m/nofp/libg_nano.a(lib_a-nano-freer.o)
__muldi3                                          /usr/local/Cellar/arm-none-eabi-gcc@8/8.5.0_2/lib/arm-none-eabi-gcc/8/gcc/arm-none-eabi/8.5.0/thumb/v6-m/nofp/libgcc.a(_muldi3.o)
__pal_lld_init                                    .build/obj_converter_cumulus_ta15/lib/chibios/os/hal/ports/RP/LLD/GPIOv1/hal_pal_lld.o (symbol from plugin)
                                                  .build/obj_converter_cumulus_ta15/lib/chibios/os/hal/src/hal.o (symbol from plugin)
__port_exit_from_isr                              .build/obj_converter_cumulus_ta15_vial/./lib/chibios/os/common/ports/ARMv6-M-RP2/compilers/GCC/chcoreasm.o
                                                  /var/folders/x9/cy1bx1f960zd_7xhdrxmk_zm0000gn/T//cc8Nwo3z.ltrans0.ltrans.o
                                                  .build/obj_converter_cumulus_ta15/lib/chibios/os/common/ports/ARMv6-M-RP2/chcore.o (symbol from plugin)
__port_irq_epilogue                               .build/obj_converter_cumulus_ta15/lib/chibios/os/common/ports/ARMv6-M-RP2/chcore.o (symbol from plugin)
                                                  .build/obj_converter_cumulus_ta15/lib/chibios-contrib/os/hal/ports/RP/LLD/USBDv1/hal_usb_lld.o (symbol from plugin)
                                                  .build/obj_converter_cumulus_ta15/lib/chibios/os/hal/ports/RP/LLD/TIMERv1/hal_st_lld.o (symbol from plugin)
__port_spinlock_release                           /var/folders/x9/cy1bx1f960zd_7xhdrxmk_zm0000gn/T//cc8Nwo3z.ltrans0.ltrans.o
                                                  .build/obj_converter_cumulus_ta15/lib/chibios/os/common/ports/ARMv6-M-RP2/chcore.o (symbol from plugin)
                                                  .build/obj_converter_cumulus_ta15_vial/./lib/chibios/os/common/ports/ARMv6-M-RP2/compilers/GCC/chcoreasm.o
__port_spinlock_take                              .build/obj_converter_cumulus_ta15/lib/chibios/os/common/ports/ARMv6-M-RP2/chcore.o (symbol from plugin)
__port_switch                                     .build/obj_converter_cumulus_ta15_vial/./lib/chibios/os/common/ports/ARMv6-M-RP2/compilers/GCC/chcoreasm.o
                                                  /var/folders/x9/cy1bx1f960zd_7xhdrxmk_zm0000gn/T//cc8Nwo3z.ltrans0.ltrans.o
                                                  .build/obj_converter_cumulus_ta15/lib/chibios/os/rt/src/chschd.o (symbol from plugin)
__port_switch_from_isr                            .build/obj_converter_cumulus_ta15_vial/./lib/chibios/os/common/ports/ARMv6-M-RP2/compilers/GCC/chcoreasm.o
                                                  /var/folders/x9/cy1bx1f960zd_7xhdrxmk_zm0000gn/T//cc8Nwo3z.ltrans0.ltrans.o
                                                  .build/obj_converter_cumulus_ta15/lib/chibios/os/common/ports/ARMv6-M-RP2/chcore.o (symbol from plugin)
__port_thread_start                               .build/obj_converter_cumulus_ta15_vial/./lib/chibios/os/common/ports/ARMv6-M-RP2/compilers/GCC/chcoreasm.o
                                                  /var/folders/x9/cy1bx1f960zd_7xhdrxmk_zm0000gn/T//cc8Nwo3z.ltrans0.ltrans.o
                                                  .build/obj_converter_cumulus_ta15/lib/chibios/os/rt/src/chthreads.o (symbol from plugin)
__process_stack_base__                            .build/obj_converter_cumulus_ta15_vial/./lib/chibios/os/common/startup/ARMCMx/compilers/GCC/crt0_v6m.o
__process_stack_end__                             .build/obj_converter_cumulus_ta15_vial/./lib/chibios/os/common/startup/ARMCMx/compilers/GCC/crt0_v6m.o
__ram0_clear__                                    /var/folders/x9/cy1bx1f960zd_7xhdrxmk_zm0000gn/T//cc8Nwo3z.ltrans0.ltrans.o
                                                  .build/obj_converter_cumulus_ta15/lib/chibios/os/common/startup/ARMCMx/compilers/GCC/crt1.o (symbol from plugin)
__ram0_init__                                     /var/folders/x9/cy1bx1f960zd_7xhdrxmk_zm0000gn/T//cc8Nwo3z.ltrans0.ltrans.o
                                                  .build/obj_converter_cumulus_ta15/lib/chibios/os/common/startup/ARMCMx/compilers/GCC/crt1.o (symbol from plugin)
__ram0_init_text__                                /var/folders/x9/cy1bx1f960zd_7xhdrxmk_zm0000gn/T//cc8Nwo3z.ltrans0.ltrans.o
                                                  .build/obj_converter_cumulus_ta15/lib/chibios/os/common/startup/ARMCMx/compilers/GCC/crt1.o (symbol from plugin)
__ram0_noinit__                                   /var/folders/x9/cy1bx1f960zd_7xhdrxmk_zm0000gn/T//cc8Nwo3z.ltrans0.ltrans.o
                                                  .build/obj_converter_cumulus_ta15/lib/chibios/os/common/startup/ARMCMx/compilers/GCC/crt1.o (symbol from plugin)
__ram1_clear__                                    /var/folders/x9/cy1bx1f960zd_7xhdrxmk_zm0000gn/T//cc8Nwo3z.ltrans0.ltrans.o
                                                  .build/obj_converter_cumulus_ta15/lib/chibios/os/common/startup/ARMCMx/compilers/GCC/crt1.o (symbol from plugin)
__ram1_init__                                     /var/folders/x9/cy1bx1f960zd_7xhdrxmk_zm0000gn/T//cc8Nwo3z.ltrans0.ltrans.o
                                                  .build/obj_converter_cumulus_ta15/lib/chibios/os/common/startup/ARMCMx/compilers/GCC/crt1.o (symbol from plugin)
__ram1_init_text__                                /var/folders/x9/cy1bx1f960zd_7xhdrxmk_zm0000gn/T//cc8Nwo3z.ltrans0.ltrans.o
                                                  .build/obj_converter_cumulus_ta15/lib/chibios/os/common/startup/ARMCMx/compilers/GCC/crt1.o (symbol from plugin)
__ram1_noinit__                                   /var/folders/x9/cy1bx1f960zd_7xhdrxmk_zm0000gn/T//cc8Nwo3z.ltrans0.ltrans.o
                                                  .build/obj_converter_cumulus_ta15/lib/chibios/os/common/startup/ARMCMx/compilers/GCC/crt1.o (symbol from plugin)
__ram2_clear__                                    /var/folders/x9/cy1bx1f960zd_7xhdrxmk_zm0000gn/T//cc8Nwo3z.ltrans0.ltrans.o
                                                  .build/obj_converter_cumulus_ta15/lib/chibios/os/common/startup/ARMCMx/compilers/GCC/crt1.o (symbol from plugin)
__ram2_init__                                     /var/folders/x9/cy1bx1f960zd_7xhdrxmk_zm0000gn/T//cc8Nwo3z.ltrans0.ltrans.o
                                                  .build/obj_converter_cumulus_ta15/lib/chibios/os/common/startup/ARMCMx/compilers/GCC/crt1.o (symbol from plugin)
__ram2_init_text__                                /var/folders/x9/cy1bx1f960zd_7xhdrxmk_zm0000gn/T//cc8Nwo3z.ltrans0.ltrans.o
                                                  .build/obj_converter_cumulus_ta15/lib/chibios/os/common/startup/ARMCMx/compilers/GCC/crt1.o (symbol from plugin)
__ram2_noinit__                                   /var/folders/x9/cy1bx1f960zd_7xhdrxmk_zm0000gn/T//cc8Nwo3z.ltrans0.ltrans.o
                                                  .build/obj_converter_cumulus_ta15/lib/chibios/os/common/startup/ARMCMx/compilers/GCC/crt1.o (symbol from plugin)
__ram3_clear__                                    /var/folders/x9/cy1bx1f960zd_7xhdrxmk_zm0000gn/T//cc8Nwo3z.ltrans0.ltrans.o
                                                  .build/obj_converter_cumulus_ta15/lib/chibios/os/common/startup/ARMCMx/compilers/GCC/crt1.o (symbol from plugin)
__ram3_init__                                     /var/folders/x9/cy1bx1f960zd_7xhdrxmk_zm0000gn/T//cc8Nwo3z.ltrans0.ltrans.o
                                                  .build/obj_converter_cumulus_ta15/lib/chibios/os/common/startup/ARMCMx/compilers/GCC/crt1.o (symbol from plugin)
__ram3_init_text__                                /var/folders/x9/cy1bx1f960zd_7xhdrxmk_zm0000gn/T//cc8Nwo3z.ltrans0.ltrans.o
                                                  .build/obj_converter_cumulus_ta15/lib/chibios/os/common/startup/ARMCMx/compilers/GCC/crt1.o (symbol from plugin)
__ram3_noinit__                                   /var/folders/x9/cy1bx1f960zd_7xhdrxmk_zm0000gn/T//cc8Nwo3z.ltrans0.ltrans.o
                                                  .build/obj_converter_cumulus_ta15/lib/chibios/os/common/startup/ARMCMx/compilers/GCC/crt1.o (symbol from plugin)
__ram4_clear__                                    /var/folders/x9/cy1bx1f960zd_7xhdrxmk_zm0000gn/T//cc8Nwo3z.ltrans0.ltrans.o
                                                  .build/obj_converter_cumulus_ta15/lib/chibios/os/common/startup/ARMCMx/compilers/GCC/crt1.o (symbol from plugin)
__ram4_init__                                     /var/folders/x9/cy1bx1f960zd_7xhdrxmk_zm0000gn/T//cc8Nwo3z.ltrans0.ltrans.o
                                                  .build/obj_converter_cumulus_ta15/lib/chibios/os/common/startup/ARMCMx/compilers/GCC/crt1.o (symbol from plugin)
__ram4_init_text__                                /var/folders/x9/cy1bx1f960zd_7xhdrxmk_zm0000gn/T//cc8Nwo3z.ltrans0.ltrans.o
                                                  .build/obj_converter_cumulus_ta15/lib/chibios/os/common/startup/ARMCMx/compilers/GCC/crt1.o (symbol from plugin)
__ram4_noinit__                                   /var/folders/x9/cy1bx1f960zd_7xhdrxmk_zm0000gn/T//cc8Nwo3z.ltrans0.ltrans.o
                                                  .build/obj_converter_cumulus_ta15/lib/chibios/os/common/startup/ARMCMx/compilers/GCC/crt1.o (symbol from plugin)
__ram5_clear__                                    /var/folders/x9/cy1bx1f960zd_7xhdrxmk_zm0000gn/T//cc8Nwo3z.ltrans0.ltrans.o
                                                  .build/obj_converter_cumulus_ta15/lib/chibios/os/common/startup/ARMCMx/compilers/GCC/crt1.o (symbol from plugin)
__ram5_init__                                     /var/folders/x9/cy1bx1f960zd_7xhdrxmk_zm0000gn/T//cc8Nwo3z.ltrans0.ltrans.o
                                                  .build/obj_converter_cumulus_ta15/lib/chibios/os/common/startup/ARMCMx/compilers/GCC/crt1.o (symbol from plugin)
__ram5_init_text__                                /var/folders/x9/cy1bx1f960zd_7xhdrxmk_zm0000gn/T//cc8Nwo3z.ltrans0.ltrans.o
                                                  .build/obj_converter_cumulus_ta15/lib/chibios/os/common/startup/ARMCMx/compilers/GCC/crt1.o (symbol from plugin)
__ram5_noinit__                                   /var/folders/x9/cy1bx1f960zd_7xhdrxmk_zm0000gn/T//cc8Nwo3z.ltrans0.ltrans.o
                                                  .build/obj_converter_cumulus_ta15/lib/chibios/os/common/startup/ARMCMx/compilers/GCC/crt1.o (symbol from plugin)
__ram6_clear__                                    /var/folders/x9/cy1bx1f960zd_7xhdrxmk_zm0000gn/T//cc8Nwo3z.ltrans0.ltrans.o
                                                  .build/obj_converter_cumulus_ta15/lib/chibios/os/common/startup/ARMCMx/compilers/GCC/crt1.o (symbol from plugin)
__ram6_init__                                     /var/folders/x9/cy1bx1f960zd_7xhdrxmk_zm0000gn/T//cc8Nwo3z.ltrans0.ltrans.o
                                                  .build/obj_converter_cumulus_ta15/lib/chibios/os/common/startup/ARMCMx/compilers/GCC/crt1.o (symbol from plugin)
__ram6_init_text__                                /var/folders/x9/cy1bx1f960zd_7xhdrxmk_zm0000gn/T//cc8Nwo3z.ltrans0.ltrans.o
                                                  .build/obj_converter_cumulus_ta15/lib/chibios/os/common/startup/ARMCMx/compilers/GCC/crt1.o (symbol from plugin)
__ram6_noinit__                                   /var/folders/x9/cy1bx1f960zd_7xhdrxmk_zm0000gn/T//cc8Nwo3z.ltrans0.ltrans.o
                                                  .build/obj_converter_cumulus_ta15/lib/chibios/os/common/startup/ARMCMx/compilers/GCC/crt1.o (symbol from plugin)
__ram7_clear__                                    /var/folders/x9/cy1bx1f960zd_7xhdrxmk_zm0000gn/T//cc8Nwo3z.ltrans0.ltrans.o
                                                  .build/obj_converter_cumulus_ta15/lib/chibios/os/common/startup/ARMCMx/compilers/GCC/crt1.o (symbol from plugin)
__ram7_init__                                     /var/folders/x9/cy1bx1f960zd_7xhdrxmk_zm0000gn/T//cc8Nwo3z.ltrans0.ltrans.o
                                                  .build/obj_converter_cumulus_ta15/lib/chibios/os/common/startup/ARMCMx/compilers/GCC/crt1.o (symbol from plugin)
__ram7_init_text__                                /var/folders/x9/cy1bx1f960zd_7xhdrxmk_zm0000gn/T//cc8Nwo3z.ltrans0.ltrans.o
                                                  .build/obj_converter_cumulus_ta15/lib/chibios/os/common/startup/ARMCMx/compilers/GCC/crt1.o (symbol from plugin)
__ram7_noinit__                                   /var/folders/x9/cy1bx1f960zd_7xhdrxmk_zm0000gn/T//cc8Nwo3z.ltrans0.ltrans.o
                                                  .build/obj_converter_cumulus_ta15/lib/chibios/os/common/startup/ARMCMx/compilers/GCC/crt1.o (symbol from plugin)
__retarget_lock_acquire                           /usr/local/Cellar/arm-none-eabi-gcc@8/8.5.0_2/lib/arm-none-eabi-gcc/8/gcc/arm-none-eabi/8.5.0/../../../../../../arm-none-eabi/lib/thumb/v6-m/nofp/libg_nano.a(lib_a-lock.o)
__retarget_lock_acquire_recursive                 /usr/local/Cellar/arm-none-eabi-gcc@8/8.5.0_2/lib/arm-none-eabi-gcc/8/gcc/arm-none-eabi/8.5.0/../../../../../../arm-none-eabi/lib/thumb/v6-m/nofp/libg_nano.a(lib_a-lock.o)
                                                  /usr/local/Cellar/arm-none-eabi-gcc@8/8.5.0_2/lib/arm-none-eabi-gcc/8/gcc/arm-none-eabi/8.5.0/../../../../../../arm-none-eabi/lib/thumb/v6-m/nofp/libg_nano.a(lib_a-mlock.o)
                                                  /usr/local/Cellar/arm-none-eabi-gcc@8/8.5.0_2/lib/arm-none-eabi-gcc/8/gcc/arm-none-eabi/8.5.0/../../../../../../arm-none-eabi/lib/thumb/v6-m/nofp/libg_nano.a(lib_a-findfp.o)
                                                  /usr/local/Cellar/arm-none-eabi-gcc@8/8.5.0_2/lib/arm-none-eabi-gcc/8/gcc/arm-none-eabi/8.5.0/../../../../../../arm-none-eabi/lib/thumb/v6-m/nofp/libg_nano.a(lib_a-fflush.o)
                                                  /usr/local/Cellar/arm-none-eabi-gcc@8/8.5.0_2/lib/arm-none-eabi-gcc/8/gcc/arm-none-eabi/8.5.0/../../../../../../arm-none-eabi/lib/thumb/v6-m/nofp/libg_nano.a(lib_a-nano-vfprintf.o)
__retarget_lock_close                             /usr/local/Cellar/arm-none-eabi-gcc@8/8.5.0_2/lib/arm-none-eabi-gcc/8/gcc/arm-none-eabi/8.5.0/../../../../../../arm-none-eabi/lib/thumb/v6-m/nofp/libg_nano.a(lib_a-lock.o)
__retarget_lock_close_recursive                   /usr/local/Cellar/arm-none-eabi-gcc@8/8.5.0_2/lib/arm-none-eabi-gcc/8/gcc/arm-none-eabi/8.5.0/../../../../../../arm-none-eabi/lib/thumb/v6-m/nofp/libg_nano.a(lib_a-lock.o)
__retarget_lock_init                              /usr/local/Cellar/arm-none-eabi-gcc@8/8.5.0_2/lib/arm-none-eabi-gcc/8/gcc/arm-none-eabi/8.5.0/../../../../../../arm-none-eabi/lib/thumb/v6-m/nofp/libg_nano.a(lib_a-lock.o)
__retarget_lock_init_recursive                    /usr/local/Cellar/arm-none-eabi-gcc@8/8.5.0_2/lib/arm-none-eabi-gcc/8/gcc/arm-none-eabi/8.5.0/../../../../../../arm-none-eabi/lib/thumb/v6-m/nofp/libg_nano.a(lib_a-lock.o)
                                                  /usr/local/Cellar/arm-none-eabi-gcc@8/8.5.0_2/lib/arm-none-eabi-gcc/8/gcc/arm-none-eabi/8.5.0/../../../../../../arm-none-eabi/lib/thumb/v6-m/nofp/libg_nano.a(lib_a-findfp.o)
__retarget_lock_release                           /usr/local/Cellar/arm-none-eabi-gcc@8/8.5.0_2/lib/arm-none-eabi-gcc/8/gcc/arm-none-eabi/8.5.0/../../../../../../arm-none-eabi/lib/thumb/v6-m/nofp/libg_nano.a(lib_a-lock.o)
__retarget_lock_release_recursive                 /usr/local/Cellar/arm-none-eabi-gcc@8/8.5.0_2/lib/arm-none-eabi-gcc/8/gcc/arm-none-eabi/8.5.0/../../../../../../arm-none-eabi/lib/thumb/v6-m/nofp/libg_nano.a(lib_a-lock.o)
                                                  /usr/local/Cellar/arm-none-eabi-gcc@8/8.5.0_2/lib/arm-none-eabi-gcc/8/gcc/arm-none-eabi/8.5.0/../../../../../../arm-none-eabi/lib/thumb/v6-m/nofp/libg_nano.a(lib_a-mlock.o)
                                                  /usr/local/Cellar/arm-none-eabi-gcc@8/8.5.0_2/lib/arm-none-eabi-gcc/8/gcc/arm-none-eabi/8.5.0/../../../../../../arm-none-eabi/lib/thumb/v6-m/nofp/libg_nano.a(lib_a-findfp.o)
                                                  /usr/local/Cellar/arm-none-eabi-gcc@8/8.5.0_2/lib/arm-none-eabi-gcc/8/gcc/arm-none-eabi/8.5.0/../../../../../../arm-none-eabi/lib/thumb/v6-m/nofp/libg_nano.a(lib_a-fflush.o)
                                                  /usr/local/Cellar/arm-none-eabi-gcc@8/8.5.0_2/lib/arm-none-eabi-gcc/8/gcc/arm-none-eabi/8.5.0/../../../../../../arm-none-eabi/lib/thumb/v6-m/nofp/libg_nano.a(lib_a-nano-vfprintf.o)
__retarget_lock_try_acquire                       /usr/local/Cellar/arm-none-eabi-gcc@8/8.5.0_2/lib/arm-none-eabi-gcc/8/gcc/arm-none-eabi/8.5.0/../../../../../../arm-none-eabi/lib/thumb/v6-m/nofp/libg_nano.a(lib_a-lock.o)
__retarget_lock_try_acquire_recursive             /usr/local/Cellar/arm-none-eabi-gcc@8/8.5.0_2/lib/arm-none-eabi-gcc/8/gcc/arm-none-eabi/8.5.0/../../../../../../arm-none-eabi/lib/thumb/v6-m/nofp/libg_nano.a(lib_a-lock.o)
__sclose                                          /usr/local/Cellar/arm-none-eabi-gcc@8/8.5.0_2/lib/arm-none-eabi-gcc/8/gcc/arm-none-eabi/8.5.0/../../../../../../arm-none-eabi/lib/thumb/v6-m/nofp/libg_nano.a(lib_a-stdio.o)
                                                  /usr/local/Cellar/arm-none-eabi-gcc@8/8.5.0_2/lib/arm-none-eabi-gcc/8/gcc/arm-none-eabi/8.5.0/../../../../../../arm-none-eabi/lib/thumb/v6-m/nofp/libg_nano.a(lib_a-findfp.o)
__seofread                                        /usr/local/Cellar/arm-none-eabi-gcc@8/8.5.0_2/lib/arm-none-eabi-gcc/8/gcc/arm-none-eabi/8.5.0/../../../../../../arm-none-eabi/lib/thumb/v6-m/nofp/libg_nano.a(lib_a-stdio.o)
__sf_fake_stderr                                  /usr/local/Cellar/arm-none-eabi-gcc@8/8.5.0_2/lib/arm-none-eabi-gcc/8/gcc/arm-none-eabi/8.5.0/../../../../../../arm-none-eabi/lib/thumb/v6-m/nofp/libg_nano.a(lib_a-findfp.o)
                                                  /usr/local/Cellar/arm-none-eabi-gcc@8/8.5.0_2/lib/arm-none-eabi-gcc/8/gcc/arm-none-eabi/8.5.0/../../../../../../arm-none-eabi/lib/thumb/v6-m/nofp/libg_nano.a(lib_a-fflush.o)
                                                  /usr/local/Cellar/arm-none-eabi-gcc@8/8.5.0_2/lib/arm-none-eabi-gcc/8/gcc/arm-none-eabi/8.5.0/../../../../../../arm-none-eabi/lib/thumb/v6-m/nofp/libg_nano.a(lib_a-wsetup.o)
                                                  /usr/local/Cellar/arm-none-eabi-gcc@8/8.5.0_2/lib/arm-none-eabi-gcc/8/gcc/arm-none-eabi/8.5.0/../../../../../../arm-none-eabi/lib/thumb/v6-m/nofp/libg_nano.a(lib_a-wbuf.o)
                                                  /usr/local/Cellar/arm-none-eabi-gcc@8/8.5.0_2/lib/arm-none-eabi-gcc/8/gcc/arm-none-eabi/8.5.0/../../../../../../arm-none-eabi/lib/thumb/v6-m/nofp/libg_nano.a(lib_a-nano-vfprintf.o)
                                                  /usr/local/Cellar/arm-none-eabi-gcc@8/8.5.0_2/lib/arm-none-eabi-gcc/8/gcc/arm-none-eabi/8.5.0/../../../../../../arm-none-eabi/lib/thumb/v6-m/nofp/libg_nano.a(lib_a-impure.o)
__sf_fake_stdin                                   /usr/local/Cellar/arm-none-eabi-gcc@8/8.5.0_2/lib/arm-none-eabi-gcc/8/gcc/arm-none-eabi/8.5.0/../../../../../../arm-none-eabi/lib/thumb/v6-m/nofp/libg_nano.a(lib_a-findfp.o)
                                                  /usr/local/Cellar/arm-none-eabi-gcc@8/8.5.0_2/lib/arm-none-eabi-gcc/8/gcc/arm-none-eabi/8.5.0/../../../../../../arm-none-eabi/lib/thumb/v6-m/nofp/libg_nano.a(lib_a-fflush.o)
                                                  /usr/local/Cellar/arm-none-eabi-gcc@8/8.5.0_2/lib/arm-none-eabi-gcc/8/gcc/arm-none-eabi/8.5.0/../../../../../../arm-none-eabi/lib/thumb/v6-m/nofp/libg_nano.a(lib_a-wsetup.o)
                                                  /usr/local/Cellar/arm-none-eabi-gcc@8/8.5.0_2/lib/arm-none-eabi-gcc/8/gcc/arm-none-eabi/8.5.0/../../../../../../arm-none-eabi/lib/thumb/v6-m/nofp/libg_nano.a(lib_a-wbuf.o)
                                                  /usr/local/Cellar/arm-none-eabi-gcc@8/8.5.0_2/lib/arm-none-eabi-gcc/8/gcc/arm-none-eabi/8.5.0/../../../../../../arm-none-eabi/lib/thumb/v6-m/nofp/libg_nano.a(lib_a-nano-vfprintf.o)
                                                  /usr/local/Cellar/arm-none-eabi-gcc@8/8.5.0_2/lib/arm-none-eabi-gcc/8/gcc/arm-none-eabi/8.5.0/../../../../../../arm-none-eabi/lib/thumb/v6-m/nofp/libg_nano.a(lib_a-impure.o)
__sf_fake_stdout                                  /usr/local/Cellar/arm-none-eabi-gcc@8/8.5.0_2/lib/arm-none-eabi-gcc/8/gcc/arm-none-eabi/8.5.0/../../../../../../arm-none-eabi/lib/thumb/v6-m/nofp/libg_nano.a(lib_a-findfp.o)
                                                  /usr/local/Cellar/arm-none-eabi-gcc@8/8.5.0_2/lib/arm-none-eabi-gcc/8/gcc/arm-none-eabi/8.5.0/../../../../../../arm-none-eabi/lib/thumb/v6-m/nofp/libg_nano.a(lib_a-fflush.o)
                                                  /usr/local/Cellar/arm-none-eabi-gcc@8/8.5.0_2/lib/arm-none-eabi-gcc/8/gcc/arm-none-eabi/8.5.0/../../../../../../arm-none-eabi/lib/thumb/v6-m/nofp/libg_nano.a(lib_a-wsetup.o)
                                                  /usr/local/Cellar/arm-none-eabi-gcc@8/8.5.0_2/lib/arm-none-eabi-gcc/8/gcc/arm-none-eabi/8.5.0/../../../../../../arm-none-eabi/lib/thumb/v6-m/nofp/libg_nano.a(lib_a-wbuf.o)
                                                  /usr/local/Cellar/arm-none-eabi-gcc@8/8.5.0_2/lib/arm-none-eabi-gcc/8/gcc/arm-none-eabi/8.5.0/../../../../../../arm-none-eabi/lib/thumb/v6-m/nofp/libg_nano.a(lib_a-nano-vfprintf.o)
                                                  /usr/local/Cellar/arm-none-eabi-gcc@8/8.5.0_2/lib/arm-none-eabi-gcc/8/gcc/arm-none-eabi/8.5.0/../../../../../../arm-none-eabi/lib/thumb/v6-m/nofp/libg_nano.a(lib_a-impure.o)
__sflush_r                                        /usr/local/Cellar/arm-none-eabi-gcc@8/8.5.0_2/lib/arm-none-eabi-gcc/8/gcc/arm-none-eabi/8.5.0/../../../../../../arm-none-eabi/lib/thumb/v6-m/nofp/libg_nano.a(lib_a-fflush.o)
__sfmoreglue                                      /usr/local/Cellar/arm-none-eabi-gcc@8/8.5.0_2/lib/arm-none-eabi-gcc/8/gcc/arm-none-eabi/8.5.0/../../../../../../arm-none-eabi/lib/thumb/v6-m/nofp/libg_nano.a(lib_a-findfp.o)
__sfp                                             /usr/local/Cellar/arm-none-eabi-gcc@8/8.5.0_2/lib/arm-none-eabi-gcc/8/gcc/arm-none-eabi/8.5.0/../../../../../../arm-none-eabi/lib/thumb/v6-m/nofp/libg_nano.a(lib_a-findfp.o)
__sfp_lock_acquire                                /usr/local/Cellar/arm-none-eabi-gcc@8/8.5.0_2/lib/arm-none-eabi-gcc/8/gcc/arm-none-eabi/8.5.0/../../../../../../arm-none-eabi/lib/thumb/v6-m/nofp/libg_nano.a(lib_a-findfp.o)
__sfp_lock_release                                /usr/local/Cellar/arm-none-eabi-gcc@8/8.5.0_2/lib/arm-none-eabi-gcc/8/gcc/arm-none-eabi/8.5.0/../../../../../../arm-none-eabi/lib/thumb/v6-m/nofp/libg_nano.a(lib_a-findfp.o)
__sfputs_r                                        /usr/local/Cellar/arm-none-eabi-gcc@8/8.5.0_2/lib/arm-none-eabi-gcc/8/gcc/arm-none-eabi/8.5.0/../../../../../../arm-none-eabi/lib/thumb/v6-m/nofp/libg_nano.a(lib_a-nano-vfprintf.o)
__sfvwrite_r                                      /usr/local/Cellar/arm-none-eabi-gcc@8/8.5.0_2/lib/arm-none-eabi-gcc/8/gcc/arm-none-eabi/8.5.0/../../../../../../arm-none-eabi/lib/thumb/v6-m/nofp/libg_nano.a(lib_a-fvwrite.o)
                                                  /usr/local/Cellar/arm-none-eabi-gcc@8/8.5.0_2/lib/arm-none-eabi-gcc/8/gcc/arm-none-eabi/8.5.0/../../../../../../arm-none-eabi/lib/thumb/v6-m/nofp/libg_nano.a(lib_a-nano-vfprintf.o)
__sigtramp                                        /usr/local/Cellar/arm-none-eabi-gcc@8/8.5.0_2/lib/arm-none-eabi-gcc/8/gcc/arm-none-eabi/8.5.0/../../../../../../arm-none-eabi/lib/thumb/v6-m/nofp/libg_nano.a(lib_a-signal.o)
__sigtramp_r                                      /usr/local/Cellar/arm-none-eabi-gcc@8/8.5.0_2/lib/arm-none-eabi-gcc/8/gcc/arm-none-eabi/8.5.0/../../../../../../arm-none-eabi/lib/thumb/v6-m/nofp/libg_nano.a(lib_a-signal.o)
__sinit                                           /usr/local/Cellar/arm-none-eabi-gcc@8/8.5.0_2/lib/arm-none-eabi-gcc/8/gcc/arm-none-eabi/8.5.0/../../../../../../arm-none-eabi/lib/thumb/v6-m/nofp/libg_nano.a(lib_a-findfp.o)
                                                  /usr/local/Cellar/arm-none-eabi-gcc@8/8.5.0_2/lib/arm-none-eabi-gcc/8/gcc/arm-none-eabi/8.5.0/../../../../../../arm-none-eabi/lib/thumb/v6-m/nofp/libg_nano.a(lib_a-fflush.o)
                                                  /usr/local/Cellar/arm-none-eabi-gcc@8/8.5.0_2/lib/arm-none-eabi-gcc/8/gcc/arm-none-eabi/8.5.0/../../../../../../arm-none-eabi/lib/thumb/v6-m/nofp/libg_nano.a(lib_a-wsetup.o)
                                                  /usr/local/Cellar/arm-none-eabi-gcc@8/8.5.0_2/lib/arm-none-eabi-gcc/8/gcc/arm-none-eabi/8.5.0/../../../../../../arm-none-eabi/lib/thumb/v6-m/nofp/libg_nano.a(lib_a-wbuf.o)
                                                  /usr/local/Cellar/arm-none-eabi-gcc@8/8.5.0_2/lib/arm-none-eabi-gcc/8/gcc/arm-none-eabi/8.5.0/../../../../../../arm-none-eabi/lib/thumb/v6-m/nofp/libg_nano.a(lib_a-nano-vfprintf.o)
__sinit_lock_acquire                              /usr/local/Cellar/arm-none-eabi-gcc@8/8.5.0_2/lib/arm-none-eabi-gcc/8/gcc/arm-none-eabi/8.5.0/../../../../../../arm-none-eabi/lib/thumb/v6-m/nofp/libg_nano.a(lib_a-findfp.o)
__sinit_lock_release                              /usr/local/Cellar/arm-none-eabi-gcc@8/8.5.0_2/lib/arm-none-eabi-gcc/8/gcc/arm-none-eabi/8.5.0/../../../../../../arm-none-eabi/lib/thumb/v6-m/nofp/libg_nano.a(lib_a-findfp.o)
__smakebuf_r                                      /usr/local/Cellar/arm-none-eabi-gcc@8/8.5.0_2/lib/arm-none-eabi-gcc/8/gcc/arm-none-eabi/8.5.0/../../../../../../arm-none-eabi/lib/thumb/v6-m/nofp/libg_nano.a(lib_a-makebuf.o)
                                                  /usr/local/Cellar/arm-none-eabi-gcc@8/8.5.0_2/lib/arm-none-eabi-gcc/8/gcc/arm-none-eabi/8.5.0/../../../../../../arm-none-eabi/lib/thumb/v6-m/nofp/libg_nano.a(lib_a-wsetup.o)
__sprint_r                                        /usr/local/Cellar/arm-none-eabi-gcc@8/8.5.0_2/lib/arm-none-eabi-gcc/8/gcc/arm-none-eabi/8.5.0/../../../../../../arm-none-eabi/lib/thumb/v6-m/nofp/libg_nano.a(lib_a-nano-vfprintf.o)
__sread                                           /usr/local/Cellar/arm-none-eabi-gcc@8/8.5.0_2/lib/arm-none-eabi-gcc/8/gcc/arm-none-eabi/8.5.0/../../../../../../arm-none-eabi/lib/thumb/v6-m/nofp/libg_nano.a(lib_a-stdio.o)
                                                  /usr/local/Cellar/arm-none-eabi-gcc@8/8.5.0_2/lib/arm-none-eabi-gcc/8/gcc/arm-none-eabi/8.5.0/../../../../../../arm-none-eabi/lib/thumb/v6-m/nofp/libg_nano.a(lib_a-findfp.o)
__sseek                                           /usr/local/Cellar/arm-none-eabi-gcc@8/8.5.0_2/lib/arm-none-eabi-gcc/8/gcc/arm-none-eabi/8.5.0/../../../../../../arm-none-eabi/lib/thumb/v6-m/nofp/libg_nano.a(lib_a-stdio.o)
                                                  /usr/local/Cellar/arm-none-eabi-gcc@8/8.5.0_2/lib/arm-none-eabi-gcc/8/gcc/arm-none-eabi/8.5.0/../../../../../../arm-none-eabi/lib/thumb/v6-m/nofp/libg_nano.a(lib_a-findfp.o)
__swbuf                                           /usr/local/Cellar/arm-none-eabi-gcc@8/8.5.0_2/lib/arm-none-eabi-gcc/8/gcc/arm-none-eabi/8.5.0/../../../../../../arm-none-eabi/lib/thumb/v6-m/nofp/libg_nano.a(lib_a-wbuf.o)
__swbuf_r                                         /usr/local/Cellar/arm-none-eabi-gcc@8/8.5.0_2/lib/arm-none-eabi-gcc/8/gcc/arm-none-eabi/8.5.0/../../../../../../arm-none-eabi/lib/thumb/v6-m/nofp/libg_nano.a(lib_a-wbuf.o)
                                                  /usr/local/Cellar/arm-none-eabi-gcc@8/8.5.0_2/lib/arm-none-eabi-gcc/8/gcc/arm-none-eabi/8.5.0/../../../../../../arm-none-eabi/lib/thumb/v6-m/nofp/libg_nano.a(lib_a-nano-vfprintf.o)
__swhatbuf_r                                      /usr/local/Cellar/arm-none-eabi-gcc@8/8.5.0_2/lib/arm-none-eabi-gcc/8/gcc/arm-none-eabi/8.5.0/../../../../../../arm-none-eabi/lib/thumb/v6-m/nofp/libg_nano.a(lib_a-makebuf.o)
__swrite                                          /usr/local/Cellar/arm-none-eabi-gcc@8/8.5.0_2/lib/arm-none-eabi-gcc/8/gcc/arm-none-eabi/8.5.0/../../../../../../arm-none-eabi/lib/thumb/v6-m/nofp/libg_nano.a(lib_a-stdio.o)
                                                  /usr/local/Cellar/arm-none-eabi-gcc@8/8.5.0_2/lib/arm-none-eabi-gcc/8/gcc/arm-none-eabi/8.5.0/../../../../../../arm-none-eabi/lib/thumb/v6-m/nofp/libg_nano.a(lib_a-findfp.o)
__swsetup_r                                       /usr/local/Cellar/arm-none-eabi-gcc@8/8.5.0_2/lib/arm-none-eabi-gcc/8/gcc/arm-none-eabi/8.5.0/../../../../../../arm-none-eabi/lib/thumb/v6-m/nofp/libg_nano.a(lib_a-wsetup.o)
                                                  /usr/local/Cellar/arm-none-eabi-gcc@8/8.5.0_2/lib/arm-none-eabi-gcc/8/gcc/arm-none-eabi/8.5.0/../../../../../../arm-none-eabi/lib/thumb/v6-m/nofp/libg_nano.a(lib_a-fvwrite.o)
                                                  /usr/local/Cellar/arm-none-eabi-gcc@8/8.5.0_2/lib/arm-none-eabi-gcc/8/gcc/arm-none-eabi/8.5.0/../../../../../../arm-none-eabi/lib/thumb/v6-m/nofp/libg_nano.a(lib_a-wbuf.o)
                                                  /usr/local/Cellar/arm-none-eabi-gcc@8/8.5.0_2/lib/arm-none-eabi-gcc/8/gcc/arm-none-eabi/8.5.0/../../../../../../arm-none-eabi/lib/thumb/v6-m/nofp/libg_nano.a(lib_a-nano-vfprintf.o)
__textdata_base__                                 .build/obj_converter_cumulus_ta15_vial/./lib/chibios/os/common/startup/ARMCMx/compilers/GCC/crt0_v6m.o
__thd_object_init                                 .build/obj_converter_cumulus_ta15/lib/chibios/os/rt/src/chthreads.o (symbol from plugin)
                                                  .build/obj_converter_cumulus_ta15/lib/chibios/os/rt/src/chinstances.o (symbol from plugin)
__udivmoddi4                                      /usr/local/Cellar/arm-none-eabi-gcc@8/8.5.0_2/lib/arm-none-eabi-gcc/8/gcc/arm-none-eabi/8.5.0/thumb/v6-m/nofp/libgcc.a(_udivmoddi4.o)
                                                  /usr/local/Cellar/arm-none-eabi-gcc@8/8.5.0_2/lib/arm-none-eabi-gcc/8/gcc/arm-none-eabi/8.5.0/thumb/v6-m/nofp/libgcc.a(_aeabi_uldivmod.o)
__udivsi3                                         /usr/local/Cellar/arm-none-eabi-gcc@8/8.5.0_2/lib/arm-none-eabi-gcc/8/gcc/arm-none-eabi/8.5.0/thumb/v6-m/nofp/libgcc.a(_udivsi3.o)
_cleanup                                          /usr/local/Cellar/arm-none-eabi-gcc@8/8.5.0_2/lib/arm-none-eabi-gcc/8/gcc/arm-none-eabi/8.5.0/../../../../../../arm-none-eabi/lib/thumb/v6-m/nofp/libg_nano.a(lib_a-findfp.o)
_cleanup_r                                        /usr/local/Cellar/arm-none-eabi-gcc@8/8.5.0_2/lib/arm-none-eabi-gcc/8/gcc/arm-none-eabi/8.5.0/../../../../../../arm-none-eabi/lib/thumb/v6-m/nofp/libg_nano.a(lib_a-findfp.o)
                                                  /usr/local/Cellar/arm-none-eabi-gcc@8/8.5.0_2/lib/arm-none-eabi-gcc/8/gcc/arm-none-eabi/8.5.0/../../../../../../arm-none-eabi/lib/thumb/v6-m/nofp/libg_nano.a(lib_a-makebuf.o)
_close_r                                          /var/folders/x9/cy1bx1f960zd_7xhdrxmk_zm0000gn/T//cc8Nwo3z.ltrans0.ltrans.o
                                                  .build/obj_converter_cumulus_ta15/lib/chibios/os/various/syscalls.o (symbol from plugin)
                                                  /usr/local/Cellar/arm-none-eabi-gcc@8/8.5.0_2/lib/arm-none-eabi-gcc/8/gcc/arm-none-eabi/8.5.0/../../../../../../arm-none-eabi/lib/thumb/v6-m/nofp/libg_nano.a(lib_a-stdio.o)
_crt0_entry                                       .build/obj_converter_cumulus_ta15_vial/./lib/chibios/os/common/startup/ARMCMx/compilers/GCC/crt0_v6m.o
                                                  .build/obj_converter_cumulus_ta15_vial/./lib/chibios/os/common/startup/ARMCMx/compilers/GCC/vectors.o
_ctype_                                           /usr/local/Cellar/arm-none-eabi-gcc@8/8.5.0_2/lib/arm-none-eabi-gcc/8/gcc/arm-none-eabi/8.5.0/../../../../../../arm-none-eabi/lib/thumb/v6-m/nofp/libg_nano.a(lib_a-ctype_.o)
                                                  /var/folders/x9/cy1bx1f960zd_7xhdrxmk_zm0000gn/T//cc8Nwo3z.ltrans0.ltrans.o
                                                  .build/obj_converter_cumulus_ta15/lib/chibios/os/hal/lib/streams/chscanf.o (symbol from plugin)
                                                  .build/obj_converter_cumulus_ta15_vial/quantum/send_string/send_string.o (symbol from plugin)
_exit                                             /var/folders/x9/cy1bx1f960zd_7xhdrxmk_zm0000gn/T//cc8Nwo3z.ltrans0.ltrans.o
                                                  /usr/local/Cellar/arm-none-eabi-gcc@8/8.5.0_2/lib/arm-none-eabi-gcc/8/gcc/arm-none-eabi/8.5.0/../../../../../../arm-none-eabi/lib/thumb/v6-m/nofp/libg_nano.a(lib_a-abort.o)
_fflush_r                                         /usr/local/Cellar/arm-none-eabi-gcc@8/8.5.0_2/lib/arm-none-eabi-gcc/8/gcc/arm-none-eabi/8.5.0/../../../../../../arm-none-eabi/lib/thumb/v6-m/nofp/libg_nano.a(lib_a-fflush.o)
                                                  /usr/local/Cellar/arm-none-eabi-gcc@8/8.5.0_2/lib/arm-none-eabi-gcc/8/gcc/arm-none-eabi/8.5.0/../../../../../../arm-none-eabi/lib/thumb/v6-m/nofp/libg_nano.a(lib_a-fvwrite.o)
                                                  /usr/local/Cellar/arm-none-eabi-gcc@8/8.5.0_2/lib/arm-none-eabi-gcc/8/gcc/arm-none-eabi/8.5.0/../../../../../../arm-none-eabi/lib/thumb/v6-m/nofp/libg_nano.a(lib_a-findfp.o)
                                                  /usr/local/Cellar/arm-none-eabi-gcc@8/8.5.0_2/lib/arm-none-eabi-gcc/8/gcc/arm-none-eabi/8.5.0/../../../../../../arm-none-eabi/lib/thumb/v6-m/nofp/libg_nano.a(lib_a-wbuf.o)
_fini                                             /var/folders/x9/cy1bx1f960zd_7xhdrxmk_zm0000gn/T//cc8Nwo3z.ltrans0.ltrans.o
                                                  .build/obj_converter_cumulus_ta15/platforms/chibios/syscall-fallbacks.o (symbol from plugin)
_fiprintf_r                                       /usr/local/Cellar/arm-none-eabi-gcc@8/8.5.0_2/lib/arm-none-eabi-gcc/8/gcc/arm-none-eabi/8.5.0/../../../../../../arm-none-eabi/lib/thumb/v6-m/nofp/libg_nano.a(lib_a-fprintf.o)
_fprintf_r                                        /usr/local/Cellar/arm-none-eabi-gcc@8/8.5.0_2/lib/arm-none-eabi-gcc/8/gcc/arm-none-eabi/8.5.0/../../../../../../arm-none-eabi/lib/thumb/v6-m/nofp/libg_nano.a(lib_a-fprintf.o)
_free_r                                           /usr/local/Cellar/arm-none-eabi-gcc@8/8.5.0_2/lib/arm-none-eabi-gcc/8/gcc/arm-none-eabi/8.5.0/../../../../../../arm-none-eabi/lib/thumb/v6-m/nofp/libg_nano.a(lib_a-nano-freer.o)
                                                  /usr/local/Cellar/arm-none-eabi-gcc@8/8.5.0_2/lib/arm-none-eabi-gcc/8/gcc/arm-none-eabi/8.5.0/../../../../../../arm-none-eabi/lib/thumb/v6-m/nofp/libg_nano.a(lib_a-reent.o)
                                                  /usr/local/Cellar/arm-none-eabi-gcc@8/8.5.0_2/lib/arm-none-eabi-gcc/8/gcc/arm-none-eabi/8.5.0/../../../../../../arm-none-eabi/lib/thumb/v6-m/nofp/libg_nano.a(lib_a-nano-reallocr.o)
                                                  /usr/local/Cellar/arm-none-eabi-gcc@8/8.5.0_2/lib/arm-none-eabi-gcc/8/gcc/arm-none-eabi/8.5.0/../../../../../../arm-none-eabi/lib/thumb/v6-m/nofp/libg_nano.a(lib_a-fvwrite.o)
                                                  /usr/local/Cellar/arm-none-eabi-gcc@8/8.5.0_2/lib/arm-none-eabi-gcc/8/gcc/arm-none-eabi/8.5.0/../../../../../../arm-none-eabi/lib/thumb/v6-m/nofp/libg_nano.a(lib_a-fflush.o)
                                                  /usr/local/Cellar/arm-none-eabi-gcc@8/8.5.0_2/lib/arm-none-eabi-gcc/8/gcc/arm-none-eabi/8.5.0/../../../../../../arm-none-eabi/lib/thumb/v6-m/nofp/libg_nano.a(lib_a-wsetup.o)
                                                  /usr/local/Cellar/arm-none-eabi-gcc@8/8.5.0_2/lib/arm-none-eabi-gcc/8/gcc/arm-none-eabi/8.5.0/../../../../../../arm-none-eabi/lib/thumb/v6-m/nofp/libg_nano.a(lib_a-malloc.o)
_fstat_r                                          /var/folders/x9/cy1bx1f960zd_7xhdrxmk_zm0000gn/T//cc8Nwo3z.ltrans0.ltrans.o
                                                  .build/obj_converter_cumulus_ta15/lib/chibios/os/various/syscalls.o (symbol from plugin)
                                                  /usr/local/Cellar/arm-none-eabi-gcc@8/8.5.0_2/lib/arm-none-eabi-gcc/8/gcc/arm-none-eabi/8.5.0/../../../../../../arm-none-eabi/lib/thumb/v6-m/nofp/libg_nano.a(lib_a-makebuf.o)
_fwalk                                            /usr/local/Cellar/arm-none-eabi-gcc@8/8.5.0_2/lib/arm-none-eabi-gcc/8/gcc/arm-none-eabi/8.5.0/../../../../../../arm-none-eabi/lib/thumb/v6-m/nofp/libg_nano.a(lib_a-fwalk.o)
                                                  /usr/local/Cellar/arm-none-eabi-gcc@8/8.5.0_2/lib/arm-none-eabi-gcc/8/gcc/arm-none-eabi/8.5.0/../../../../../../arm-none-eabi/lib/thumb/v6-m/nofp/libg_nano.a(lib_a-findfp.o)
_fwalk_reent                                      /usr/local/Cellar/arm-none-eabi-gcc@8/8.5.0_2/lib/arm-none-eabi-gcc/8/gcc/arm-none-eabi/8.5.0/../../../../../../arm-none-eabi/lib/thumb/v6-m/nofp/libg_nano.a(lib_a-fwalk.o)
                                                  /usr/local/Cellar/arm-none-eabi-gcc@8/8.5.0_2/lib/arm-none-eabi-gcc/8/gcc/arm-none-eabi/8.5.0/../../../../../../arm-none-eabi/lib/thumb/v6-m/nofp/libg_nano.a(lib_a-findfp.o)
                                                  /usr/local/Cellar/arm-none-eabi-gcc@8/8.5.0_2/lib/arm-none-eabi-gcc/8/gcc/arm-none-eabi/8.5.0/../../../../../../arm-none-eabi/lib/thumb/v6-m/nofp/libg_nano.a(lib_a-fflush.o)
_getpid                                           /var/folders/x9/cy1bx1f960zd_7xhdrxmk_zm0000gn/T//cc8Nwo3z.ltrans0.ltrans.o
                                                  .build/obj_converter_cumulus_ta15/lib/chibios/os/various/syscalls.o (symbol from plugin)
                                                  /usr/local/Cellar/arm-none-eabi-gcc@8/8.5.0_2/lib/arm-none-eabi-gcc/8/gcc/arm-none-eabi/8.5.0/../../../../../../arm-none-eabi/lib/thumb/v6-m/nofp/libg_nano.a(lib_a-signalr.o)
_getpid_r                                         /usr/local/Cellar/arm-none-eabi-gcc@8/8.5.0_2/lib/arm-none-eabi-gcc/8/gcc/arm-none-eabi/8.5.0/../../../../../../arm-none-eabi/lib/thumb/v6-m/nofp/libg_nano.a(lib_a-signalr.o)
                                                  /usr/local/Cellar/arm-none-eabi-gcc@8/8.5.0_2/lib/arm-none-eabi-gcc/8/gcc/arm-none-eabi/8.5.0/../../../../../../arm-none-eabi/lib/thumb/v6-m/nofp/libg_nano.a(lib_a-signal.o)
_gettimeofday_r                                   /var/folders/x9/cy1bx1f960zd_7xhdrxmk_zm0000gn/T//cc8Nwo3z.ltrans0.ltrans.o
                                                  .build/obj_converter_cumulus_ta15/platforms/chibios/syscall-fallbacks.o (symbol from plugin)
_global_impure_ptr                                /usr/local/Cellar/arm-none-eabi-gcc@8/8.5.0_2/lib/arm-none-eabi-gcc/8/gcc/arm-none-eabi/8.5.0/../../../../../../arm-none-eabi/lib/thumb/v6-m/nofp/libg_nano.a(lib_a-impure.o)
                                                  /usr/local/Cellar/arm-none-eabi-gcc@8/8.5.0_2/lib/arm-none-eabi-gcc/8/gcc/arm-none-eabi/8.5.0/../../../../../../arm-none-eabi/lib/thumb/v6-m/nofp/libg_nano.a(lib_a-findfp.o)
                                                  /usr/local/Cellar/arm-none-eabi-gcc@8/8.5.0_2/lib/arm-none-eabi-gcc/8/gcc/arm-none-eabi/8.5.0/../../../../../../arm-none-eabi/lib/thumb/v6-m/nofp/libg_nano.a(lib_a-fflush.o)
_impure_ptr                                       /usr/local/Cellar/arm-none-eabi-gcc@8/8.5.0_2/lib/arm-none-eabi-gcc/8/gcc/arm-none-eabi/8.5.0/../../../../../../arm-none-eabi/lib/thumb/v6-m/nofp/libg_nano.a(lib_a-impure.o)
                                                  /usr/local/Cellar/arm-none-eabi-gcc@8/8.5.0_2/lib/arm-none-eabi-gcc/8/gcc/arm-none-eabi/8.5.0/../../../../../../arm-none-eabi/lib/thumb/v6-m/nofp/libg_nano.a(lib_a-reent.o)
                                                  /usr/local/Cellar/arm-none-eabi-gcc@8/8.5.0_2/lib/arm-none-eabi-gcc/8/gcc/arm-none-eabi/8.5.0/../../../../../../arm-none-eabi/lib/thumb/v6-m/nofp/libg_nano.a(lib_a-signal.o)
                                                  /usr/local/Cellar/arm-none-eabi-gcc@8/8.5.0_2/lib/arm-none-eabi-gcc/8/gcc/arm-none-eabi/8.5.0/../../../../../../arm-none-eabi/lib/thumb/v6-m/nofp/libg_nano.a(lib_a-findfp.o)
                                                  /usr/local/Cellar/arm-none-eabi-gcc@8/8.5.0_2/lib/arm-none-eabi-gcc/8/gcc/arm-none-eabi/8.5.0/../../../../../../arm-none-eabi/lib/thumb/v6-m/nofp/libg_nano.a(lib_a-fflush.o)
                                                  /usr/local/Cellar/arm-none-eabi-gcc@8/8.5.0_2/lib/arm-none-eabi-gcc/8/gcc/arm-none-eabi/8.5.0/../../../../../../arm-none-eabi/lib/thumb/v6-m/nofp/libg_nano.a(lib_a-wsetup.o)
                                                  /usr/local/Cellar/arm-none-eabi-gcc@8/8.5.0_2/lib/arm-none-eabi-gcc/8/gcc/arm-none-eabi/8.5.0/../../../../../../arm-none-eabi/lib/thumb/v6-m/nofp/libg_nano.a(lib_a-wbuf.o)
                                                  /usr/local/Cellar/arm-none-eabi-gcc@8/8.5.0_2/lib/arm-none-eabi-gcc/8/gcc/arm-none-eabi/8.5.0/../../../../../../arm-none-eabi/lib/thumb/v6-m/nofp/libg_nano.a(lib_a-nano-vfprintf.o)
                                                  /usr/local/Cellar/arm-none-eabi-gcc@8/8.5.0_2/lib/arm-none-eabi-gcc/8/gcc/arm-none-eabi/8.5.0/../../../../../../arm-none-eabi/lib/thumb/v6-m/nofp/libg_nano.a(lib_a-malloc.o)
                                                  /usr/local/Cellar/arm-none-eabi-gcc@8/8.5.0_2/lib/arm-none-eabi-gcc/8/gcc/arm-none-eabi/8.5.0/../../../../../../arm-none-eabi/lib/thumb/v6-m/nofp/libg_nano.a(lib_a-fprintf.o)
                                                  /usr/local/Cellar/arm-none-eabi-gcc@8/8.5.0_2/lib/arm-none-eabi-gcc/8/gcc/arm-none-eabi/8.5.0/../../../../../../arm-none-eabi/lib/thumb/v6-m/nofp/libg_nano.a(lib_a-assert.o)
                                                  /usr/local/Cellar/arm-none-eabi-gcc@8/8.5.0_2/lib/arm-none-eabi-gcc/8/gcc/arm-none-eabi/8.5.0/../../../../../../arm-none-eabi/lib/thumb/v6-m/nofp/libg_nano.a(lib_a-rand.o)
                                                  /usr/local/Cellar/arm-none-eabi-gcc@8/8.5.0_2/lib/arm-none-eabi-gcc/8/gcc/arm-none-eabi/8.5.0/../../../../../../arm-none-eabi/lib/thumb/v6-m/nofp/libg_nano.a(lib_a-errno.o)
_init_signal                                      /usr/local/Cellar/arm-none-eabi-gcc@8/8.5.0_2/lib/arm-none-eabi-gcc/8/gcc/arm-none-eabi/8.5.0/../../../../../../arm-none-eabi/lib/thumb/v6-m/nofp/libg_nano.a(lib_a-signal.o)
_init_signal_r                                    /usr/local/Cellar/arm-none-eabi-gcc@8/8.5.0_2/lib/arm-none-eabi-gcc/8/gcc/arm-none-eabi/8.5.0/../../../../../../arm-none-eabi/lib/thumb/v6-m/nofp/libg_nano.a(lib_a-signal.o)
_isatty_r                                         /var/folders/x9/cy1bx1f960zd_7xhdrxmk_zm0000gn/T//cc8Nwo3z.ltrans0.ltrans.o
                                                  .build/obj_converter_cumulus_ta15/lib/chibios/os/various/syscalls.o (symbol from plugin)
                                                  /usr/local/Cellar/arm-none-eabi-gcc@8/8.5.0_2/lib/arm-none-eabi-gcc/8/gcc/arm-none-eabi/8.5.0/../../../../../../arm-none-eabi/lib/thumb/v6-m/nofp/libg_nano.a(lib_a-makebuf.o)
_kill                                             /var/folders/x9/cy1bx1f960zd_7xhdrxmk_zm0000gn/T//cc8Nwo3z.ltrans0.ltrans.o
                                                  .build/obj_converter_cumulus_ta15/lib/chibios/os/various/syscalls.o (symbol from plugin)
                                                  /usr/local/Cellar/arm-none-eabi-gcc@8/8.5.0_2/lib/arm-none-eabi-gcc/8/gcc/arm-none-eabi/8.5.0/../../../../../../arm-none-eabi/lib/thumb/v6-m/nofp/libg_nano.a(lib_a-signalr.o)
_kill_r                                           /usr/local/Cellar/arm-none-eabi-gcc@8/8.5.0_2/lib/arm-none-eabi-gcc/8/gcc/arm-none-eabi/8.5.0/../../../../../../arm-none-eabi/lib/thumb/v6-m/nofp/libg_nano.a(lib_a-signalr.o)
                                                  /usr/local/Cellar/arm-none-eabi-gcc@8/8.5.0_2/lib/arm-none-eabi-gcc/8/gcc/arm-none-eabi/8.5.0/../../../../../../arm-none-eabi/lib/thumb/v6-m/nofp/libg_nano.a(lib_a-signal.o)
_link_r                                           /var/folders/x9/cy1bx1f960zd_7xhdrxmk_zm0000gn/T//cc8Nwo3z.ltrans0.ltrans.o
                                                  .build/obj_converter_cumulus_ta15/platforms/chibios/syscall-fallbacks.o (symbol from plugin)
_lseek_r                                          /var/folders/x9/cy1bx1f960zd_7xhdrxmk_zm0000gn/T//cc8Nwo3z.ltrans0.ltrans.o
                                                  .build/obj_converter_cumulus_ta15/lib/chibios/os/various/syscalls.o (symbol from plugin)
                                                  /usr/local/Cellar/arm-none-eabi-gcc@8/8.5.0_2/lib/arm-none-eabi-gcc/8/gcc/arm-none-eabi/8.5.0/../../../../../../arm-none-eabi/lib/thumb/v6-m/nofp/libg_nano.a(lib_a-stdio.o)
_malloc_r                                         /usr/local/Cellar/arm-none-eabi-gcc@8/8.5.0_2/lib/arm-none-eabi-gcc/8/gcc/arm-none-eabi/8.5.0/../../../../../../arm-none-eabi/lib/thumb/v6-m/nofp/libg_nano.a(lib_a-nano-mallocr.o)
                                                  /usr/local/Cellar/arm-none-eabi-gcc@8/8.5.0_2/lib/arm-none-eabi-gcc/8/gcc/arm-none-eabi/8.5.0/../../../../../../arm-none-eabi/lib/thumb/v6-m/nofp/libg_nano.a(lib_a-signal.o)
                                                  /usr/local/Cellar/arm-none-eabi-gcc@8/8.5.0_2/lib/arm-none-eabi-gcc/8/gcc/arm-none-eabi/8.5.0/../../../../../../arm-none-eabi/lib/thumb/v6-m/nofp/libg_nano.a(lib_a-nano-reallocr.o)
                                                  /usr/local/Cellar/arm-none-eabi-gcc@8/8.5.0_2/lib/arm-none-eabi-gcc/8/gcc/arm-none-eabi/8.5.0/../../../../../../arm-none-eabi/lib/thumb/v6-m/nofp/libg_nano.a(lib_a-makebuf.o)
                                                  /usr/local/Cellar/arm-none-eabi-gcc@8/8.5.0_2/lib/arm-none-eabi-gcc/8/gcc/arm-none-eabi/8.5.0/../../../../../../arm-none-eabi/lib/thumb/v6-m/nofp/libg_nano.a(lib_a-fvwrite.o)
                                                  /usr/local/Cellar/arm-none-eabi-gcc@8/8.5.0_2/lib/arm-none-eabi-gcc/8/gcc/arm-none-eabi/8.5.0/../../../../../../arm-none-eabi/lib/thumb/v6-m/nofp/libg_nano.a(lib_a-findfp.o)
                                                  /usr/local/Cellar/arm-none-eabi-gcc@8/8.5.0_2/lib/arm-none-eabi-gcc/8/gcc/arm-none-eabi/8.5.0/../../../../../../arm-none-eabi/lib/thumb/v6-m/nofp/libg_nano.a(lib_a-malloc.o)
_malloc_usable_size_r                             /usr/local/Cellar/arm-none-eabi-gcc@8/8.5.0_2/lib/arm-none-eabi-gcc/8/gcc/arm-none-eabi/8.5.0/../../../../../../arm-none-eabi/lib/thumb/v6-m/nofp/libg_nano.a(lib_a-nano-msizer.o)
                                                  /usr/local/Cellar/arm-none-eabi-gcc@8/8.5.0_2/lib/arm-none-eabi-gcc/8/gcc/arm-none-eabi/8.5.0/../../../../../../arm-none-eabi/lib/thumb/v6-m/nofp/libg_nano.a(lib_a-nano-reallocr.o)
_open_r                                           /var/folders/x9/cy1bx1f960zd_7xhdrxmk_zm0000gn/T//cc8Nwo3z.ltrans0.ltrans.o
                                                  .build/obj_converter_cumulus_ta15/lib/chibios/os/various/syscalls.o (symbol from plugin)
_printf_common                                    /usr/local/Cellar/arm-none-eabi-gcc@8/8.5.0_2/lib/arm-none-eabi-gcc/8/gcc/arm-none-eabi/8.5.0/../../../../../../arm-none-eabi/lib/thumb/v6-m/nofp/libg_nano.a(lib_a-nano-vfprintf_i.o)
_printf_float                                     /usr/local/Cellar/arm-none-eabi-gcc@8/8.5.0_2/lib/arm-none-eabi-gcc/8/gcc/arm-none-eabi/8.5.0/../../../../../../arm-none-eabi/lib/thumb/v6-m/nofp/libg_nano.a(lib_a-nano-vfprintf.o)
_printf_i                                         /usr/local/Cellar/arm-none-eabi-gcc@8/8.5.0_2/lib/arm-none-eabi-gcc/8/gcc/arm-none-eabi/8.5.0/../../../../../../arm-none-eabi/lib/thumb/v6-m/nofp/libg_nano.a(lib_a-nano-vfprintf_i.o)
                                                  /usr/local/Cellar/arm-none-eabi-gcc@8/8.5.0_2/lib/arm-none-eabi-gcc/8/gcc/arm-none-eabi/8.5.0/../../../../../../arm-none-eabi/lib/thumb/v6-m/nofp/libg_nano.a(lib_a-nano-vfprintf.o)
_raise_r                                          /usr/local/Cellar/arm-none-eabi-gcc@8/8.5.0_2/lib/arm-none-eabi-gcc/8/gcc/arm-none-eabi/8.5.0/../../../../../../arm-none-eabi/lib/thumb/v6-m/nofp/libg_nano.a(lib_a-signal.o)
_read_r                                           /var/folders/x9/cy1bx1f960zd_7xhdrxmk_zm0000gn/T//cc8Nwo3z.ltrans0.ltrans.o
                                                  .build/obj_converter_cumulus_ta15/lib/chibios/os/various/syscalls.o (symbol from plugin)
                                                  /usr/local/Cellar/arm-none-eabi-gcc@8/8.5.0_2/lib/arm-none-eabi-gcc/8/gcc/arm-none-eabi/8.5.0/../../../../../../arm-none-eabi/lib/thumb/v6-m/nofp/libg_nano.a(lib_a-stdio.o)
_realloc_r                                        /usr/local/Cellar/arm-none-eabi-gcc@8/8.5.0_2/lib/arm-none-eabi-gcc/8/gcc/arm-none-eabi/8.5.0/../../../../../../arm-none-eabi/lib/thumb/v6-m/nofp/libg_nano.a(lib_a-nano-reallocr.o)
                                                  /usr/local/Cellar/arm-none-eabi-gcc@8/8.5.0_2/lib/arm-none-eabi-gcc/8/gcc/arm-none-eabi/8.5.0/../../../../../../arm-none-eabi/lib/thumb/v6-m/nofp/libg_nano.a(lib_a-fvwrite.o)
_reclaim_reent                                    /usr/local/Cellar/arm-none-eabi-gcc@8/8.5.0_2/lib/arm-none-eabi-gcc/8/gcc/arm-none-eabi/8.5.0/../../../../../../arm-none-eabi/lib/thumb/v6-m/nofp/libg_nano.a(lib_a-reent.o)
_sbrk_r                                           /var/folders/x9/cy1bx1f960zd_7xhdrxmk_zm0000gn/T//cc8Nwo3z.ltrans0.ltrans.o
                                                  .build/obj_converter_cumulus_ta15/lib/chibios/os/various/syscalls.o (symbol from plugin)
                                                  /usr/local/Cellar/arm-none-eabi-gcc@8/8.5.0_2/lib/arm-none-eabi-gcc/8/gcc/arm-none-eabi/8.5.0/../../../../../../arm-none-eabi/lib/thumb/v6-m/nofp/libg_nano.a(lib_a-nano-mallocr.o)
_signal_r                                         /usr/local/Cellar/arm-none-eabi-gcc@8/8.5.0_2/lib/arm-none-eabi-gcc/8/gcc/arm-none-eabi/8.5.0/../../../../../../arm-none-eabi/lib/thumb/v6-m/nofp/libg_nano.a(lib_a-signal.o)
_times_r                                          /var/folders/x9/cy1bx1f960zd_7xhdrxmk_zm0000gn/T//cc8Nwo3z.ltrans0.ltrans.o
                                                  .build/obj_converter_cumulus_ta15/platforms/chibios/syscall-fallbacks.o (symbol from plugin)
_unhandled_exception                              .build/obj_converter_cumulus_ta15_vial/./lib/chibios/os/common/startup/ARMCMx/compilers/GCC/vectors.o
_unlink_r                                         /var/folders/x9/cy1bx1f960zd_7xhdrxmk_zm0000gn/T//cc8Nwo3z.ltrans0.ltrans.o
                                                  .build/obj_converter_cumulus_ta15/platforms/chibios/syscall-fallbacks.o (symbol from plugin)
_usb_ep0in                                        .build/obj_converter_cumulus_ta15/lib/chibios/os/hal/src/hal_usb.o (symbol from plugin)
                                                  .build/obj_converter_cumulus_ta15/lib/chibios-contrib/os/hal/ports/RP/LLD/USBDv1/hal_usb_lld.o (symbol from plugin)
_usb_ep0out                                       .build/obj_converter_cumulus_ta15/lib/chibios/os/hal/src/hal_usb.o (symbol from plugin)
                                                  .build/obj_converter_cumulus_ta15/lib/chibios-contrib/os/hal/ports/RP/LLD/USBDv1/hal_usb_lld.o (symbol from plugin)
_usb_ep0setup                                     .build/obj_converter_cumulus_ta15/lib/chibios/os/hal/src/hal_usb.o (symbol from plugin)
                                                  .build/obj_converter_cumulus_ta15/lib/chibios-contrib/os/hal/ports/RP/LLD/USBDv1/hal_usb_lld.o (symbol from plugin)
_usb_reset                                        .build/obj_converter_cumulus_ta15/lib/chibios/os/hal/src/hal_usb.o (symbol from plugin)
                                                  .build/obj_converter_cumulus_ta15/lib/chibios-contrib/os/hal/ports/RP/LLD/USBDv1/hal_usb_lld.o (symbol from plugin)
_usb_suspend                                      .build/obj_converter_cumulus_ta15/lib/chibios/os/hal/src/hal_usb.o (symbol from plugin)
                                                  .build/obj_converter_cumulus_ta15/lib/chibios-contrib/os/hal/ports/RP/LLD/USBDv1/hal_usb_lld.o (symbol from plugin)
_usb_wakeup                                       .build/obj_converter_cumulus_ta15/lib/chibios/os/hal/src/hal_usb.o (symbol from plugin)
                                                  .build/obj_converter_cumulus_ta15/lib/chibios-contrib/os/hal/ports/RP/LLD/USBDv1/hal_usb_lld.o (symbol from plugin)
_vectors                                          .build/obj_converter_cumulus_ta15_vial/./lib/chibios/os/common/startup/ARMCMx/compilers/GCC/vectors.o
                                                  .build/obj_converter_cumulus_ta15_vial/./lib/chibios/os/common/startup/ARMCMx/compilers/GCC/crt0_v6m.o
_vfiprintf_r                                      /usr/local/Cellar/arm-none-eabi-gcc@8/8.5.0_2/lib/arm-none-eabi-gcc/8/gcc/arm-none-eabi/8.5.0/../../../../../../arm-none-eabi/lib/thumb/v6-m/nofp/libg_nano.a(lib_a-nano-vfprintf.o)
_vfprintf_r                                       /usr/local/Cellar/arm-none-eabi-gcc@8/8.5.0_2/lib/arm-none-eabi-gcc/8/gcc/arm-none-eabi/8.5.0/../../../../../../arm-none-eabi/lib/thumb/v6-m/nofp/libg_nano.a(lib_a-nano-vfprintf.o)
                                                  /usr/local/Cellar/arm-none-eabi-gcc@8/8.5.0_2/lib/arm-none-eabi-gcc/8/gcc/arm-none-eabi/8.5.0/../../../../../../arm-none-eabi/lib/thumb/v6-m/nofp/libg_nano.a(lib_a-fprintf.o)
_watchdog_enable                                  .build/obj_converter_cumulus_ta15/./lib/pico-sdk/src/rp2_common/hardware_watchdog/watchdog.o (symbol from plugin)
_write_r                                          /var/folders/x9/cy1bx1f960zd_7xhdrxmk_zm0000gn/T//cc8Nwo3z.ltrans0.ltrans.o
                                                  .build/obj_converter_cumulus_ta15/lib/chibios/os/various/syscalls.o (symbol from plugin)
                                                  /usr/local/Cellar/arm-none-eabi-gcc@8/8.5.0_2/lib/arm-none-eabi-gcc/8/gcc/arm-none-eabi/8.5.0/../../../../../../arm-none-eabi/lib/thumb/v6-m/nofp/libg_nano.a(lib_a-stdio.o)
abort                                             /usr/local/Cellar/arm-none-eabi-gcc@8/8.5.0_2/lib/arm-none-eabi-gcc/8/gcc/arm-none-eabi/8.5.0/../../../../../../arm-none-eabi/lib/thumb/v6-m/nofp/libg_nano.a(lib_a-abort.o)
                                                  /usr/local/Cellar/arm-none-eabi-gcc@8/8.5.0_2/lib/arm-none-eabi-gcc/8/gcc/arm-none-eabi/8.5.0/../../../../../../arm-none-eabi/lib/thumb/v6-m/nofp/libg_nano.a(lib_a-assert.o)
action.c.d870710c                                 /var/folders/x9/cy1bx1f960zd_7xhdrxmk_zm0000gn/T//ccbHuJM1debugobj
                                                  /var/folders/x9/cy1bx1f960zd_7xhdrxmk_zm0000gn/T//cc8Nwo3z.ltrans1.ltrans.o
                                                  /var/folders/x9/cy1bx1f960zd_7xhdrxmk_zm0000gn/T//cc8Nwo3z.ltrans0.ltrans.o
action_exec                                       /var/folders/x9/cy1bx1f960zd_7xhdrxmk_zm0000gn/T//cc8Nwo3z.ltrans1.ltrans.o
                                                  .build/obj_converter_cumulus_ta15_vial/quantum/action.o (symbol from plugin)
                                                  /var/folders/x9/cy1bx1f960zd_7xhdrxmk_zm0000gn/T//cc8Nwo3z.ltrans0.ltrans.o
                                                  .build/obj_converter_cumulus_ta15_vial/quantum/vial.o (symbol from plugin)
                                                  .build/obj_converter_cumulus_ta15_vial/quantum/keyboard.o (symbol from plugin)
action_for_key                                    .build/obj_converter_cumulus_ta15_vial/quantum/keymap_common.o (symbol from plugin)
                                                  .build/obj_converter_cumulus_ta15_vial/quantum/action_layer.o (symbol from plugin)
action_for_keycode                                .build/obj_converter_cumulus_ta15_vial/quantum/keymap_common.o (symbol from plugin)
                                                  .build/obj_converter_cumulus_ta15_vial/quantum/action.o (symbol from plugin)
action_layer.c.a77f9146                           /var/folders/x9/cy1bx1f960zd_7xhdrxmk_zm0000gn/T//ccbHuJM1debugobj
                                                  /var/folders/x9/cy1bx1f960zd_7xhdrxmk_zm0000gn/T//cc8Nwo3z.ltrans1.ltrans.o
                                                  /var/folders/x9/cy1bx1f960zd_7xhdrxmk_zm0000gn/T//cc8Nwo3z.ltrans0.ltrans.o
action_tapping.c.a881ae7b                         /var/folders/x9/cy1bx1f960zd_7xhdrxmk_zm0000gn/T//ccbHuJM1debugobj
                                                  /var/folders/x9/cy1bx1f960zd_7xhdrxmk_zm0000gn/T//cc8Nwo3z.ltrans1.ltrans.o
                                                  /var/folders/x9/cy1bx1f960zd_7xhdrxmk_zm0000gn/T//cc8Nwo3z.ltrans0.ltrans.o
action_tapping_process                            /var/folders/x9/cy1bx1f960zd_7xhdrxmk_zm0000gn/T//cc8Nwo3z.ltrans0.ltrans.o
                                                  .build/obj_converter_cumulus_ta15_vial/quantum/action_tapping.o (symbol from plugin)
                                                  /var/folders/x9/cy1bx1f960zd_7xhdrxmk_zm0000gn/T//cc8Nwo3z.ltrans1.ltrans.o
                                                  .build/obj_converter_cumulus_ta15_vial/quantum/process_keycode/process_combo.o (symbol from plugin)
                                                  .build/obj_converter_cumulus_ta15_vial/quantum/action.o (symbol from plugin)
action_util.c.c9941ec7                            /var/folders/x9/cy1bx1f960zd_7xhdrxmk_zm0000gn/T//ccbHuJM1debugobj
                                                  /var/folders/x9/cy1bx1f960zd_7xhdrxmk_zm0000gn/T//cc8Nwo3z.ltrans1.ltrans.o
                                                  /var/folders/x9/cy1bx1f960zd_7xhdrxmk_zm0000gn/T//cc8Nwo3z.ltrans0.ltrans.o
add_key                                           .build/obj_converter_cumulus_ta15_vial/quantum/action_util.o (symbol from plugin)
                                                  .build/obj_converter_cumulus_ta15_vial/quantum/process_keycode/process_key_override.o (symbol from plugin)
                                                  .build/obj_converter_cumulus_ta15_vial/quantum/process_keycode/process_grave_esc.o (symbol from plugin)
                                                  .build/obj_converter_cumulus_ta15_vial/quantum/action.o (symbol from plugin)
add_key_bit                                       .build/obj_converter_cumulus_ta15_vial/protocol/report.o (symbol from plugin)
add_key_byte                                      .build/obj_converter_cumulus_ta15_vial/protocol/report.o (symbol from plugin)
add_key_to_report                                 .build/obj_converter_cumulus_ta15_vial/protocol/report.o (symbol from plugin)
                                                  .build/obj_converter_cumulus_ta15_vial/quantum/process_keycode/process_key_override.o (symbol from plugin)
                                                  .build/obj_converter_cumulus_ta15_vial/quantum/process_keycode/process_grave_esc.o (symbol from plugin)
                                                  .build/obj_converter_cumulus_ta15_vial/quantum/action_util.o (symbol from plugin)
                                                  .build/obj_converter_cumulus_ta15_vial/quantum/action.o (symbol from plugin)
add_mods                                          .build/obj_converter_cumulus_ta15_vial/quantum/action_util.o (symbol from plugin)
                                                  .build/obj_converter_cumulus_ta15_vial/quantum/process_keycode/process_tap_dance.o (symbol from plugin)
                                                  .build/obj_converter_cumulus_ta15_vial/quantum/process_keycode/process_auto_shift.o (symbol from plugin)
                                                  .build/obj_converter_cumulus_ta15_vial/quantum/action.o (symbol from plugin)
add_oneshot_mods                                  .build/obj_converter_cumulus_ta15_vial/quantum/action_util.o (symbol from plugin)
add_weak_mods                                     .build/obj_converter_cumulus_ta15_vial/quantum/action_util.o (symbol from plugin)
                                                  .build/obj_converter_cumulus_ta15_vial/quantum/process_keycode/process_tap_dance.o (symbol from plugin)
                                                  .build/obj_converter_cumulus_ta15_vial/quantum/process_keycode/process_auto_shift.o (symbol from plugin)
                                                  .build/obj_converter_cumulus_ta15_vial/quantum/action.o (symbol from plugin)
apply_combo                                       .build/obj_converter_cumulus_ta15_vial/quantum/process_keycode/process_combo.o (symbol from plugin)
apply_combos.lto_priv.144                         /var/folders/x9/cy1bx1f960zd_7xhdrxmk_zm0000gn/T//cc8Nwo3z.ltrans0.ltrans.o
                                                  /var/folders/x9/cy1bx1f960zd_7xhdrxmk_zm0000gn/T//cc8Nwo3z.ltrans1.ltrans.o
ascii_to_altgr_lut                                .build/obj_converter_cumulus_ta15_vial/quantum/send_string/send_string.o (symbol from plugin)
ascii_to_dead_lut                                 .build/obj_converter_cumulus_ta15_vial/quantum/send_string/send_string.o (symbol from plugin)
ascii_to_keycode_lut                              .build/obj_converter_cumulus_ta15_vial/quantum/send_string/send_string.o (symbol from plugin)
ascii_to_shift_lut                                .build/obj_converter_cumulus_ta15_vial/quantum/send_string/send_string.o (symbol from plugin)
autoshift_disable                                 .build/obj_converter_cumulus_ta15_vial/quantum/process_keycode/process_auto_shift.o (symbol from plugin)
autoshift_enable                                  .build/obj_converter_cumulus_ta15_vial/quantum/process_keycode/process_auto_shift.o (symbol from plugin)
autoshift_matrix_scan                             .build/obj_converter_cumulus_ta15_vial/quantum/process_keycode/process_auto_shift.o (symbol from plugin)
                                                  .build/obj_converter_cumulus_ta15_vial/quantum/keyboard.o (symbol from plugin)
autoshift_press_user                              .build/obj_converter_cumulus_ta15_vial/quantum/process_keycode/process_auto_shift.o (symbol from plugin)
autoshift_release_user                            .build/obj_converter_cumulus_ta15_vial/quantum/process_keycode/process_auto_shift.o (symbol from plugin)
autoshift_toggle                                  .build/obj_converter_cumulus_ta15_vial/quantum/process_keycode/process_auto_shift.o (symbol from plugin)
b_combo_enable.lto_priv.132                       /var/folders/x9/cy1bx1f960zd_7xhdrxmk_zm0000gn/T//cc8Nwo3z.ltrans0.ltrans.o
                                                  /var/folders/x9/cy1bx1f960zd_7xhdrxmk_zm0000gn/T//cc8Nwo3z.ltrans1.ltrans.o
backing_store_erase                               .build/obj_converter_cumulus_ta15_vial/wear_leveling_rp2040_flash.o (symbol from plugin)
                                                  .build/obj_converter_cumulus_ta15_vial/wear_leveling.o (symbol from plugin)
backing_store_init                                .build/obj_converter_cumulus_ta15_vial/wear_leveling_rp2040_flash.o (symbol from plugin)
                                                  .build/obj_converter_cumulus_ta15_vial/wear_leveling.o (symbol from plugin)
backing_store_lock                                .build/obj_converter_cumulus_ta15_vial/wear_leveling_rp2040_flash.o (symbol from plugin)
                                                  .build/obj_converter_cumulus_ta15_vial/wear_leveling.o (symbol from plugin)
backing_store_read                                .build/obj_converter_cumulus_ta15_vial/wear_leveling_rp2040_flash.o (symbol from plugin)
                                                  .build/obj_converter_cumulus_ta15_vial/wear_leveling.o (symbol from plugin)
backing_store_read_bulk                           .build/obj_converter_cumulus_ta15_vial/wear_leveling_rp2040_flash.o (symbol from plugin)
                                                  .build/obj_converter_cumulus_ta15_vial/wear_leveling.o (symbol from plugin)
backing_store_unlock                              .build/obj_converter_cumulus_ta15_vial/wear_leveling_rp2040_flash.o (symbol from plugin)
                                                  .build/obj_converter_cumulus_ta15_vial/wear_leveling.o (symbol from plugin)
backing_store_write                               .build/obj_converter_cumulus_ta15_vial/wear_leveling_rp2040_flash.o (symbol from plugin)
                                                  .build/obj_converter_cumulus_ta15_vial/wear_leveling.o (symbol from plugin)
backing_store_write_bulk                          .build/obj_converter_cumulus_ta15_vial/wear_leveling_rp2040_flash.o (symbol from plugin)
                                                  .build/obj_converter_cumulus_ta15_vial/wear_leveling.o (symbol from plugin)
biton                                             .build/obj_converter_cumulus_ta15_vial/quantum/bitwise.o (symbol from plugin)
                                                  .build/obj_converter_cumulus_ta15_vial/protocol/report.o (symbol from plugin)
biton16                                           .build/obj_converter_cumulus_ta15_vial/quantum/bitwise.o (symbol from plugin)
biton32                                           .build/obj_converter_cumulus_ta15_vial/quantum/bitwise.o (symbol from plugin)
bitpop                                            .build/obj_converter_cumulus_ta15_vial/quantum/bitwise.o (symbol from plugin)
                                                  .build/obj_converter_cumulus_ta15_vial/quantum/action_util.o (symbol from plugin)
bitpop16                                          .build/obj_converter_cumulus_ta15_vial/quantum/bitwise.o (symbol from plugin)
bitpop32                                          .build/obj_converter_cumulus_ta15_vial/quantum/bitwise.o (symbol from plugin)
bitrev                                            /var/folders/x9/cy1bx1f960zd_7xhdrxmk_zm0000gn/T//cc8Nwo3z.ltrans1.ltrans.o
                                                  .build/obj_converter_cumulus_ta15_vial/quantum/bitwise.o (symbol from plugin)
                                                  /var/folders/x9/cy1bx1f960zd_7xhdrxmk_zm0000gn/T//cc8Nwo3z.ltrans0.ltrans.o
bitrev16                                          .build/obj_converter_cumulus_ta15_vial/quantum/bitwise.o (symbol from plugin)
bitrev32                                          .build/obj_converter_cumulus_ta15_vial/quantum/bitwise.o (symbol from plugin)
                                                  .build/obj_converter_cumulus_ta15_vial/quantum/matrix_common.o (symbol from plugin)
bitwise.c.58a62397                                /var/folders/x9/cy1bx1f960zd_7xhdrxmk_zm0000gn/T//ccbHuJM1debugobj
                                                  /var/folders/x9/cy1bx1f960zd_7xhdrxmk_zm0000gn/T//cc8Nwo3z.ltrans1.ltrans.o
                                                  /var/folders/x9/cy1bx1f960zd_7xhdrxmk_zm0000gn/T//cc8Nwo3z.ltrans0.ltrans.o
board.c.e9171d66                                  /var/folders/x9/cy1bx1f960zd_7xhdrxmk_zm0000gn/T//ccbHuJM1debugobj
                                                  /var/folders/x9/cy1bx1f960zd_7xhdrxmk_zm0000gn/T//cc8Nwo3z.ltrans0.ltrans.o
boardInit                                         .build/obj_converter_cumulus_ta15_vial/protocol/chibios/chibios.o (symbol from plugin)
                                                  .build/obj_converter_cumulus_ta15/lib/chibios/os/hal/src/hal.o (symbol from plugin)
board_init                                        .build/obj_converter_cumulus_ta15_vial/protocol/chibios/chibios.o (symbol from plugin)
bootloader_jump                                   .build/obj_converter_cumulus_ta15_vial/platforms/chibios/bootloaders/rp2040.o (symbol from plugin)
                                                  .build/obj_converter_cumulus_ta15_vial/quantum/bootmagic/bootmagic_lite.o (symbol from plugin)
                                                  .build/obj_converter_cumulus_ta15_vial/quantum/quantum.o (symbol from plugin)
bootmagic                                         .build/obj_converter_cumulus_ta15_vial/quantum/bootmagic/bootmagic_lite.o (symbol from plugin)
bootmagic_lite                                    .build/obj_converter_cumulus_ta15_vial/quantum/bootmagic/bootmagic_lite.o (symbol from plugin)
bootmagic_lite.c.c2a0f6ac                         /var/folders/x9/cy1bx1f960zd_7xhdrxmk_zm0000gn/T//ccbHuJM1debugobj
                                                  /var/folders/x9/cy1bx1f960zd_7xhdrxmk_zm0000gn/T//cc8Nwo3z.ltrans0.ltrans.o
bootmagic_lite_reset_eeprom                       .build/obj_converter_cumulus_ta15_vial/quantum/bootmagic/bootmagic_lite.o (symbol from plugin)
bootrom.c.db36fc41                                /var/folders/x9/cy1bx1f960zd_7xhdrxmk_zm0000gn/T//ccbHuJM1debugobj
                                                  /var/folders/x9/cy1bx1f960zd_7xhdrxmk_zm0000gn/T//cc8Nwo3z.ltrans0.ltrans.o
bsaObjectInit                                     .build/obj_converter_cumulus_ta15/lib/chibios/os/hal/lib/streams/bufstreams.o (symbol from plugin)
bufstreams.c.8488a8ab                             /var/folders/x9/cy1bx1f960zd_7xhdrxmk_zm0000gn/T//ccbHuJM1debugobj
ch0                                               .build/obj_converter_cumulus_ta15/lib/chibios/os/rt/src/chsys.o (symbol from plugin)
ch1                                               .build/obj_converter_cumulus_ta15/lib/chibios/os/rt/src/chsys.o (symbol from plugin)
chCoreAllocFromBase                               .build/obj_converter_cumulus_ta15_vial/./lib/chibios/os/oslib/src/chmemcore.o (symbol from plugin)
                                                  .build/obj_converter_cumulus_ta15/lib/chibios/os/various/syscalls.o (symbol from plugin)
chCoreAllocFromBaseI                              .build/obj_converter_cumulus_ta15_vial/./lib/chibios/os/oslib/src/chmemcore.o (symbol from plugin)
chCoreAllocFromTop                                .build/obj_converter_cumulus_ta15_vial/./lib/chibios/os/oslib/src/chmemcore.o (symbol from plugin)
chCoreAllocFromTopI                               .build/obj_converter_cumulus_ta15_vial/./lib/chibios/os/oslib/src/chmemcore.o (symbol from plugin)
chCoreGetStatusX                                  .build/obj_converter_cumulus_ta15_vial/./lib/chibios/os/oslib/src/chmemcore.o (symbol from plugin)
chEvtAddEvents                                    .build/obj_converter_cumulus_ta15/lib/chibios/os/rt/src/chevents.o (symbol from plugin)
chEvtBroadcastFlags                               .build/obj_converter_cumulus_ta15/lib/chibios/os/rt/src/chevents.o (symbol from plugin)
chEvtBroadcastFlagsI                              .build/obj_converter_cumulus_ta15/lib/chibios/os/rt/src/chevents.o (symbol from plugin)
                                                  .build/obj_converter_cumulus_ta15_vial/protocol/chibios/usb_driver.o (symbol from plugin)
chEvtDispatch                                     .build/obj_converter_cumulus_ta15/lib/chibios/os/rt/src/chevents.o (symbol from plugin)
chEvtGetAndClearEvents                            .build/obj_converter_cumulus_ta15/lib/chibios/os/rt/src/chevents.o (symbol from plugin)
chEvtGetAndClearEventsI                           .build/obj_converter_cumulus_ta15/lib/chibios/os/rt/src/chevents.o (symbol from plugin)
chEvtGetAndClearFlags                             .build/obj_converter_cumulus_ta15/lib/chibios/os/rt/src/chevents.o (symbol from plugin)
chEvtGetAndClearFlagsI                            .build/obj_converter_cumulus_ta15/lib/chibios/os/rt/src/chevents.o (symbol from plugin)
chEvtRegisterMaskWithFlags                        .build/obj_converter_cumulus_ta15/lib/chibios/os/rt/src/chevents.o (symbol from plugin)
chEvtRegisterMaskWithFlagsI                       .build/obj_converter_cumulus_ta15/lib/chibios/os/rt/src/chevents.o (symbol from plugin)
chEvtSignal                                       .build/obj_converter_cumulus_ta15/lib/chibios/os/rt/src/chevents.o (symbol from plugin)
chEvtSignalI                                      .build/obj_converter_cumulus_ta15/lib/chibios/os/rt/src/chevents.o (symbol from plugin)
chEvtUnregister                                   .build/obj_converter_cumulus_ta15/lib/chibios/os/rt/src/chevents.o (symbol from plugin)
chEvtWaitAll                                      .build/obj_converter_cumulus_ta15/lib/chibios/os/rt/src/chevents.o (symbol from plugin)
chEvtWaitAllTimeout                               .build/obj_converter_cumulus_ta15/lib/chibios/os/rt/src/chevents.o (symbol from plugin)
chEvtWaitAny                                      .build/obj_converter_cumulus_ta15/lib/chibios/os/rt/src/chevents.o (symbol from plugin)
chEvtWaitAnyTimeout                               .build/obj_converter_cumulus_ta15/lib/chibios/os/rt/src/chevents.o (symbol from plugin)
chEvtWaitOne                                      .build/obj_converter_cumulus_ta15/lib/chibios/os/rt/src/chevents.o (symbol from plugin)
chEvtWaitOneTimeout                               .build/obj_converter_cumulus_ta15/lib/chibios/os/rt/src/chevents.o (symbol from plugin)
chInstanceObjectInit                              .build/obj_converter_cumulus_ta15/lib/chibios/os/rt/src/chinstances.o (symbol from plugin)
                                                  .build/obj_converter_cumulus_ta15/lib/chibios/os/rt/src/chsys.o (symbol from plugin)
chMtxLock                                         .build/obj_converter_cumulus_ta15/lib/chibios/os/rt/src/chmtx.o (symbol from plugin)
chMtxLockS                                        .build/obj_converter_cumulus_ta15/lib/chibios/os/rt/src/chmtx.o (symbol from plugin)
chMtxObjectInit                                   .build/obj_converter_cumulus_ta15/lib/chibios/os/rt/src/chmtx.o (symbol from plugin)
chMtxTryLock                                      .build/obj_converter_cumulus_ta15/lib/chibios/os/rt/src/chmtx.o (symbol from plugin)
chMtxTryLockS                                     .build/obj_converter_cumulus_ta15/lib/chibios/os/rt/src/chmtx.o (symbol from plugin)
chMtxUnlock                                       .build/obj_converter_cumulus_ta15/lib/chibios/os/rt/src/chmtx.o (symbol from plugin)
chMtxUnlockAll                                    .build/obj_converter_cumulus_ta15/lib/chibios/os/rt/src/chmtx.o (symbol from plugin)
chMtxUnlockAllS                                   .build/obj_converter_cumulus_ta15/lib/chibios/os/rt/src/chmtx.o (symbol from plugin)
chMtxUnlockS                                      .build/obj_converter_cumulus_ta15/lib/chibios/os/rt/src/chmtx.o (symbol from plugin)
chRFCUCollectFaultsI                              .build/obj_converter_cumulus_ta15/lib/chibios/os/rt/src/chrfcu.o (symbol from plugin)
chRFCUGetAndClearFaultsI                          .build/obj_converter_cumulus_ta15/lib/chibios/os/rt/src/chrfcu.o (symbol from plugin)
chSchDoPreemption                                 /var/folders/x9/cy1bx1f960zd_7xhdrxmk_zm0000gn/T//cc8Nwo3z.ltrans0.ltrans.o
                                                  .build/obj_converter_cumulus_ta15/lib/chibios/os/rt/src/chschd.o (symbol from plugin)
                                                  .build/obj_converter_cumulus_ta15_vial/./lib/chibios/os/common/ports/ARMv6-M-RP2/compilers/GCC/chcoreasm.o
chSchDoYieldS                                     .build/obj_converter_cumulus_ta15/lib/chibios/os/rt/src/chschd.o (symbol from plugin)
                                                  .build/obj_converter_cumulus_ta15/lib/chibios/os/rt/src/chthreads.o (symbol from plugin)
chSchGoSleepS                                     .build/obj_converter_cumulus_ta15/lib/chibios/os/rt/src/chschd.o (symbol from plugin)
                                                  .build/obj_converter_cumulus_ta15/lib/chibios/os/rt/src/chevents.o (symbol from plugin)
                                                  .build/obj_converter_cumulus_ta15/lib/chibios/os/rt/src/chmtx.o (symbol from plugin)
                                                  .build/obj_converter_cumulus_ta15/lib/chibios/os/rt/src/chsem.o (symbol from plugin)
                                                  .build/obj_converter_cumulus_ta15/lib/chibios/os/rt/src/chthreads.o (symbol from plugin)
chSchGoSleepTimeoutS                              .build/obj_converter_cumulus_ta15/lib/chibios/os/rt/src/chschd.o (symbol from plugin)
                                                  .build/obj_converter_cumulus_ta15/lib/chibios/os/rt/src/chevents.o (symbol from plugin)
                                                  .build/obj_converter_cumulus_ta15/lib/chibios/os/rt/src/chsem.o (symbol from plugin)
                                                  .build/obj_converter_cumulus_ta15/lib/chibios/os/rt/src/chthreads.o (symbol from plugin)
chSchIsPreemptionRequired                         .build/obj_converter_cumulus_ta15/lib/chibios/os/rt/src/chschd.o (symbol from plugin)
                                                  .build/obj_converter_cumulus_ta15/lib/chibios/os/common/ports/ARMv6-M-RP2/chcore.o (symbol from plugin)
chSchPreemption                                   .build/obj_converter_cumulus_ta15/lib/chibios/os/rt/src/chschd.o (symbol from plugin)
chSchReadyI                                       .build/obj_converter_cumulus_ta15/lib/chibios/os/rt/src/chschd.o (symbol from plugin)
                                                  .build/obj_converter_cumulus_ta15/lib/chibios/os/rt/src/chevents.o (symbol from plugin)
                                                  .build/obj_converter_cumulus_ta15/lib/chibios/os/rt/src/chmtx.o (symbol from plugin)
                                                  .build/obj_converter_cumulus_ta15/lib/chibios/os/rt/src/chsem.o (symbol from plugin)
                                                  .build/obj_converter_cumulus_ta15/lib/chibios/os/rt/src/chthreads.o (symbol from plugin)
chSchRescheduleS                                  .build/obj_converter_cumulus_ta15/lib/chibios/os/rt/src/chschd.o (symbol from plugin)
                                                  .build/obj_converter_cumulus_ta15/lib/chibios/os/hal/src/hal_usb.o (symbol from plugin)
                                                  .build/obj_converter_cumulus_ta15/lib/chibios/os/rt/src/chevents.o (symbol from plugin)
                                                  .build/obj_converter_cumulus_ta15/lib/chibios/os/rt/src/chmtx.o (symbol from plugin)
                                                  .build/obj_converter_cumulus_ta15/lib/chibios/os/rt/src/chsem.o (symbol from plugin)
                                                  .build/obj_converter_cumulus_ta15/lib/chibios/os/rt/src/chthreads.o (symbol from plugin)
                                                  .build/obj_converter_cumulus_ta15/lib/chibios/os/rt/src/chsys.o (symbol from plugin)
                                                  .build/obj_converter_cumulus_ta15_vial/protocol/chibios/usb_driver.o (symbol from plugin)
chSchSelectFirst                                  .build/obj_converter_cumulus_ta15/lib/chibios/os/rt/src/chschd.o (symbol from plugin)
chSchWakeupS                                      .build/obj_converter_cumulus_ta15/lib/chibios/os/rt/src/chschd.o (symbol from plugin)
                                                  .build/obj_converter_cumulus_ta15/lib/chibios/os/rt/src/chsem.o (symbol from plugin)
                                                  .build/obj_converter_cumulus_ta15/lib/chibios/os/rt/src/chthreads.o (symbol from plugin)
chSemAddCounterI                                  .build/obj_converter_cumulus_ta15/lib/chibios/os/rt/src/chsem.o (symbol from plugin)
chSemObjectInit                                   .build/obj_converter_cumulus_ta15/lib/chibios/os/rt/src/chsem.o (symbol from plugin)
chSemResetWithMessage                             .build/obj_converter_cumulus_ta15/lib/chibios/os/rt/src/chsem.o (symbol from plugin)
chSemResetWithMessageI                            .build/obj_converter_cumulus_ta15/lib/chibios/os/rt/src/chsem.o (symbol from plugin)
chSemSignal                                       .build/obj_converter_cumulus_ta15/lib/chibios/os/rt/src/chsem.o (symbol from plugin)
chSemSignalI                                      .build/obj_converter_cumulus_ta15/lib/chibios/os/rt/src/chsem.o (symbol from plugin)
chSemSignalWait                                   .build/obj_converter_cumulus_ta15/lib/chibios/os/rt/src/chsem.o (symbol from plugin)
chSemWait                                         .build/obj_converter_cumulus_ta15/lib/chibios/os/rt/src/chsem.o (symbol from plugin)
chSemWaitS                                        .build/obj_converter_cumulus_ta15/lib/chibios/os/rt/src/chsem.o (symbol from plugin)
chSemWaitTimeout                                  .build/obj_converter_cumulus_ta15/lib/chibios/os/rt/src/chsem.o (symbol from plugin)
chSemWaitTimeoutS                                 .build/obj_converter_cumulus_ta15/lib/chibios/os/rt/src/chsem.o (symbol from plugin)
chSysGetIdleThreadX                               .build/obj_converter_cumulus_ta15/lib/chibios/os/rt/src/chsys.o (symbol from plugin)
chSysGetStatusAndLockX                            .build/obj_converter_cumulus_ta15/lib/chibios/os/rt/src/chsys.o (symbol from plugin)
chSysHalt                                         .build/obj_converter_cumulus_ta15/lib/chibios/os/rt/src/chsys.o (symbol from plugin)
                                                  .build/obj_converter_cumulus_ta15/platforms/chibios/vendors/RP/pico_sdk_shims.o (symbol from plugin)
                                                  .build/obj_converter_cumulus_ta15/lib/chibios/os/various/syscalls.o (symbol from plugin)
chSysInit                                         .build/obj_converter_cumulus_ta15/lib/chibios/os/rt/src/chsys.o (symbol from plugin)
                                                  .build/obj_converter_cumulus_ta15_vial/platforms/chibios/platform.o (symbol from plugin)
chSysIntegrityCheckI                              .build/obj_converter_cumulus_ta15/lib/chibios/os/rt/src/chsys.o (symbol from plugin)
chSysIsCounterWithinX                             .build/obj_converter_cumulus_ta15/lib/chibios/os/rt/src/chsys.o (symbol from plugin)
chSysPolledDelayX                                 .build/obj_converter_cumulus_ta15/lib/chibios/os/rt/src/chsys.o (symbol from plugin)
                                                  .build/obj_converter_cumulus_ta15_vial/platforms/chibios/bootloaders/rp2040.o (symbol from plugin)
                                                  .build/obj_converter_cumulus_ta15_vial/quantum/matrix_common.o (symbol from plugin)
chSysRestoreStatusX                               .build/obj_converter_cumulus_ta15/lib/chibios/os/rt/src/chsys.o (symbol from plugin)
chSysTimerHandlerI                                .build/obj_converter_cumulus_ta15/lib/chibios/os/rt/src/chsys.o (symbol from plugin)
                                                  .build/obj_converter_cumulus_ta15/lib/chibios/os/hal/ports/RP/LLD/TIMERv1/hal_st_lld.o (symbol from plugin)
chSysWaitSystemState                              .build/obj_converter_cumulus_ta15/lib/chibios/os/rt/src/chsys.o (symbol from plugin)
chThdCreate                                       .build/obj_converter_cumulus_ta15/lib/chibios/os/rt/src/chthreads.o (symbol from plugin)
chThdCreateI                                      .build/obj_converter_cumulus_ta15/lib/chibios/os/rt/src/chthreads.o (symbol from plugin)
                                                  .build/obj_converter_cumulus_ta15/lib/chibios/os/rt/src/chinstances.o (symbol from plugin)
chThdCreateStatic                                 .build/obj_converter_cumulus_ta15/lib/chibios/os/rt/src/chthreads.o (symbol from plugin)
chThdCreateSuspended                              .build/obj_converter_cumulus_ta15/lib/chibios/os/rt/src/chthreads.o (symbol from plugin)
chThdCreateSuspendedI                             .build/obj_converter_cumulus_ta15/lib/chibios/os/rt/src/chthreads.o (symbol from plugin)
chThdDequeueAllI                                  .build/obj_converter_cumulus_ta15/lib/chibios/os/rt/src/chthreads.o (symbol from plugin)
                                                  .build/obj_converter_cumulus_ta15/lib/chibios/os/hal/src/hal_queues.o (symbol from plugin)
                                                  .build/obj_converter_cumulus_ta15/lib/chibios/os/hal/src/hal_buffers.o (symbol from plugin)
                                                  .build/obj_converter_cumulus_ta15_vial/protocol/chibios/usb_driver.o (symbol from plugin)
chThdDequeueNextI                                 .build/obj_converter_cumulus_ta15/lib/chibios/os/rt/src/chthreads.o (symbol from plugin)
                                                  .build/obj_converter_cumulus_ta15/lib/chibios/os/hal/src/hal_queues.o (symbol from plugin)
                                                  .build/obj_converter_cumulus_ta15/lib/chibios/os/hal/src/hal_buffers.o (symbol from plugin)
chThdEnqueueTimeoutS                              .build/obj_converter_cumulus_ta15/lib/chibios/os/rt/src/chthreads.o (symbol from plugin)
                                                  .build/obj_converter_cumulus_ta15/lib/chibios/os/hal/src/hal_queues.o (symbol from plugin)
                                                  .build/obj_converter_cumulus_ta15/lib/chibios/os/hal/src/hal_buffers.o (symbol from plugin)
chThdExit                                         /var/folders/x9/cy1bx1f960zd_7xhdrxmk_zm0000gn/T//cc8Nwo3z.ltrans0.ltrans.o
                                                  .build/obj_converter_cumulus_ta15/lib/chibios/os/rt/src/chthreads.o (symbol from plugin)
                                                  .build/obj_converter_cumulus_ta15_vial/./lib/chibios/os/common/ports/ARMv6-M-RP2/compilers/GCC/chcoreasm.o
chThdExitS                                        .build/obj_converter_cumulus_ta15/lib/chibios/os/rt/src/chthreads.o (symbol from plugin)
chThdResume                                       .build/obj_converter_cumulus_ta15/lib/chibios/os/rt/src/chthreads.o (symbol from plugin)
chThdResumeI                                      .build/obj_converter_cumulus_ta15/lib/chibios/os/rt/src/chthreads.o (symbol from plugin)
                                                  .build/obj_converter_cumulus_ta15/lib/chibios-contrib/os/hal/ports/RP/LLD/USBDv1/hal_usb_lld.o (symbol from plugin)
                                                  .build/obj_converter_cumulus_ta15/lib/chibios/os/hal/src/hal_usb.o (symbol from plugin)
chThdResumeS                                      .build/obj_converter_cumulus_ta15/lib/chibios/os/rt/src/chthreads.o (symbol from plugin)
chThdSetPriority                                  .build/obj_converter_cumulus_ta15/lib/chibios/os/rt/src/chthreads.o (symbol from plugin)
chThdSleep                                        /var/folders/x9/cy1bx1f960zd_7xhdrxmk_zm0000gn/T//cc8Nwo3z.ltrans0.ltrans.o
                                                  .build/obj_converter_cumulus_ta15/lib/chibios/os/rt/src/chthreads.o (symbol from plugin)
                                                  /var/folders/x9/cy1bx1f960zd_7xhdrxmk_zm0000gn/T//cc8Nwo3z.ltrans1.ltrans.o
                                                  .build/obj_converter_cumulus_ta15/lib/chibios/os/hal/src/hal_flash.o (symbol from plugin)
                                                  .build/obj_converter_cumulus_ta15_vial/protocol/chibios/chibios.o (symbol from plugin)
                                                  .build/obj_converter_cumulus_ta15_vial/protocol/chibios/usb_main.o (symbol from plugin)
                                                  .build/obj_converter_cumulus_ta15_vial/platforms/chibios/suspend.o (symbol from plugin)
                                                  .build/obj_converter_cumulus_ta15_vial/quantum/process_keycode/process_tap_dance.o (symbol from plugin)
                                                  .build/obj_converter_cumulus_ta15_vial/quantum/process_keycode/process_key_override.o (symbol from plugin)
                                                  .build/obj_converter_cumulus_ta15_vial/quantum/process_keycode/process_auto_shift.o (symbol from plugin)
                                                  .build/obj_converter_cumulus_ta15_vial/quantum/send_string/send_string.o (symbol from plugin)
                                                  .build/obj_converter_cumulus_ta15_vial/quantum/process_keycode/process_unicode_common.o (symbol from plugin)
                                                  .build/obj_converter_cumulus_ta15_vial/quantum/dynamic_keymap.o (symbol from plugin)
                                                  .build/obj_converter_cumulus_ta15_vial/quantum/vial.o (symbol from plugin)
                                                  .build/obj_converter_cumulus_ta15_vial/quantum/bootmagic/bootmagic_lite.o (symbol from plugin)
                                                  .build/obj_converter_cumulus_ta15_vial/quantum/action.o (symbol from plugin)
                                                  .build/obj_converter_cumulus_ta15_vial/quantum/quantum.o (symbol from plugin)
chThdSleepUntil                                   .build/obj_converter_cumulus_ta15/lib/chibios/os/rt/src/chthreads.o (symbol from plugin)
chThdSleepUntilWindowed                           .build/obj_converter_cumulus_ta15/lib/chibios/os/rt/src/chthreads.o (symbol from plugin)
chThdStart                                        .build/obj_converter_cumulus_ta15/lib/chibios/os/rt/src/chthreads.o (symbol from plugin)
chThdSuspendS                                     .build/obj_converter_cumulus_ta15/lib/chibios/os/rt/src/chthreads.o (symbol from plugin)
chThdSuspendTimeoutS                              .build/obj_converter_cumulus_ta15/lib/chibios/os/rt/src/chthreads.o (symbol from plugin)
                                                  .build/obj_converter_cumulus_ta15/lib/chibios/os/hal/src/hal_usb.o (symbol from plugin)
                                                  .build/obj_converter_cumulus_ta15_vial/protocol/chibios/usb_main.o (symbol from plugin)
chThdTerminate                                    .build/obj_converter_cumulus_ta15/lib/chibios/os/rt/src/chthreads.o (symbol from plugin)
chThdYield                                        .build/obj_converter_cumulus_ta15/lib/chibios/os/rt/src/chthreads.o (symbol from plugin)
chVTDoResetI                                      .build/obj_converter_cumulus_ta15/lib/chibios/os/rt/src/chvt.o (symbol from plugin)
                                                  .build/obj_converter_cumulus_ta15/lib/chibios/os/rt/src/chschd.o (symbol from plugin)
                                                  .build/obj_converter_cumulus_ta15_vial/protocol/chibios/usb_main.o (symbol from plugin)
chVTDoSetContinuousI                              .build/obj_converter_cumulus_ta15/lib/chibios/os/rt/src/chvt.o (symbol from plugin)
chVTDoSetI                                        .build/obj_converter_cumulus_ta15/lib/chibios/os/rt/src/chvt.o (symbol from plugin)
                                                  .build/obj_converter_cumulus_ta15/lib/chibios/os/rt/src/chschd.o (symbol from plugin)
                                                  .build/obj_converter_cumulus_ta15_vial/protocol/chibios/usb_main.o (symbol from plugin)
chVTDoTickI                                       .build/obj_converter_cumulus_ta15/lib/chibios/os/rt/src/chvt.o (symbol from plugin)
                                                  .build/obj_converter_cumulus_ta15/lib/chibios/os/rt/src/chsys.o (symbol from plugin)
chVTGetRemainingIntervalI                         .build/obj_converter_cumulus_ta15/lib/chibios/os/rt/src/chvt.o (symbol from plugin)
chVTGetTimeStampI                                 .build/obj_converter_cumulus_ta15/lib/chibios/os/rt/src/chvt.o (symbol from plugin)
chVTResetTimeStampI                               .build/obj_converter_cumulus_ta15/lib/chibios/os/rt/src/chvt.o (symbol from plugin)
ch_core0_cfg                                      .build/obj_converter_cumulus_ta15/lib/chibios/os/rt/src/chsys.o (symbol from plugin)
ch_core1_cfg                                      .build/obj_converter_cumulus_ta15/lib/chibios/os/rt/src/chsys.o (symbol from plugin)
ch_memcore                                        .build/obj_converter_cumulus_ta15_vial/./lib/chibios/os/oslib/src/chmemcore.o (symbol from plugin)
ch_system                                         .build/obj_converter_cumulus_ta15/lib/chibios/os/rt/src/chsys.o (symbol from plugin)
                                                  .build/obj_converter_cumulus_ta15/lib/chibios/os/common/ports/ARMv6-M-RP2/chcore.o (symbol from plugin)
                                                  .build/obj_converter_cumulus_ta15/lib/chibios/os/rt/src/chevents.o (symbol from plugin)
                                                  .build/obj_converter_cumulus_ta15/lib/chibios/os/rt/src/chmtx.o (symbol from plugin)
                                                  .build/obj_converter_cumulus_ta15/lib/chibios/os/rt/src/chsem.o (symbol from plugin)
                                                  .build/obj_converter_cumulus_ta15/lib/chibios/os/rt/src/chthreads.o (symbol from plugin)
                                                  .build/obj_converter_cumulus_ta15/lib/chibios/os/rt/src/chinstances.o (symbol from plugin)
                                                  .build/obj_converter_cumulus_ta15/lib/chibios/os/rt/src/chschd.o (symbol from plugin)
                                                  .build/obj_converter_cumulus_ta15/lib/chibios/os/rt/src/chvt.o (symbol from plugin)
                                                  .build/obj_converter_cumulus_ta15/lib/chibios/os/rt/src/chrfcu.o (symbol from plugin)
                                                  .build/obj_converter_cumulus_ta15_vial/platforms/chibios/timer.o (symbol from plugin)
chcond.c.34fb3387                                 /var/folders/x9/cy1bx1f960zd_7xhdrxmk_zm0000gn/T//ccbHuJM1debugobj
chcore.c.3f41ed31                                 /var/folders/x9/cy1bx1f960zd_7xhdrxmk_zm0000gn/T//ccbHuJM1debugobj
                                                  /var/folders/x9/cy1bx1f960zd_7xhdrxmk_zm0000gn/T//cc8Nwo3z.ltrans0.ltrans.o
chdebug.c.bc196852                                /var/folders/x9/cy1bx1f960zd_7xhdrxmk_zm0000gn/T//ccbHuJM1debugobj
chdelegates.c.a5f99009                            /var/folders/x9/cy1bx1f960zd_7xhdrxmk_zm0000gn/T//ccbHuJM1debugobj
chdynamic.c.f4d19eab                              /var/folders/x9/cy1bx1f960zd_7xhdrxmk_zm0000gn/T//ccbHuJM1debugobj
chevents.c.ab1fc464                               /var/folders/x9/cy1bx1f960zd_7xhdrxmk_zm0000gn/T//ccbHuJM1debugobj
                                                  /var/folders/x9/cy1bx1f960zd_7xhdrxmk_zm0000gn/T//cc8Nwo3z.ltrans0.ltrans.o
chfactory.c.bad310e8                              /var/folders/x9/cy1bx1f960zd_7xhdrxmk_zm0000gn/T//ccbHuJM1debugobj
chibios.c.27485aef                                /var/folders/x9/cy1bx1f960zd_7xhdrxmk_zm0000gn/T//ccbHuJM1debugobj
                                                  /var/folders/x9/cy1bx1f960zd_7xhdrxmk_zm0000gn/T//cc8Nwo3z.ltrans0.ltrans.o
chibios_driver                                    .build/obj_converter_cumulus_ta15_vial/protocol/chibios/chibios.o (symbol from plugin)
chinstances.c.70a3dfd9                            /var/folders/x9/cy1bx1f960zd_7xhdrxmk_zm0000gn/T//ccbHuJM1debugobj
                                                  /var/folders/x9/cy1bx1f960zd_7xhdrxmk_zm0000gn/T//cc8Nwo3z.ltrans0.ltrans.o
chmboxes.c.c8908508                               /var/folders/x9/cy1bx1f960zd_7xhdrxmk_zm0000gn/T//ccbHuJM1debugobj
chmemcore.c.96dab5e4                              /var/folders/x9/cy1bx1f960zd_7xhdrxmk_zm0000gn/T//ccbHuJM1debugobj
                                                  /var/folders/x9/cy1bx1f960zd_7xhdrxmk_zm0000gn/T//cc8Nwo3z.ltrans0.ltrans.o
chmemheaps.c.e185df12                             /var/folders/x9/cy1bx1f960zd_7xhdrxmk_zm0000gn/T//ccbHuJM1debugobj
chmempools.c.04f1bd64                             /var/folders/x9/cy1bx1f960zd_7xhdrxmk_zm0000gn/T//ccbHuJM1debugobj
chmsg.c.8d7f7cdc                                  /var/folders/x9/cy1bx1f960zd_7xhdrxmk_zm0000gn/T//ccbHuJM1debugobj
chmtx.c.bc7e2d52                                  /var/folders/x9/cy1bx1f960zd_7xhdrxmk_zm0000gn/T//ccbHuJM1debugobj
chobjcaches.c.1dcf88d8                            /var/folders/x9/cy1bx1f960zd_7xhdrxmk_zm0000gn/T//ccbHuJM1debugobj
chpipes.c.b578e457                                /var/folders/x9/cy1bx1f960zd_7xhdrxmk_zm0000gn/T//ccbHuJM1debugobj
chprintf                                          .build/obj_converter_cumulus_ta15/lib/chibios/os/hal/lib/streams/chprintf.o (symbol from plugin)
chprintf.c.357747ed                               /var/folders/x9/cy1bx1f960zd_7xhdrxmk_zm0000gn/T//ccbHuJM1debugobj
chregistry.c.13be683f                             /var/folders/x9/cy1bx1f960zd_7xhdrxmk_zm0000gn/T//ccbHuJM1debugobj
chrfcu.c.da083c14                                 /var/folders/x9/cy1bx1f960zd_7xhdrxmk_zm0000gn/T//ccbHuJM1debugobj
chscanf                                           .build/obj_converter_cumulus_ta15/lib/chibios/os/hal/lib/streams/chscanf.o (symbol from plugin)
chscanf.c.f9c31651                                /var/folders/x9/cy1bx1f960zd_7xhdrxmk_zm0000gn/T//ccbHuJM1debugobj
chschd.c.9eac00fc                                 /var/folders/x9/cy1bx1f960zd_7xhdrxmk_zm0000gn/T//ccbHuJM1debugobj
                                                  /var/folders/x9/cy1bx1f960zd_7xhdrxmk_zm0000gn/T//cc8Nwo3z.ltrans0.ltrans.o
chsem.c.79d25abb                                  /var/folders/x9/cy1bx1f960zd_7xhdrxmk_zm0000gn/T//ccbHuJM1debugobj
chsnprintf                                        .build/obj_converter_cumulus_ta15/lib/chibios/os/hal/lib/streams/chprintf.o (symbol from plugin)
chsnscanf                                         .build/obj_converter_cumulus_ta15/lib/chibios/os/hal/lib/streams/chscanf.o (symbol from plugin)
chstats.c.99639f85                                /var/folders/x9/cy1bx1f960zd_7xhdrxmk_zm0000gn/T//ccbHuJM1debugobj
chsys.c.e19acbe5                                  /var/folders/x9/cy1bx1f960zd_7xhdrxmk_zm0000gn/T//ccbHuJM1debugobj
                                                  /var/folders/x9/cy1bx1f960zd_7xhdrxmk_zm0000gn/T//cc8Nwo3z.ltrans0.ltrans.o
chthreads.c.aeb244af                              /var/folders/x9/cy1bx1f960zd_7xhdrxmk_zm0000gn/T//ccbHuJM1debugobj
                                                  /var/folders/x9/cy1bx1f960zd_7xhdrxmk_zm0000gn/T//cc8Nwo3z.ltrans1.ltrans.o
                                                  /var/folders/x9/cy1bx1f960zd_7xhdrxmk_zm0000gn/T//cc8Nwo3z.ltrans0.ltrans.o
chtm.c.a37cadff                                   /var/folders/x9/cy1bx1f960zd_7xhdrxmk_zm0000gn/T//ccbHuJM1debugobj
chtrace.c.88e6a878                                /var/folders/x9/cy1bx1f960zd_7xhdrxmk_zm0000gn/T//ccbHuJM1debugobj
chvprintf                                         .build/obj_converter_cumulus_ta15/lib/chibios/os/hal/lib/streams/chprintf.o (symbol from plugin)
chvscanf                                          .build/obj_converter_cumulus_ta15/lib/chibios/os/hal/lib/streams/chscanf.o (symbol from plugin)
chvsnprintf                                       .build/obj_converter_cumulus_ta15/lib/chibios/os/hal/lib/streams/chprintf.o (symbol from plugin)
chvsnscanf                                        .build/obj_converter_cumulus_ta15/lib/chibios/os/hal/lib/streams/chscanf.o (symbol from plugin)
chvt.c.87243062                                   /var/folders/x9/cy1bx1f960zd_7xhdrxmk_zm0000gn/T//ccbHuJM1debugobj
                                                  /var/folders/x9/cy1bx1f960zd_7xhdrxmk_zm0000gn/T//cc8Nwo3z.ltrans0.ltrans.o
claim.c.9dd320f9                                  /var/folders/x9/cy1bx1f960zd_7xhdrxmk_zm0000gn/T//ccbHuJM1debugobj
cleanup_glue                                      /usr/local/Cellar/arm-none-eabi-gcc@8/8.5.0_2/lib/arm-none-eabi-gcc/8/gcc/arm-none-eabi/8.5.0/../../../../../../arm-none-eabi/lib/thumb/v6-m/nofp/libg_nano.a(lib_a-reent.o)
clear_combos                                      /var/folders/x9/cy1bx1f960zd_7xhdrxmk_zm0000gn/T//cc8Nwo3z.ltrans0.ltrans.o
                                                  .build/obj_converter_cumulus_ta15_vial/quantum/process_keycode/process_combo.o (symbol from plugin)
                                                  /var/folders/x9/cy1bx1f960zd_7xhdrxmk_zm0000gn/T//cc8Nwo3z.ltrans1.ltrans.o
clear_keyboard                                    /var/folders/x9/cy1bx1f960zd_7xhdrxmk_zm0000gn/T//cc8Nwo3z.ltrans0.ltrans.o
                                                  .build/obj_converter_cumulus_ta15_vial/quantum/action.o (symbol from plugin)
                                                  /var/folders/x9/cy1bx1f960zd_7xhdrxmk_zm0000gn/T//cc8Nwo3z.ltrans1.ltrans.o
                                                  .build/obj_converter_cumulus_ta15_vial/quantum/process_keycode/process_dynamic_macro.o (symbol from plugin)
                                                  .build/obj_converter_cumulus_ta15_vial/quantum/process_keycode/process_magic.o (symbol from plugin)
                                                  .build/obj_converter_cumulus_ta15_vial/quantum/qmk_settings.o (symbol from plugin)
                                                  .build/obj_converter_cumulus_ta15_vial/quantum/action_tapping.o (symbol from plugin)
                                                  .build/obj_converter_cumulus_ta15_vial/quantum/quantum.o (symbol from plugin)
clear_keyboard_but_mods                           .build/obj_converter_cumulus_ta15_vial/quantum/action.o (symbol from plugin)
clear_keyboard_but_mods_and_keys                  .build/obj_converter_cumulus_ta15_vial/quantum/action.o (symbol from plugin)
                                                  .build/obj_converter_cumulus_ta15_vial/quantum/action_layer.o (symbol from plugin)
clear_keys                                        .build/obj_converter_cumulus_ta15_vial/quantum/action_util.o (symbol from plugin)
                                                  .build/obj_converter_cumulus_ta15_vial/platforms/chibios/suspend.o (symbol from plugin)
                                                  .build/obj_converter_cumulus_ta15_vial/quantum/action.o (symbol from plugin)
clear_keys_from_report                            .build/obj_converter_cumulus_ta15_vial/protocol/report.o (symbol from plugin)
                                                  .build/obj_converter_cumulus_ta15_vial/platforms/chibios/suspend.o (symbol from plugin)
                                                  .build/obj_converter_cumulus_ta15_vial/quantum/action_util.o (symbol from plugin)
                                                  .build/obj_converter_cumulus_ta15_vial/quantum/action.o (symbol from plugin)
clear_mods                                        .build/obj_converter_cumulus_ta15_vial/quantum/action_util.o (symbol from plugin)
                                                  .build/obj_converter_cumulus_ta15_vial/platforms/chibios/suspend.o (symbol from plugin)
                                                  .build/obj_converter_cumulus_ta15_vial/quantum/process_keycode/process_unicode_common.o (symbol from plugin)
                                                  .build/obj_converter_cumulus_ta15_vial/quantum/action.o (symbol from plugin)
clear_oneshot_layer_state                         /var/folders/x9/cy1bx1f960zd_7xhdrxmk_zm0000gn/T//cc8Nwo3z.ltrans0.ltrans.o
                                                  .build/obj_converter_cumulus_ta15_vial/quantum/action_util.o (symbol from plugin)
                                                  /var/folders/x9/cy1bx1f960zd_7xhdrxmk_zm0000gn/T//cc8Nwo3z.ltrans1.ltrans.o
                                                  .build/obj_converter_cumulus_ta15_vial/quantum/process_keycode/process_auto_shift.o (symbol from plugin)
                                                  .build/obj_converter_cumulus_ta15_vial/quantum/action.o (symbol from plugin)
clear_oneshot_locked_mods                         .build/obj_converter_cumulus_ta15_vial/quantum/action_util.o (symbol from plugin)
clear_oneshot_mods                                /var/folders/x9/cy1bx1f960zd_7xhdrxmk_zm0000gn/T//cc8Nwo3z.ltrans0.ltrans.o
                                                  .build/obj_converter_cumulus_ta15_vial/quantum/action_util.o (symbol from plugin)
                                                  /var/folders/x9/cy1bx1f960zd_7xhdrxmk_zm0000gn/T//cc8Nwo3z.ltrans1.ltrans.o
                                                  .build/obj_converter_cumulus_ta15_vial/quantum/action.o (symbol from plugin)
clear_suppressed_override_mods                    .build/obj_converter_cumulus_ta15_vial/quantum/action_util.o (symbol from plugin)
                                                  .build/obj_converter_cumulus_ta15_vial/quantum/process_keycode/process_key_override.o (symbol from plugin)
clear_weak_mods                                   .build/obj_converter_cumulus_ta15_vial/quantum/action_util.o (symbol from plugin)
                                                  .build/obj_converter_cumulus_ta15_vial/platforms/chibios/suspend.o (symbol from plugin)
                                                  .build/obj_converter_cumulus_ta15_vial/quantum/process_keycode/process_tap_dance.o (symbol from plugin)
                                                  .build/obj_converter_cumulus_ta15_vial/quantum/process_keycode/process_combo.o (symbol from plugin)
                                                  .build/obj_converter_cumulus_ta15_vial/quantum/process_keycode/process_unicode_common.o (symbol from plugin)
                                                  .build/obj_converter_cumulus_ta15_vial/quantum/action.o (symbol from plugin)
clear_weak_override_mods                          .build/obj_converter_cumulus_ta15_vial/quantum/action_util.o (symbol from plugin)
                                                  .build/obj_converter_cumulus_ta15_vial/quantum/process_keycode/process_key_override.o (symbol from plugin)
clock_configure                                   .build/obj_converter_cumulus_ta15/./lib/pico-sdk/src/rp2_common/hardware_clocks/clocks.o (symbol from plugin)
clock_configure_gpin                              .build/obj_converter_cumulus_ta15/./lib/pico-sdk/src/rp2_common/hardware_clocks/clocks.o (symbol from plugin)
clock_get_hz                                      .build/obj_converter_cumulus_ta15/./lib/pico-sdk/src/rp2_common/hardware_clocks/clocks.o (symbol from plugin)
                                                  .build/obj_converter_cumulus_ta15/lib/chibios/os/hal/ports/RP/LLD/TIMERv1/hal_st_lld.o (symbol from plugin)
                                                  .build/obj_converter_cumulus_ta15/lib/chibios/os/hal/ports/RP/RP2040/hal_lld.o (symbol from plugin)
                                                  .build/obj_converter_cumulus_ta15_vial/quantum/matrix_common.o (symbol from plugin)
clock_gpio_init                                   .build/obj_converter_cumulus_ta15/./lib/pico-sdk/src/rp2_common/hardware_clocks/clocks.o (symbol from plugin)
clock_set_reported_hz                             .build/obj_converter_cumulus_ta15/./lib/pico-sdk/src/rp2_common/hardware_clocks/clocks.o (symbol from plugin)
clock_stop                                        .build/obj_converter_cumulus_ta15/./lib/pico-sdk/src/rp2_common/hardware_clocks/clocks.o (symbol from plugin)
clocks.c.3f53510f                                 /var/folders/x9/cy1bx1f960zd_7xhdrxmk_zm0000gn/T//ccbHuJM1debugobj
                                                  /var/folders/x9/cy1bx1f960zd_7xhdrxmk_zm0000gn/T//cc8Nwo3z.ltrans0.ltrans.o
clocks_enable_resus                               .build/obj_converter_cumulus_ta15/./lib/pico-sdk/src/rp2_common/hardware_clocks/clocks.o (symbol from plugin)
clocks_init                                       .build/obj_converter_cumulus_ta15/./lib/pico-sdk/src/rp2_common/hardware_clocks/clocks.o (symbol from plugin)
                                                  .build/obj_converter_cumulus_ta15/lib/chibios/os/hal/ports/RP/RP2040/hal_lld.o (symbol from plugin)
                                                  .build/obj_converter_cumulus_ta15_vial/platforms/chibios/bootloaders/rp2040.o (symbol from plugin)
combo_buffer.lto_priv.139                         /var/folders/x9/cy1bx1f960zd_7xhdrxmk_zm0000gn/T//cc8Nwo3z.ltrans0.ltrans.o
                                                  /var/folders/x9/cy1bx1f960zd_7xhdrxmk_zm0000gn/T//cc8Nwo3z.ltrans1.ltrans.o
combo_buffer_read.lto_priv.136                    /var/folders/x9/cy1bx1f960zd_7xhdrxmk_zm0000gn/T//cc8Nwo3z.ltrans0.ltrans.o
                                                  /var/folders/x9/cy1bx1f960zd_7xhdrxmk_zm0000gn/T//cc8Nwo3z.ltrans1.ltrans.o
combo_buffer_write.lto_priv.137                   /var/folders/x9/cy1bx1f960zd_7xhdrxmk_zm0000gn/T//cc8Nwo3z.ltrans0.ltrans.o
                                                  /var/folders/x9/cy1bx1f960zd_7xhdrxmk_zm0000gn/T//cc8Nwo3z.ltrans1.ltrans.o
combo_disable                                     /var/folders/x9/cy1bx1f960zd_7xhdrxmk_zm0000gn/T//cc8Nwo3z.ltrans0.ltrans.o
                                                  .build/obj_converter_cumulus_ta15_vial/quantum/process_keycode/process_combo.o (symbol from plugin)
                                                  /var/folders/x9/cy1bx1f960zd_7xhdrxmk_zm0000gn/T//cc8Nwo3z.ltrans1.ltrans.o
combo_enable                                      .build/obj_converter_cumulus_ta15_vial/quantum/process_keycode/process_combo.o (symbol from plugin)
combo_task                                        .build/obj_converter_cumulus_ta15_vial/quantum/process_keycode/process_combo.o (symbol from plugin)
                                                  .build/obj_converter_cumulus_ta15_vial/quantum/keyboard.o (symbol from plugin)
combo_toggle                                      .build/obj_converter_cumulus_ta15_vial/quantum/process_keycode/process_combo.o (symbol from plugin)
console_task                                      .build/obj_converter_cumulus_ta15_vial/protocol/chibios/usb_main.o (symbol from plugin)
                                                  .build/obj_converter_cumulus_ta15_vial/protocol/chibios/chibios.o (symbol from plugin)
crt1.c.c15b2a00                                   /var/folders/x9/cy1bx1f960zd_7xhdrxmk_zm0000gn/T//ccbHuJM1debugobj
                                                  /var/folders/x9/cy1bx1f960zd_7xhdrxmk_zm0000gn/T//cc8Nwo3z.ltrans0.ltrans.o
cumulus_ta15.c.894a67da                           /var/folders/x9/cy1bx1f960zd_7xhdrxmk_zm0000gn/T//ccbHuJM1debugobj
cycle_unicode_input_mode                          .build/obj_converter_cumulus_ta15_vial/quantum/process_keycode/process_unicode_common.o (symbol from plugin)
debounce                                          .build/obj_converter_cumulus_ta15_vial/quantum/debounce/sym_defer_g.o (symbol from plugin)
                                                  .build/obj_converter_cumulus_ta15_vial/quantum/matrix.o (symbol from plugin)
                                                  .build/obj_converter_cumulus_ta15_vial/quantum/matrix_common.o (symbol from plugin)
debounce_free                                     .build/obj_converter_cumulus_ta15_vial/quantum/debounce/sym_defer_g.o (symbol from plugin)
debounce_init                                     .build/obj_converter_cumulus_ta15_vial/quantum/debounce/sym_defer_g.o (symbol from plugin)
                                                  .build/obj_converter_cumulus_ta15_vial/quantum/matrix.o (symbol from plugin)
                                                  .build/obj_converter_cumulus_ta15_vial/quantum/matrix_common.o (symbol from plugin)
debug.c.f15ba547                                  /var/folders/x9/cy1bx1f960zd_7xhdrxmk_zm0000gn/T//ccbHuJM1debugobj
                                                  /var/folders/x9/cy1bx1f960zd_7xhdrxmk_zm0000gn/T//cc8Nwo3z.ltrans0.ltrans.o
debug_action                                      .build/obj_converter_cumulus_ta15_vial/quantum/action.o (symbol from plugin)
debug_config                                      .build/obj_converter_cumulus_ta15_vial/quantum/logging/debug.o (symbol from plugin)
                                                  .build/obj_converter_cumulus_ta15_vial/quantum/mousekey.o (symbol from plugin)
                                                  .build/obj_converter_cumulus_ta15_vial/quantum/bootmagic/magic.o (symbol from plugin)
                                                  .build/obj_converter_cumulus_ta15_vial/quantum/keyboard.o (symbol from plugin)
debug_event                                       .build/obj_converter_cumulus_ta15_vial/quantum/action.o (symbol from plugin)
                                                  .build/obj_converter_cumulus_ta15_vial/quantum/action_tapping.o (symbol from plugin)
debug_record                                      .build/obj_converter_cumulus_ta15_vial/quantum/action.o (symbol from plugin)
                                                  .build/obj_converter_cumulus_ta15_vial/quantum/action_tapping.o (symbol from plugin)
decode_utf8                                       .build/obj_converter_cumulus_ta15_vial/quantum/utf8.o (symbol from plugin)
                                                  .build/obj_converter_cumulus_ta15_vial/quantum/process_keycode/process_unicode_common.o (symbol from plugin)
default_keyboard.c.3443f21d                       /var/folders/x9/cy1bx1f960zd_7xhdrxmk_zm0000gn/T//ccbHuJM1debugobj
default_layer_and                                 .build/obj_converter_cumulus_ta15_vial/quantum/action_layer.o (symbol from plugin)
                                                  .build/obj_converter_cumulus_ta15_vial/quantum/action.o (symbol from plugin)
default_layer_debug                               .build/obj_converter_cumulus_ta15_vial/quantum/action_layer.o (symbol from plugin)
                                                  .build/obj_converter_cumulus_ta15_vial/quantum/action.o (symbol from plugin)
default_layer_or                                  .build/obj_converter_cumulus_ta15_vial/quantum/action_layer.o (symbol from plugin)
                                                  .build/obj_converter_cumulus_ta15_vial/quantum/action.o (symbol from plugin)
default_layer_set                                 .build/obj_converter_cumulus_ta15_vial/quantum/action_layer.o (symbol from plugin)
                                                  .build/obj_converter_cumulus_ta15_vial/quantum/bootmagic/magic.o (symbol from plugin)
                                                  .build/obj_converter_cumulus_ta15_vial/quantum/action.o (symbol from plugin)
                                                  .build/obj_converter_cumulus_ta15_vial/quantum/quantum.o (symbol from plugin)
default_layer_state                               .build/obj_converter_cumulus_ta15_vial/quantum/action_layer.o (symbol from plugin)
                                                  .build/obj_converter_cumulus_ta15_vial/quantum/eeconfig.o (symbol from plugin)
default_layer_state_set_kb                        .build/obj_converter_cumulus_ta15_vial/quantum/action_layer.o (symbol from plugin)
default_layer_state_set_user                      .build/obj_converter_cumulus_ta15_vial/quantum/action_layer.o (symbol from plugin)
default_layer_xor                                 .build/obj_converter_cumulus_ta15_vial/quantum/action_layer.o (symbol from plugin)
                                                  .build/obj_converter_cumulus_ta15_vial/quantum/action.o (symbol from plugin)
del_key                                           .build/obj_converter_cumulus_ta15_vial/quantum/action_util.o (symbol from plugin)
                                                  .build/obj_converter_cumulus_ta15_vial/quantum/process_keycode/process_key_override.o (symbol from plugin)
                                                  .build/obj_converter_cumulus_ta15_vial/quantum/process_keycode/process_grave_esc.o (symbol from plugin)
                                                  .build/obj_converter_cumulus_ta15_vial/quantum/action.o (symbol from plugin)
del_key_bit                                       .build/obj_converter_cumulus_ta15_vial/protocol/report.o (symbol from plugin)
del_key_byte                                      .build/obj_converter_cumulus_ta15_vial/protocol/report.o (symbol from plugin)
del_key_from_report                               .build/obj_converter_cumulus_ta15_vial/protocol/report.o (symbol from plugin)
                                                  .build/obj_converter_cumulus_ta15_vial/quantum/process_keycode/process_key_override.o (symbol from plugin)
                                                  .build/obj_converter_cumulus_ta15_vial/quantum/process_keycode/process_grave_esc.o (symbol from plugin)
                                                  .build/obj_converter_cumulus_ta15_vial/quantum/action_util.o (symbol from plugin)
                                                  .build/obj_converter_cumulus_ta15_vial/quantum/action.o (symbol from plugin)
del_mods                                          .build/obj_converter_cumulus_ta15_vial/quantum/action_util.o (symbol from plugin)
                                                  .build/obj_converter_cumulus_ta15_vial/quantum/process_keycode/process_tap_dance.o (symbol from plugin)
                                                  .build/obj_converter_cumulus_ta15_vial/quantum/process_keycode/process_auto_shift.o (symbol from plugin)
                                                  .build/obj_converter_cumulus_ta15_vial/quantum/action.o (symbol from plugin)
del_oneshot_mods                                  .build/obj_converter_cumulus_ta15_vial/quantum/action_util.o (symbol from plugin)
del_weak_mods                                     /var/folders/x9/cy1bx1f960zd_7xhdrxmk_zm0000gn/T//cc8Nwo3z.ltrans0.ltrans.o
                                                  .build/obj_converter_cumulus_ta15_vial/quantum/action_util.o (symbol from plugin)
                                                  /var/folders/x9/cy1bx1f960zd_7xhdrxmk_zm0000gn/T//cc8Nwo3z.ltrans1.ltrans.o
                                                  .build/obj_converter_cumulus_ta15_vial/quantum/process_keycode/process_tap_dance.o (symbol from plugin)
                                                  .build/obj_converter_cumulus_ta15_vial/quantum/process_keycode/process_auto_shift.o (symbol from plugin)
                                                  .build/obj_converter_cumulus_ta15_vial/quantum/action.o (symbol from plugin)
disable_action_cache                              /var/folders/x9/cy1bx1f960zd_7xhdrxmk_zm0000gn/T//cc8Nwo3z.ltrans0.ltrans.o
                                                  .build/obj_converter_cumulus_ta15_vial/quantum/action.o (symbol from plugin)
                                                  .build/obj_converter_cumulus_ta15_vial/quantum/action_layer.o (symbol from plugin)
                                                  .build/obj_converter_cumulus_ta15_vial/quantum/quantum.o (symbol from plugin)
do_code16                                         .build/obj_converter_cumulus_ta15_vial/quantum/quantum.o (symbol from plugin)
drop_combo_from_buffer                            /var/folders/x9/cy1bx1f960zd_7xhdrxmk_zm0000gn/T//cc8Nwo3z.ltrans0.ltrans.o
                                                  .build/obj_converter_cumulus_ta15_vial/quantum/process_keycode/process_combo.o (symbol from plugin)
                                                  /var/folders/x9/cy1bx1f960zd_7xhdrxmk_zm0000gn/T//cc8Nwo3z.ltrans1.ltrans.o
dump_key_buffer.lto_priv.143                      /var/folders/x9/cy1bx1f960zd_7xhdrxmk_zm0000gn/T//cc8Nwo3z.ltrans0.ltrans.o
                                                  /var/folders/x9/cy1bx1f960zd_7xhdrxmk_zm0000gn/T//cc8Nwo3z.ltrans1.ltrans.o
dynamic_keymap.c.d238cd6c                         /var/folders/x9/cy1bx1f960zd_7xhdrxmk_zm0000gn/T//ccbHuJM1debugobj
                                                  /var/folders/x9/cy1bx1f960zd_7xhdrxmk_zm0000gn/T//cc8Nwo3z.ltrans1.ltrans.o
                                                  /var/folders/x9/cy1bx1f960zd_7xhdrxmk_zm0000gn/T//cc8Nwo3z.ltrans0.ltrans.o
dynamic_keymap_get_buffer                         .build/obj_converter_cumulus_ta15_vial/quantum/dynamic_keymap.o (symbol from plugin)
                                                  .build/obj_converter_cumulus_ta15_vial/quantum/via.o (symbol from plugin)
dynamic_keymap_get_combo                          .build/obj_converter_cumulus_ta15_vial/quantum/dynamic_keymap.o (symbol from plugin)
                                                  .build/obj_converter_cumulus_ta15_vial/quantum/vial.o (symbol from plugin)
dynamic_keymap_get_key_override                   .build/obj_converter_cumulus_ta15_vial/quantum/dynamic_keymap.o (symbol from plugin)
                                                  .build/obj_converter_cumulus_ta15_vial/quantum/vial.o (symbol from plugin)
dynamic_keymap_get_keycode                        .build/obj_converter_cumulus_ta15_vial/quantum/dynamic_keymap.o (symbol from plugin)
                                                  .build/obj_converter_cumulus_ta15_vial/quantum/via.o (symbol from plugin)
dynamic_keymap_get_layer_count                    .build/obj_converter_cumulus_ta15_vial/quantum/dynamic_keymap.o (symbol from plugin)
                                                  .build/obj_converter_cumulus_ta15_vial/quantum/via.o (symbol from plugin)
dynamic_keymap_get_qmk_settings                   .build/obj_converter_cumulus_ta15_vial/quantum/dynamic_keymap.o (symbol from plugin)
                                                  .build/obj_converter_cumulus_ta15_vial/quantum/qmk_settings.o (symbol from plugin)
dynamic_keymap_get_tap_dance                      .build/obj_converter_cumulus_ta15_vial/quantum/dynamic_keymap.o (symbol from plugin)
                                                  .build/obj_converter_cumulus_ta15_vial/quantum/vial.o (symbol from plugin)
dynamic_keymap_key_to_eeprom_address              .build/obj_converter_cumulus_ta15_vial/quantum/dynamic_keymap.o (symbol from plugin)
dynamic_keymap_macro_get_buffer                   .build/obj_converter_cumulus_ta15_vial/quantum/dynamic_keymap.o (symbol from plugin)
                                                  .build/obj_converter_cumulus_ta15_vial/quantum/via.o (symbol from plugin)
dynamic_keymap_macro_get_buffer_size              .build/obj_converter_cumulus_ta15_vial/quantum/dynamic_keymap.o (symbol from plugin)
                                                  .build/obj_converter_cumulus_ta15_vial/quantum/via.o (symbol from plugin)
dynamic_keymap_macro_get_count                    .build/obj_converter_cumulus_ta15_vial/quantum/dynamic_keymap.o (symbol from plugin)
                                                  .build/obj_converter_cumulus_ta15_vial/quantum/via.o (symbol from plugin)
dynamic_keymap_macro_reset                        .build/obj_converter_cumulus_ta15_vial/quantum/dynamic_keymap.o (symbol from plugin)
                                                  .build/obj_converter_cumulus_ta15_vial/quantum/via.o (symbol from plugin)
dynamic_keymap_macro_send                         .build/obj_converter_cumulus_ta15_vial/quantum/dynamic_keymap.o (symbol from plugin)
                                                  .build/obj_converter_cumulus_ta15_vial/quantum/via.o (symbol from plugin)
dynamic_keymap_macro_set_buffer                   .build/obj_converter_cumulus_ta15_vial/quantum/dynamic_keymap.o (symbol from plugin)
                                                  .build/obj_converter_cumulus_ta15_vial/quantum/via.o (symbol from plugin)
dynamic_keymap_reset                              .build/obj_converter_cumulus_ta15_vial/quantum/dynamic_keymap.o (symbol from plugin)
                                                  .build/obj_converter_cumulus_ta15_vial/quantum/via.o (symbol from plugin)
dynamic_keymap_set_buffer                         .build/obj_converter_cumulus_ta15_vial/quantum/dynamic_keymap.o (symbol from plugin)
                                                  .build/obj_converter_cumulus_ta15_vial/quantum/via.o (symbol from plugin)
dynamic_keymap_set_combo                          .build/obj_converter_cumulus_ta15_vial/quantum/dynamic_keymap.o (symbol from plugin)
                                                  .build/obj_converter_cumulus_ta15_vial/quantum/vial.o (symbol from plugin)
dynamic_keymap_set_key_override                   .build/obj_converter_cumulus_ta15_vial/quantum/dynamic_keymap.o (symbol from plugin)
                                                  .build/obj_converter_cumulus_ta15_vial/quantum/vial.o (symbol from plugin)
dynamic_keymap_set_keycode                        .build/obj_converter_cumulus_ta15_vial/quantum/dynamic_keymap.o (symbol from plugin)
                                                  .build/obj_converter_cumulus_ta15_vial/quantum/via.o (symbol from plugin)
dynamic_keymap_set_qmk_settings                   .build/obj_converter_cumulus_ta15_vial/quantum/dynamic_keymap.o (symbol from plugin)
                                                  .build/obj_converter_cumulus_ta15_vial/quantum/qmk_settings.o (symbol from plugin)
dynamic_keymap_set_tap_dance                      .build/obj_converter_cumulus_ta15_vial/quantum/dynamic_keymap.o (symbol from plugin)
                                                  .build/obj_converter_cumulus_ta15_vial/quantum/vial.o (symbol from plugin)
dynamic_macro_led_blink                           .build/obj_converter_cumulus_ta15_vial/quantum/process_keycode/process_dynamic_macro.o (symbol from plugin)
dynamic_macro_play                                .build/obj_converter_cumulus_ta15_vial/quantum/process_keycode/process_dynamic_macro.o (symbol from plugin)
dynamic_macro_play_user                           .build/obj_converter_cumulus_ta15_vial/quantum/process_keycode/process_dynamic_macro.o (symbol from plugin)
dynamic_macro_record_end                          .build/obj_converter_cumulus_ta15_vial/quantum/process_keycode/process_dynamic_macro.o (symbol from plugin)
dynamic_macro_record_end_user                     .build/obj_converter_cumulus_ta15_vial/quantum/process_keycode/process_dynamic_macro.o (symbol from plugin)
dynamic_macro_record_key                          .build/obj_converter_cumulus_ta15_vial/quantum/process_keycode/process_dynamic_macro.o (symbol from plugin)
dynamic_macro_record_key_user                     .build/obj_converter_cumulus_ta15_vial/quantum/process_keycode/process_dynamic_macro.o (symbol from plugin)
dynamic_macro_record_start                        .build/obj_converter_cumulus_ta15_vial/quantum/process_keycode/process_dynamic_macro.o (symbol from plugin)
dynamic_macro_record_start_user                   .build/obj_converter_cumulus_ta15_vial/quantum/process_keycode/process_dynamic_macro.o (symbol from plugin)
early_hardware_init_post                          .build/obj_converter_cumulus_ta15_vial/protocol/chibios/chibios.o (symbol from plugin)
early_hardware_init_pre                           .build/obj_converter_cumulus_ta15_vial/protocol/chibios/chibios.o (symbol from plugin)
eeconfig.c.8bb3accf                               /var/folders/x9/cy1bx1f960zd_7xhdrxmk_zm0000gn/T//ccbHuJM1debugobj
                                                  /var/folders/x9/cy1bx1f960zd_7xhdrxmk_zm0000gn/T//cc8Nwo3z.ltrans0.ltrans.o
eeconfig_disable                                  .build/obj_converter_cumulus_ta15_vial/quantum/eeconfig.o (symbol from plugin)
                                                  .build/obj_converter_cumulus_ta15_vial/quantum/bootmagic/bootmagic_lite.o (symbol from plugin)
eeconfig_enable                                   .build/obj_converter_cumulus_ta15_vial/quantum/eeconfig.o (symbol from plugin)
eeconfig_init                                     .build/obj_converter_cumulus_ta15_vial/quantum/eeconfig.o (symbol from plugin)
                                                  .build/obj_converter_cumulus_ta15_vial/quantum/bootmagic/magic.o (symbol from plugin)
                                                  .build/obj_converter_cumulus_ta15_vial/quantum/quantum.o (symbol from plugin)
eeconfig_init_kb                                  .build/obj_converter_cumulus_ta15_vial/quantum/eeconfig.o (symbol from plugin)
eeconfig_init_quantum                             .build/obj_converter_cumulus_ta15_vial/quantum/eeconfig.o (symbol from plugin)
eeconfig_init_user                                .build/obj_converter_cumulus_ta15_vial/quantum/eeconfig.o (symbol from plugin)
eeconfig_init_via                                 .build/obj_converter_cumulus_ta15_vial/quantum/via.o (symbol from plugin)
                                                  .build/obj_converter_cumulus_ta15_vial/quantum/eeconfig.o (symbol from plugin)
eeconfig_is_disabled                              .build/obj_converter_cumulus_ta15_vial/quantum/eeconfig.o (symbol from plugin)
eeconfig_is_enabled                               .build/obj_converter_cumulus_ta15_vial/quantum/eeconfig.o (symbol from plugin)
                                                  .build/obj_converter_cumulus_ta15_vial/quantum/bootmagic/magic.o (symbol from plugin)
eeconfig_read_audio                               .build/obj_converter_cumulus_ta15_vial/quantum/eeconfig.o (symbol from plugin)
eeconfig_read_debug                               .build/obj_converter_cumulus_ta15_vial/quantum/eeconfig.o (symbol from plugin)
                                                  .build/obj_converter_cumulus_ta15_vial/quantum/bootmagic/magic.o (symbol from plugin)
eeconfig_read_default_layer                       .build/obj_converter_cumulus_ta15_vial/quantum/eeconfig.o (symbol from plugin)
                                                  .build/obj_converter_cumulus_ta15_vial/quantum/bootmagic/magic.o (symbol from plugin)
eeconfig_read_handedness                          .build/obj_converter_cumulus_ta15_vial/quantum/eeconfig.o (symbol from plugin)
eeconfig_read_haptic                              .build/obj_converter_cumulus_ta15_vial/quantum/eeconfig.o (symbol from plugin)
eeconfig_read_kb                                  .build/obj_converter_cumulus_ta15_vial/quantum/eeconfig.o (symbol from plugin)
eeconfig_read_keymap                              .build/obj_converter_cumulus_ta15_vial/quantum/eeconfig.o (symbol from plugin)
                                                  .build/obj_converter_cumulus_ta15_vial/quantum/process_keycode/process_magic.o (symbol from plugin)
                                                  .build/obj_converter_cumulus_ta15_vial/quantum/bootmagic/magic.o (symbol from plugin)
eeconfig_read_user                                .build/obj_converter_cumulus_ta15_vial/quantum/eeconfig.o (symbol from plugin)
eeconfig_update_audio                             .build/obj_converter_cumulus_ta15_vial/quantum/eeconfig.o (symbol from plugin)
eeconfig_update_debug                             .build/obj_converter_cumulus_ta15_vial/quantum/eeconfig.o (symbol from plugin)
eeconfig_update_default_layer                     .build/obj_converter_cumulus_ta15_vial/quantum/eeconfig.o (symbol from plugin)
                                                  .build/obj_converter_cumulus_ta15_vial/quantum/quantum.o (symbol from plugin)
eeconfig_update_handedness                        .build/obj_converter_cumulus_ta15_vial/quantum/eeconfig.o (symbol from plugin)
                                                  .build/obj_converter_cumulus_ta15_vial/quantum/process_keycode/process_magic.o (symbol from plugin)
eeconfig_update_haptic                            .build/obj_converter_cumulus_ta15_vial/quantum/eeconfig.o (symbol from plugin)
eeconfig_update_kb                                .build/obj_converter_cumulus_ta15_vial/quantum/eeconfig.o (symbol from plugin)
eeconfig_update_keymap                            .build/obj_converter_cumulus_ta15_vial/quantum/eeconfig.o (symbol from plugin)
                                                  .build/obj_converter_cumulus_ta15_vial/quantum/process_keycode/process_magic.o (symbol from plugin)
                                                  .build/obj_converter_cumulus_ta15_vial/quantum/qmk_settings.o (symbol from plugin)
                                                  .build/obj_converter_cumulus_ta15_vial/quantum/action_util.o (symbol from plugin)
eeconfig_update_user                              .build/obj_converter_cumulus_ta15_vial/quantum/eeconfig.o (symbol from plugin)
eeprom_driver.c.3dc26550                          /var/folders/x9/cy1bx1f960zd_7xhdrxmk_zm0000gn/T//ccbHuJM1debugobj
                                                  /var/folders/x9/cy1bx1f960zd_7xhdrxmk_zm0000gn/T//cc8Nwo3z.ltrans0.ltrans.o
eeprom_driver_erase                               .build/obj_converter_cumulus_ta15_vial/eeprom_wear_leveling.o (symbol from plugin)
                                                  .build/obj_converter_cumulus_ta15_vial/quantum/eeconfig.o (symbol from plugin)
eeprom_driver_init                                .build/obj_converter_cumulus_ta15_vial/eeprom_wear_leveling.o (symbol from plugin)
                                                  .build/obj_converter_cumulus_ta15_vial/quantum/keyboard.o (symbol from plugin)
eeprom_read_block                                 .build/obj_converter_cumulus_ta15_vial/eeprom_wear_leveling.o (symbol from plugin)
                                                  .build/obj_converter_cumulus_ta15_vial/quantum/dynamic_keymap.o (symbol from plugin)
                                                  .build/obj_converter_cumulus_ta15_vial/eeprom_driver.o (symbol from plugin)
eeprom_read_byte                                  .build/obj_converter_cumulus_ta15_vial/eeprom_driver.o (symbol from plugin)
                                                  .build/obj_converter_cumulus_ta15_vial/quantum/process_keycode/process_unicode_common.o (symbol from plugin)
                                                  .build/obj_converter_cumulus_ta15_vial/quantum/dynamic_keymap.o (symbol from plugin)
                                                  .build/obj_converter_cumulus_ta15_vial/quantum/via.o (symbol from plugin)
                                                  .build/obj_converter_cumulus_ta15_vial/quantum/eeconfig.o (symbol from plugin)
eeprom_read_dword                                 .build/obj_converter_cumulus_ta15_vial/eeprom_driver.o (symbol from plugin)
                                                  .build/obj_converter_cumulus_ta15_vial/quantum/eeconfig.o (symbol from plugin)
eeprom_read_word                                  .build/obj_converter_cumulus_ta15_vial/eeprom_driver.o (symbol from plugin)
                                                  .build/obj_converter_cumulus_ta15_vial/quantum/eeconfig.o (symbol from plugin)
eeprom_update_block                               .build/obj_converter_cumulus_ta15_vial/eeprom_driver.o (symbol from plugin)
eeprom_update_byte                                .build/obj_converter_cumulus_ta15_vial/eeprom_driver.o (symbol from plugin)
                                                  .build/obj_converter_cumulus_ta15_vial/quantum/process_keycode/process_unicode_common.o (symbol from plugin)
                                                  .build/obj_converter_cumulus_ta15_vial/quantum/dynamic_keymap.o (symbol from plugin)
                                                  .build/obj_converter_cumulus_ta15_vial/quantum/via.o (symbol from plugin)
                                                  .build/obj_converter_cumulus_ta15_vial/quantum/eeconfig.o (symbol from plugin)
eeprom_update_dword                               .build/obj_converter_cumulus_ta15_vial/eeprom_driver.o (symbol from plugin)
                                                  .build/obj_converter_cumulus_ta15_vial/quantum/eeconfig.o (symbol from plugin)
eeprom_update_word                                .build/obj_converter_cumulus_ta15_vial/eeprom_driver.o (symbol from plugin)
                                                  .build/obj_converter_cumulus_ta15_vial/quantum/eeconfig.o (symbol from plugin)
eeprom_wear_leveling.c.83082750                   /var/folders/x9/cy1bx1f960zd_7xhdrxmk_zm0000gn/T//ccbHuJM1debugobj
                                                  /var/folders/x9/cy1bx1f960zd_7xhdrxmk_zm0000gn/T//cc8Nwo3z.ltrans0.ltrans.o
eeprom_write_block                                .build/obj_converter_cumulus_ta15_vial/eeprom_wear_leveling.o (symbol from plugin)
                                                  .build/obj_converter_cumulus_ta15_vial/quantum/dynamic_keymap.o (symbol from plugin)
                                                  .build/obj_converter_cumulus_ta15_vial/eeprom_driver.o (symbol from plugin)
eeprom_write_byte                                 .build/obj_converter_cumulus_ta15_vial/eeprom_driver.o (symbol from plugin)
eeprom_write_dword                                .build/obj_converter_cumulus_ta15_vial/eeprom_driver.o (symbol from plugin)
eeprom_write_word                                 .build/obj_converter_cumulus_ta15_vial/eeprom_driver.o (symbol from plugin)
enter_bootloader_mode_if_requested                .build/obj_converter_cumulus_ta15_vial/platforms/chibios/bootloaders/rp2040.o (symbol from plugin)
errno                                             /usr/local/Cellar/arm-none-eabi-gcc@8/8.5.0_2/lib/arm-none-eabi-gcc/8/gcc/arm-none-eabi/8.5.0/../../../../../../arm-none-eabi/lib/thumb/v6-m/nofp/libg_nano.a(lib_a-reent.o)
                                                  /usr/local/Cellar/arm-none-eabi-gcc@8/8.5.0_2/lib/arm-none-eabi-gcc/8/gcc/arm-none-eabi/8.5.0/../../../../../../arm-none-eabi/lib/thumb/v6-m/nofp/libg_nano.a(lib_a-signalr.o)
event_queue                                       .build/obj_converter_cumulus_ta15_vial/protocol/chibios/usb_main.o (symbol from plugin)
event_queue_head                                  .build/obj_converter_cumulus_ta15_vial/protocol/chibios/usb_main.o (symbol from plugin)
event_queue_tail                                  .build/obj_converter_cumulus_ta15_vial/protocol/chibios/usb_main.o (symbol from plugin)
extra_report_blank                                .build/obj_converter_cumulus_ta15_vial/protocol/chibios/usb_main.o (symbol from plugin)
extract_mod_bits                                  /var/folders/x9/cy1bx1f960zd_7xhdrxmk_zm0000gn/T//cc8Nwo3z.ltrans1.ltrans.o
                                                  .build/obj_converter_cumulus_ta15_vial/quantum/quantum.o (symbol from plugin)
                                                  /var/folders/x9/cy1bx1f960zd_7xhdrxmk_zm0000gn/T//cc8Nwo3z.ltrans0.ltrans.o
                                                  .build/obj_converter_cumulus_ta15_vial/quantum/process_keycode/process_key_override.o (symbol from plugin)
fctprintf                                         .build/obj_converter_cumulus_ta15_vial/printf.o (symbol from plugin)
fflush                                            /usr/local/Cellar/arm-none-eabi-gcc@8/8.5.0_2/lib/arm-none-eabi-gcc/8/gcc/arm-none-eabi/8.5.0/../../../../../../arm-none-eabi/lib/thumb/v6-m/nofp/libg_nano.a(lib_a-fflush.o)
fiprintf                                          /usr/local/Cellar/arm-none-eabi-gcc@8/8.5.0_2/lib/arm-none-eabi-gcc/8/gcc/arm-none-eabi/8.5.0/../../../../../../arm-none-eabi/lib/thumb/v6-m/nofp/libg_nano.a(lib_a-fprintf.o)
                                                  /usr/local/Cellar/arm-none-eabi-gcc@8/8.5.0_2/lib/arm-none-eabi-gcc/8/gcc/arm-none-eabi/8.5.0/../../../../../../arm-none-eabi/lib/thumb/v6-m/nofp/libg_nano.a(lib_a-assert.o)
flash.c.f36a0c4d                                  /var/folders/x9/cy1bx1f960zd_7xhdrxmk_zm0000gn/T//ccbHuJM1debugobj
                                                  /var/folders/x9/cy1bx1f960zd_7xhdrxmk_zm0000gn/T//cc8Nwo3z.ltrans0.ltrans.o
flashGetAddressOffset                             .build/obj_converter_cumulus_ta15/lib/chibios/os/hal/src/hal_flash.o (symbol from plugin)
flashGetOffsetAddress                             .build/obj_converter_cumulus_ta15/lib/chibios/os/hal/src/hal_flash.o (symbol from plugin)
flashGetOffsetSector                              .build/obj_converter_cumulus_ta15/lib/chibios/os/hal/src/hal_flash.o (symbol from plugin)
flashGetSectorOffset                              .build/obj_converter_cumulus_ta15/lib/chibios/os/hal/src/hal_flash.o (symbol from plugin)
flashGetSectorSize                                .build/obj_converter_cumulus_ta15/lib/chibios/os/hal/src/hal_flash.o (symbol from plugin)
flashWaitErase                                    .build/obj_converter_cumulus_ta15/lib/chibios/os/hal/src/hal_flash.o (symbol from plugin)
flash_do_cmd                                      .build/obj_converter_cumulus_ta15/./lib/pico-sdk/src/rp2_common/hardware_flash/flash.o (symbol from plugin)
flash_get_unique_id                               .build/obj_converter_cumulus_ta15/./lib/pico-sdk/src/rp2_common/hardware_flash/flash.o (symbol from plugin)
flash_range_erase                                 .build/obj_converter_cumulus_ta15/./lib/pico-sdk/src/rp2_common/hardware_flash/flash.o (symbol from plugin)
                                                  .build/obj_converter_cumulus_ta15_vial/wear_leveling_rp2040_flash.o (symbol from plugin)
flash_range_program                               .build/obj_converter_cumulus_ta15/./lib/pico-sdk/src/rp2_common/hardware_flash/flash.o (symbol from plugin)
fnv_32a_buf                                       .build/obj_converter_cumulus_ta15_vial/hash_32a.o (symbol from plugin)
fnv_32a_str                                       .build/obj_converter_cumulus_ta15_vial/hash_32a.o (symbol from plugin)
fnv_64a_buf                                       .build/obj_converter_cumulus_ta15_vial/hash_64a.o (symbol from plugin)
                                                  .build/obj_converter_cumulus_ta15_vial/wear_leveling.o (symbol from plugin)
fnv_64a_str                                       .build/obj_converter_cumulus_ta15_vial/hash_64a.o (symbol from plugin)
fprintf                                           /usr/local/Cellar/arm-none-eabi-gcc@8/8.5.0_2/lib/arm-none-eabi-gcc/8/gcc/arm-none-eabi/8.5.0/../../../../../../arm-none-eabi/lib/thumb/v6-m/nofp/libg_nano.a(lib_a-fprintf.o)
free                                              /usr/local/Cellar/arm-none-eabi-gcc@8/8.5.0_2/lib/arm-none-eabi-gcc/8/gcc/arm-none-eabi/8.5.0/../../../../../../arm-none-eabi/lib/thumb/v6-m/nofp/libg_nano.a(lib_a-malloc.o)
frequency_count_khz                               .build/obj_converter_cumulus_ta15/./lib/pico-sdk/src/rp2_common/hardware_clocks/clocks.o (symbol from plugin)
g_vial_magic_keycode_override                     .build/obj_converter_cumulus_ta15_vial/quantum/vial.o (symbol from plugin)
                                                  .build/obj_converter_cumulus_ta15_vial/quantum/dynamic_keymap.o (symbol from plugin)
get_auto_shift_no_auto_repeat                     .build/obj_converter_cumulus_ta15_vial/quantum/qmk_settings.o (symbol from plugin)
get_auto_shift_repeat                             .build/obj_converter_cumulus_ta15_vial/quantum/qmk_settings.o (symbol from plugin)
get_auto_shifted_key                              .build/obj_converter_cumulus_ta15_vial/quantum/qmk_settings.o (symbol from plugin)
get_autoshift_shift_state                         .build/obj_converter_cumulus_ta15_vial/quantum/process_keycode/process_auto_shift.o (symbol from plugin)
get_autoshift_state                               .build/obj_converter_cumulus_ta15_vial/quantum/process_keycode/process_auto_shift.o (symbol from plugin)
get_autoshift_timeout                             .build/obj_converter_cumulus_ta15_vial/quantum/process_keycode/process_auto_shift.o (symbol from plugin)
get_combo_term                                    .build/obj_converter_cumulus_ta15_vial/quantum/qmk_settings.o (symbol from plugin)
get_custom_auto_shifted_key                       .build/obj_converter_cumulus_ta15_vial/quantum/process_keycode/process_auto_shift.o (symbol from plugin)
get_event_keycode                                 /var/folders/x9/cy1bx1f960zd_7xhdrxmk_zm0000gn/T//cc8Nwo3z.ltrans1.ltrans.o
                                                  .build/obj_converter_cumulus_ta15_vial/quantum/quantum.o (symbol from plugin)
                                                  /var/folders/x9/cy1bx1f960zd_7xhdrxmk_zm0000gn/T//cc8Nwo3z.ltrans0.ltrans.o
                                                  .build/obj_converter_cumulus_ta15_vial/quantum/action.o (symbol from plugin)
get_first_key                                     .build/obj_converter_cumulus_ta15_vial/protocol/report.o (symbol from plugin)
get_generic_autoshift_timeout                     .build/obj_converter_cumulus_ta15_vial/quantum/process_keycode/process_auto_shift.o (symbol from plugin)
get_hardware_id                                   .build/obj_converter_cumulus_ta15_vial/platforms/chibios/hardware_id.o (symbol from plugin)
get_ignore_mod_tap_interrupt                      .build/obj_converter_cumulus_ta15_vial/quantum/qmk_settings.o (symbol from plugin)
                                                  .build/obj_converter_cumulus_ta15_vial/quantum/action.o (symbol from plugin)
                                                  .build/obj_converter_cumulus_ta15_vial/quantum/process_keycode/process_auto_shift.o (symbol from plugin)
get_mods                                          .build/obj_converter_cumulus_ta15_vial/quantum/action_util.o (symbol from plugin)
                                                  .build/obj_converter_cumulus_ta15_vial/quantum/process_keycode/process_tap_dance.o (symbol from plugin)
                                                  .build/obj_converter_cumulus_ta15_vial/quantum/process_keycode/process_key_override.o (symbol from plugin)
                                                  .build/obj_converter_cumulus_ta15_vial/quantum/process_keycode/process_grave_esc.o (symbol from plugin)
                                                  .build/obj_converter_cumulus_ta15_vial/quantum/process_keycode/process_auto_shift.o (symbol from plugin)
                                                  .build/obj_converter_cumulus_ta15_vial/quantum/process_keycode/process_unicode_common.o (symbol from plugin)
                                                  .build/obj_converter_cumulus_ta15_vial/quantum/action.o (symbol from plugin)
get_numeric_str                                   .build/obj_converter_cumulus_ta15_vial/quantum/quantum.o (symbol from plugin)
get_oneshot_layer                                 .build/obj_converter_cumulus_ta15_vial/quantum/action_util.o (symbol from plugin)
                                                  .build/obj_converter_cumulus_ta15_vial/quantum/action.o (symbol from plugin)
get_oneshot_layer_state                           .build/obj_converter_cumulus_ta15_vial/quantum/action_util.o (symbol from plugin)
                                                  .build/obj_converter_cumulus_ta15_vial/quantum/action.o (symbol from plugin)
get_oneshot_locked_mods                           .build/obj_converter_cumulus_ta15_vial/quantum/action_util.o (symbol from plugin)
                                                  .build/obj_converter_cumulus_ta15_vial/quantum/process_keycode/process_key_override.o (symbol from plugin)
                                                  .build/obj_converter_cumulus_ta15_vial/quantum/action.o (symbol from plugin)
get_oneshot_mods                                  .build/obj_converter_cumulus_ta15_vial/quantum/action_util.o (symbol from plugin)
                                                  .build/obj_converter_cumulus_ta15_vial/quantum/process_keycode/process_tap_dance.o (symbol from plugin)
                                                  .build/obj_converter_cumulus_ta15_vial/quantum/process_keycode/process_key_override.o (symbol from plugin)
                                                  .build/obj_converter_cumulus_ta15_vial/quantum/process_keycode/process_auto_shift.o (symbol from plugin)
                                                  .build/obj_converter_cumulus_ta15_vial/quantum/action.o (symbol from plugin)
get_permissive_hold                               .build/obj_converter_cumulus_ta15_vial/quantum/qmk_settings.o (symbol from plugin)
                                                  .build/obj_converter_cumulus_ta15_vial/quantum/action_tapping.o (symbol from plugin)
get_record_keycode                                /var/folders/x9/cy1bx1f960zd_7xhdrxmk_zm0000gn/T//cc8Nwo3z.ltrans1.ltrans.o
                                                  .build/obj_converter_cumulus_ta15_vial/quantum/quantum.o (symbol from plugin)
                                                  /var/folders/x9/cy1bx1f960zd_7xhdrxmk_zm0000gn/T//cc8Nwo3z.ltrans0.ltrans.o
                                                  .build/obj_converter_cumulus_ta15_vial/quantum/action_tapping.o (symbol from plugin)
get_retro_tapping                                 .build/obj_converter_cumulus_ta15_vial/quantum/qmk_settings.o (symbol from plugin)
                                                  .build/obj_converter_cumulus_ta15_vial/quantum/action.o (symbol from plugin)
get_tapping_force_hold                            .build/obj_converter_cumulus_ta15_vial/quantum/qmk_settings.o (symbol from plugin)
                                                  .build/obj_converter_cumulus_ta15_vial/quantum/action_tapping.o (symbol from plugin)
get_tapping_term                                  .build/obj_converter_cumulus_ta15_vial/quantum/vial.o (symbol from plugin)
                                                  .build/obj_converter_cumulus_ta15_vial/quantum/action_tapping.o (symbol from plugin)
                                                  .build/obj_converter_cumulus_ta15_vial/quantum/process_keycode/process_tap_dance.o (symbol from plugin)
                                                  .build/obj_converter_cumulus_ta15_vial/quantum/process_keycode/process_space_cadet.o (symbol from plugin)
                                                  .build/obj_converter_cumulus_ta15_vial/quantum/process_keycode/process_auto_shift.o (symbol from plugin)
get_u16_str                                       .build/obj_converter_cumulus_ta15_vial/quantum/quantum.o (symbol from plugin)
get_u8_str                                        .build/obj_converter_cumulus_ta15_vial/quantum/quantum.o (symbol from plugin)
get_unicode_input_mode                            .build/obj_converter_cumulus_ta15_vial/quantum/process_keycode/process_unicode_common.o (symbol from plugin)
get_usb_descriptor                                .build/obj_converter_cumulus_ta15_vial/usb_descriptor.o (symbol from plugin)
                                                  .build/obj_converter_cumulus_ta15_vial/protocol/chibios/usb_main.o (symbol from plugin)
get_weak_mods                                     .build/obj_converter_cumulus_ta15_vial/quantum/action_util.o (symbol from plugin)
                                                  .build/obj_converter_cumulus_ta15_vial/quantum/process_keycode/process_tap_dance.o (symbol from plugin)
gnu_lto_v1                                        /var/folders/x9/cy1bx1f960zd_7xhdrxmk_zm0000gn/T//ccbHuJM1debugobj
gpio.c.1999ea8c                                   /var/folders/x9/cy1bx1f960zd_7xhdrxmk_zm0000gn/T//ccbHuJM1debugobj
gpio_acknowledge_irq                              .build/obj_converter_cumulus_ta15/./lib/pico-sdk/src/rp2_common/hardware_gpio/gpio.o (symbol from plugin)
gpio_debug_pins_init                              .build/obj_converter_cumulus_ta15/./lib/pico-sdk/src/rp2_common/hardware_gpio/gpio.o (symbol from plugin)
gpio_deinit                                       .build/obj_converter_cumulus_ta15/./lib/pico-sdk/src/rp2_common/hardware_gpio/gpio.o (symbol from plugin)
gpio_get_drive_strength                           .build/obj_converter_cumulus_ta15/./lib/pico-sdk/src/rp2_common/hardware_gpio/gpio.o (symbol from plugin)
gpio_get_function                                 .build/obj_converter_cumulus_ta15/./lib/pico-sdk/src/rp2_common/hardware_gpio/gpio.o (symbol from plugin)
gpio_get_pad                                      .build/obj_converter_cumulus_ta15/./lib/pico-sdk/src/rp2_common/hardware_gpio/gpio.o (symbol from plugin)
gpio_get_slew_rate                                .build/obj_converter_cumulus_ta15/./lib/pico-sdk/src/rp2_common/hardware_gpio/gpio.o (symbol from plugin)
gpio_init                                         .build/obj_converter_cumulus_ta15/./lib/pico-sdk/src/rp2_common/hardware_gpio/gpio.o (symbol from plugin)
gpio_init_mask                                    .build/obj_converter_cumulus_ta15/./lib/pico-sdk/src/rp2_common/hardware_gpio/gpio.o (symbol from plugin)
gpio_is_input_hysteresis_enabled                  .build/obj_converter_cumulus_ta15/./lib/pico-sdk/src/rp2_common/hardware_gpio/gpio.o (symbol from plugin)
gpio_set_dormant_irq_enabled                      .build/obj_converter_cumulus_ta15/./lib/pico-sdk/src/rp2_common/hardware_gpio/gpio.o (symbol from plugin)
gpio_set_drive_strength                           .build/obj_converter_cumulus_ta15/./lib/pico-sdk/src/rp2_common/hardware_gpio/gpio.o (symbol from plugin)
gpio_set_function                                 .build/obj_converter_cumulus_ta15/./lib/pico-sdk/src/rp2_common/hardware_gpio/gpio.o (symbol from plugin)
                                                  .build/obj_converter_cumulus_ta15/./lib/pico-sdk/src/rp2_common/hardware_clocks/clocks.o (symbol from plugin)
gpio_set_inover                                   .build/obj_converter_cumulus_ta15/./lib/pico-sdk/src/rp2_common/hardware_gpio/gpio.o (symbol from plugin)
gpio_set_input_enabled                            .build/obj_converter_cumulus_ta15/./lib/pico-sdk/src/rp2_common/hardware_gpio/gpio.o (symbol from plugin)
gpio_set_input_hysteresis_enabled                 .build/obj_converter_cumulus_ta15/./lib/pico-sdk/src/rp2_common/hardware_gpio/gpio.o (symbol from plugin)
gpio_set_irq_enabled                              .build/obj_converter_cumulus_ta15/./lib/pico-sdk/src/rp2_common/hardware_gpio/gpio.o (symbol from plugin)
gpio_set_irq_enabled_with_callback                .build/obj_converter_cumulus_ta15/./lib/pico-sdk/src/rp2_common/hardware_gpio/gpio.o (symbol from plugin)
gpio_set_irqover                                  .build/obj_converter_cumulus_ta15/./lib/pico-sdk/src/rp2_common/hardware_gpio/gpio.o (symbol from plugin)
gpio_set_oeover                                   .build/obj_converter_cumulus_ta15/./lib/pico-sdk/src/rp2_common/hardware_gpio/gpio.o (symbol from plugin)
gpio_set_outover                                  .build/obj_converter_cumulus_ta15/./lib/pico-sdk/src/rp2_common/hardware_gpio/gpio.o (symbol from plugin)
gpio_set_pulls                                    .build/obj_converter_cumulus_ta15/./lib/pico-sdk/src/rp2_common/hardware_gpio/gpio.o (symbol from plugin)
gpio_set_slew_rate                                .build/obj_converter_cumulus_ta15/./lib/pico-sdk/src/rp2_common/hardware_gpio/gpio.o (symbol from plugin)
hal.c.fe603a5b                                    /var/folders/x9/cy1bx1f960zd_7xhdrxmk_zm0000gn/T//ccbHuJM1debugobj
                                                  /var/folders/x9/cy1bx1f960zd_7xhdrxmk_zm0000gn/T//cc8Nwo3z.ltrans0.ltrans.o
halInit                                           .build/obj_converter_cumulus_ta15/lib/chibios/os/hal/src/hal.o (symbol from plugin)
                                                  .build/obj_converter_cumulus_ta15_vial/platforms/chibios/platform.o (symbol from plugin)
hal_adc.c.3e2ebf37                                /var/folders/x9/cy1bx1f960zd_7xhdrxmk_zm0000gn/T//ccbHuJM1debugobj
hal_adc_lld.c.486f7087                            /var/folders/x9/cy1bx1f960zd_7xhdrxmk_zm0000gn/T//ccbHuJM1debugobj
hal_buffers.c.17170541                            /var/folders/x9/cy1bx1f960zd_7xhdrxmk_zm0000gn/T//ccbHuJM1debugobj
                                                  /var/folders/x9/cy1bx1f960zd_7xhdrxmk_zm0000gn/T//cc8Nwo3z.ltrans0.ltrans.o
hal_can.c.09b95dd0                                /var/folders/x9/cy1bx1f960zd_7xhdrxmk_zm0000gn/T//ccbHuJM1debugobj
hal_crypto.c.51dd2e5b                             /var/folders/x9/cy1bx1f960zd_7xhdrxmk_zm0000gn/T//ccbHuJM1debugobj
hal_dac.c.ae10a33b                                /var/folders/x9/cy1bx1f960zd_7xhdrxmk_zm0000gn/T//ccbHuJM1debugobj
hal_efl.c.f29307f6                                /var/folders/x9/cy1bx1f960zd_7xhdrxmk_zm0000gn/T//ccbHuJM1debugobj
hal_flash.c.cd07c207                              /var/folders/x9/cy1bx1f960zd_7xhdrxmk_zm0000gn/T//ccbHuJM1debugobj
hal_gpt.c.95c2c7be                                /var/folders/x9/cy1bx1f960zd_7xhdrxmk_zm0000gn/T//ccbHuJM1debugobj
hal_i2c.c.e3d388c2                                /var/folders/x9/cy1bx1f960zd_7xhdrxmk_zm0000gn/T//ccbHuJM1debugobj
hal_i2c_lld.c.ff96313e                            /var/folders/x9/cy1bx1f960zd_7xhdrxmk_zm0000gn/T//ccbHuJM1debugobj
hal_i2s.c.76ad06f2                                /var/folders/x9/cy1bx1f960zd_7xhdrxmk_zm0000gn/T//ccbHuJM1debugobj
hal_icu.c.bc5c046b                                /var/folders/x9/cy1bx1f960zd_7xhdrxmk_zm0000gn/T//ccbHuJM1debugobj
hal_lld.c.3cb906ec                                /var/folders/x9/cy1bx1f960zd_7xhdrxmk_zm0000gn/T//ccbHuJM1debugobj
                                                  /var/folders/x9/cy1bx1f960zd_7xhdrxmk_zm0000gn/T//cc8Nwo3z.ltrans0.ltrans.o
hal_lld_init                                      .build/obj_converter_cumulus_ta15/lib/chibios/os/hal/ports/RP/RP2040/hal_lld.o (symbol from plugin)
                                                  .build/obj_converter_cumulus_ta15/lib/chibios/os/hal/src/hal.o (symbol from plugin)
hal_mac.c.86d440a8                                /var/folders/x9/cy1bx1f960zd_7xhdrxmk_zm0000gn/T//ccbHuJM1debugobj
hal_mmc_spi.c.1bc836fd                            /var/folders/x9/cy1bx1f960zd_7xhdrxmk_zm0000gn/T//ccbHuJM1debugobj
hal_mmcsd.c.1d51729a                              /var/folders/x9/cy1bx1f960zd_7xhdrxmk_zm0000gn/T//ccbHuJM1debugobj
hal_pal.c.8fd1e2cb                                /var/folders/x9/cy1bx1f960zd_7xhdrxmk_zm0000gn/T//ccbHuJM1debugobj
hal_pal_lld.c.cabc3557                            /var/folders/x9/cy1bx1f960zd_7xhdrxmk_zm0000gn/T//ccbHuJM1debugobj
                                                  /var/folders/x9/cy1bx1f960zd_7xhdrxmk_zm0000gn/T//cc8Nwo3z.ltrans0.ltrans.o
hal_pwm.c.e128d70d                                /var/folders/x9/cy1bx1f960zd_7xhdrxmk_zm0000gn/T//ccbHuJM1debugobj
hal_pwm_lld.c.b2e17e81                            /var/folders/x9/cy1bx1f960zd_7xhdrxmk_zm0000gn/T//ccbHuJM1debugobj
hal_queues.c.d92994c0                             /var/folders/x9/cy1bx1f960zd_7xhdrxmk_zm0000gn/T//ccbHuJM1debugobj
hal_rtc.c.f4e3727f                                /var/folders/x9/cy1bx1f960zd_7xhdrxmk_zm0000gn/T//ccbHuJM1debugobj
hal_rtc_lld.c.d0e133d2                            /var/folders/x9/cy1bx1f960zd_7xhdrxmk_zm0000gn/T//ccbHuJM1debugobj
hal_sdc.c.05f53d12                                /var/folders/x9/cy1bx1f960zd_7xhdrxmk_zm0000gn/T//ccbHuJM1debugobj
hal_serial.c.b2a0c1a1                             /var/folders/x9/cy1bx1f960zd_7xhdrxmk_zm0000gn/T//ccbHuJM1debugobj
hal_serial_usb.c.c1075b42                         /var/folders/x9/cy1bx1f960zd_7xhdrxmk_zm0000gn/T//ccbHuJM1debugobj
hal_sio.c.c7e54b10                                /var/folders/x9/cy1bx1f960zd_7xhdrxmk_zm0000gn/T//ccbHuJM1debugobj
hal_sio_lld.c.1cea61c5                            /var/folders/x9/cy1bx1f960zd_7xhdrxmk_zm0000gn/T//ccbHuJM1debugobj
hal_spi.c.1eeabfb1                                /var/folders/x9/cy1bx1f960zd_7xhdrxmk_zm0000gn/T//ccbHuJM1debugobj
hal_spi_lld.c.bee7eea4                            /var/folders/x9/cy1bx1f960zd_7xhdrxmk_zm0000gn/T//ccbHuJM1debugobj
hal_st.c.92d6508f                                 /var/folders/x9/cy1bx1f960zd_7xhdrxmk_zm0000gn/T//ccbHuJM1debugobj
                                                  /var/folders/x9/cy1bx1f960zd_7xhdrxmk_zm0000gn/T//cc8Nwo3z.ltrans0.ltrans.o
hal_st_lld.c.ec3ce55c                             /var/folders/x9/cy1bx1f960zd_7xhdrxmk_zm0000gn/T//ccbHuJM1debugobj
                                                  /var/folders/x9/cy1bx1f960zd_7xhdrxmk_zm0000gn/T//cc8Nwo3z.ltrans0.ltrans.o
hal_trng.c.2e71d8ea                               /var/folders/x9/cy1bx1f960zd_7xhdrxmk_zm0000gn/T//ccbHuJM1debugobj
hal_uart.c.5e2dfd54                               /var/folders/x9/cy1bx1f960zd_7xhdrxmk_zm0000gn/T//ccbHuJM1debugobj
hal_usb.c.5f555a8a                                /var/folders/x9/cy1bx1f960zd_7xhdrxmk_zm0000gn/T//ccbHuJM1debugobj
                                                  /var/folders/x9/cy1bx1f960zd_7xhdrxmk_zm0000gn/T//cc8Nwo3z.ltrans0.ltrans.o
hal_usb_lld.c.59850fc7                            /var/folders/x9/cy1bx1f960zd_7xhdrxmk_zm0000gn/T//ccbHuJM1debugobj
                                                  /var/folders/x9/cy1bx1f960zd_7xhdrxmk_zm0000gn/T//cc8Nwo3z.ltrans0.ltrans.o
hal_wdg.c.21849733                                /var/folders/x9/cy1bx1f960zd_7xhdrxmk_zm0000gn/T//ccbHuJM1debugobj
hal_wdg_lld.c.fb14ac47                            /var/folders/x9/cy1bx1f960zd_7xhdrxmk_zm0000gn/T//ccbHuJM1debugobj
hal_wspi.c.bae1c734                               /var/folders/x9/cy1bx1f960zd_7xhdrxmk_zm0000gn/T//ccbHuJM1debugobj
hard_assertion_failure                            .build/obj_converter_cumulus_ta15/platforms/chibios/vendors/RP/pico_sdk_shims.o (symbol from plugin)
                                                  .build/obj_converter_cumulus_ta15/./lib/pico-sdk/src/rp2_common/hardware_flash/flash.o (symbol from plugin)
hardware_id.c.d2143281                            /var/folders/x9/cy1bx1f960zd_7xhdrxmk_zm0000gn/T//ccbHuJM1debugobj
has_anykey                                        .build/obj_converter_cumulus_ta15_vial/protocol/report.o (symbol from plugin)
                                                  .build/obj_converter_cumulus_ta15_vial/quantum/action_util.o (symbol from plugin)
has_anymod                                        .build/obj_converter_cumulus_ta15_vial/quantum/action_util.o (symbol from plugin)
has_mouse_report_changed                          .build/obj_converter_cumulus_ta15_vial/protocol/report.o (symbol from plugin)
                                                  .build/obj_converter_cumulus_ta15_vial/quantum/mousekey.o (symbol from plugin)
has_oneshot_layer_timed_out                       .build/obj_converter_cumulus_ta15_vial/quantum/action_util.o (symbol from plugin)
                                                  .build/obj_converter_cumulus_ta15_vial/quantum/action.o (symbol from plugin)
has_oneshot_mods_timed_out                        /var/folders/x9/cy1bx1f960zd_7xhdrxmk_zm0000gn/T//cc8Nwo3z.ltrans0.ltrans.o
                                                  .build/obj_converter_cumulus_ta15_vial/quantum/action_util.o (symbol from plugin)
                                                  /var/folders/x9/cy1bx1f960zd_7xhdrxmk_zm0000gn/T//cc8Nwo3z.ltrans1.ltrans.o
                                                  .build/obj_converter_cumulus_ta15_vial/quantum/action.o (symbol from plugin)
hash_32a.c.f816a164                               /var/folders/x9/cy1bx1f960zd_7xhdrxmk_zm0000gn/T//ccbHuJM1debugobj
hash_64a.c.1d561502                               /var/folders/x9/cy1bx1f960zd_7xhdrxmk_zm0000gn/T//ccbHuJM1debugobj
                                                  /var/folders/x9/cy1bx1f960zd_7xhdrxmk_zm0000gn/T//cc8Nwo3z.ltrans0.ltrans.o
host.c.de5900a4                                   /var/folders/x9/cy1bx1f960zd_7xhdrxmk_zm0000gn/T//ccbHuJM1debugobj
                                                  /var/folders/x9/cy1bx1f960zd_7xhdrxmk_zm0000gn/T//cc8Nwo3z.ltrans0.ltrans.o
host_consumer_send                                .build/obj_converter_cumulus_ta15_vial/protocol/host.o (symbol from plugin)
                                                  .build/obj_converter_cumulus_ta15_vial/platforms/chibios/suspend.o (symbol from plugin)
                                                  .build/obj_converter_cumulus_ta15_vial/quantum/action.o (symbol from plugin)
host_digitizer_send                               .build/obj_converter_cumulus_ta15_vial/protocol/host.o (symbol from plugin)
host_get_driver                                   .build/obj_converter_cumulus_ta15_vial/protocol/host.o (symbol from plugin)
host_keyboard_led_state                           .build/obj_converter_cumulus_ta15_vial/protocol/host.o (symbol from plugin)
                                                  .build/obj_converter_cumulus_ta15_vial/quantum/process_keycode/process_unicode_common.o (symbol from plugin)
host_keyboard_leds                                .build/obj_converter_cumulus_ta15_vial/protocol/host.o (symbol from plugin)
                                                  .build/obj_converter_cumulus_ta15_vial/quantum/action.o (symbol from plugin)
                                                  .build/obj_converter_cumulus_ta15_vial/quantum/led.o (symbol from plugin)
host_keyboard_send                                .build/obj_converter_cumulus_ta15_vial/protocol/host.o (symbol from plugin)
                                                  .build/obj_converter_cumulus_ta15_vial/quantum/action_util.o (symbol from plugin)
host_last_consumer_report                         .build/obj_converter_cumulus_ta15_vial/protocol/host.o (symbol from plugin)
host_last_programmable_button_report              .build/obj_converter_cumulus_ta15_vial/protocol/host.o (symbol from plugin)
host_last_system_report                           .build/obj_converter_cumulus_ta15_vial/protocol/host.o (symbol from plugin)
host_mouse_send                                   .build/obj_converter_cumulus_ta15_vial/protocol/host.o (symbol from plugin)
                                                  .build/obj_converter_cumulus_ta15_vial/quantum/mousekey.o (symbol from plugin)
host_programmable_button_send                     .build/obj_converter_cumulus_ta15_vial/protocol/host.o (symbol from plugin)
host_set_driver                                   .build/obj_converter_cumulus_ta15_vial/protocol/host.o (symbol from plugin)
                                                  .build/obj_converter_cumulus_ta15_vial/protocol/chibios/chibios.o (symbol from plugin)
host_system_send                                  .build/obj_converter_cumulus_ta15_vial/protocol/host.o (symbol from plugin)
                                                  .build/obj_converter_cumulus_ta15_vial/platforms/chibios/suspend.o (symbol from plugin)
                                                  .build/obj_converter_cumulus_ta15_vial/quantum/action.o (symbol from plugin)
housekeeping_task                                 .build/obj_converter_cumulus_ta15_vial/quantum/keyboard.o (symbol from plugin)
                                                  .build/obj_converter_cumulus_ta15_vial/quantum/main.o (symbol from plugin)
housekeeping_task_kb                              .build/obj_converter_cumulus_ta15_vial/quantum/keyboard.o (symbol from plugin)
housekeeping_task_user                            .build/obj_converter_cumulus_ta15_vial/quantum/keyboard.o (symbol from plugin)
hw_claim_clear                                    .build/obj_converter_cumulus_ta15/./lib/pico-sdk/src/rp2_common/hardware_claim/claim.o (symbol from plugin)
                                                  .build/obj_converter_cumulus_ta15/./lib/pico-sdk/src/rp2_common/hardware_pio/pio.o (symbol from plugin)
hw_claim_lock                                     .build/obj_converter_cumulus_ta15/./lib/pico-sdk/src/rp2_common/hardware_claim/claim.o (symbol from plugin)
                                                  .build/obj_converter_cumulus_ta15/./lib/pico-sdk/src/rp2_common/hardware_pio/pio.o (symbol from plugin)
hw_claim_or_assert                                .build/obj_converter_cumulus_ta15/./lib/pico-sdk/src/rp2_common/hardware_claim/claim.o (symbol from plugin)
                                                  .build/obj_converter_cumulus_ta15/./lib/pico-sdk/src/rp2_common/hardware_pio/pio.o (symbol from plugin)
hw_claim_unlock                                   .build/obj_converter_cumulus_ta15/./lib/pico-sdk/src/rp2_common/hardware_claim/claim.o (symbol from plugin)
                                                  .build/obj_converter_cumulus_ta15/./lib/pico-sdk/src/rp2_common/hardware_pio/pio.o (symbol from plugin)
hw_claim_unused_from_range                        .build/obj_converter_cumulus_ta15/./lib/pico-sdk/src/rp2_common/hardware_claim/claim.o (symbol from plugin)
                                                  .build/obj_converter_cumulus_ta15/./lib/pico-sdk/src/rp2_common/hardware_pio/pio.o (symbol from plugin)
hw_is_claimed                                     .build/obj_converter_cumulus_ta15/./lib/pico-sdk/src/rp2_common/hardware_claim/claim.o (symbol from plugin)
                                                  .build/obj_converter_cumulus_ta15/./lib/pico-sdk/src/rp2_common/hardware_pio/pio.o (symbol from plugin)
ibqGetEmptyBufferI                                .build/obj_converter_cumulus_ta15/lib/chibios/os/hal/src/hal_buffers.o (symbol from plugin)
                                                  .build/obj_converter_cumulus_ta15_vial/protocol/chibios/usb_driver.o (symbol from plugin)
ibqGetFullBufferTimeout                           .build/obj_converter_cumulus_ta15/lib/chibios/os/hal/src/hal_buffers.o (symbol from plugin)
ibqGetFullBufferTimeoutS                          .build/obj_converter_cumulus_ta15/lib/chibios/os/hal/src/hal_buffers.o (symbol from plugin)
ibqGetTimeout                                     .build/obj_converter_cumulus_ta15/lib/chibios/os/hal/src/hal_buffers.o (symbol from plugin)
                                                  .build/obj_converter_cumulus_ta15_vial/protocol/chibios/usb_driver.o (symbol from plugin)
ibqObjectInit                                     .build/obj_converter_cumulus_ta15/lib/chibios/os/hal/src/hal_buffers.o (symbol from plugin)
                                                  .build/obj_converter_cumulus_ta15_vial/protocol/chibios/usb_driver.o (symbol from plugin)
ibqPostFullBufferI                                .build/obj_converter_cumulus_ta15/lib/chibios/os/hal/src/hal_buffers.o (symbol from plugin)
                                                  .build/obj_converter_cumulus_ta15_vial/protocol/chibios/usb_driver.o (symbol from plugin)
ibqReadTimeout                                    .build/obj_converter_cumulus_ta15/lib/chibios/os/hal/src/hal_buffers.o (symbol from plugin)
                                                  .build/obj_converter_cumulus_ta15_vial/protocol/chibios/usb_driver.o (symbol from plugin)
ibqReleaseEmptyBuffer                             .build/obj_converter_cumulus_ta15/lib/chibios/os/hal/src/hal_buffers.o (symbol from plugin)
ibqReleaseEmptyBufferS                            .build/obj_converter_cumulus_ta15/lib/chibios/os/hal/src/hal_buffers.o (symbol from plugin)
ibqResetI                                         .build/obj_converter_cumulus_ta15/lib/chibios/os/hal/src/hal_buffers.o (symbol from plugin)
                                                  .build/obj_converter_cumulus_ta15_vial/protocol/chibios/usb_driver.o (symbol from plugin)
init_usb_driver                                   .build/obj_converter_cumulus_ta15_vial/protocol/chibios/usb_main.o (symbol from plugin)
                                                  .build/obj_converter_cumulus_ta15_vial/protocol/chibios/chibios.o (symbol from plugin)
iqGetI                                            .build/obj_converter_cumulus_ta15/lib/chibios/os/hal/src/hal_queues.o (symbol from plugin)
iqGetTimeout                                      .build/obj_converter_cumulus_ta15/lib/chibios/os/hal/src/hal_queues.o (symbol from plugin)
iqObjectInit                                      .build/obj_converter_cumulus_ta15/lib/chibios/os/hal/src/hal_queues.o (symbol from plugin)
iqPutI                                            .build/obj_converter_cumulus_ta15/lib/chibios/os/hal/src/hal_queues.o (symbol from plugin)
iqReadI                                           .build/obj_converter_cumulus_ta15/lib/chibios/os/hal/src/hal_queues.o (symbol from plugin)
iqReadTimeout                                     .build/obj_converter_cumulus_ta15/lib/chibios/os/hal/src/hal_queues.o (symbol from plugin)
iqResetI                                          .build/obj_converter_cumulus_ta15/lib/chibios/os/hal/src/hal_queues.o (symbol from plugin)
irqDeinit                                         .build/obj_converter_cumulus_ta15/lib/chibios/os/hal/ports/RP/RP2040/rp_isr.o (symbol from plugin)
irqInit                                           .build/obj_converter_cumulus_ta15/lib/chibios/os/hal/ports/RP/RP2040/rp_isr.o (symbol from plugin)
                                                  .build/obj_converter_cumulus_ta15/lib/chibios/os/hal/ports/RP/RP2040/hal_lld.o (symbol from plugin)
irq_set_enabled                                   .build/obj_converter_cumulus_ta15/./lib/pico-sdk/src/rp2_common/hardware_gpio/gpio.o (symbol from plugin)
                                                  .build/obj_converter_cumulus_ta15/./lib/pico-sdk/src/rp2_common/hardware_clocks/clocks.o (symbol from plugin)
irq_set_exclusive_handler                         .build/obj_converter_cumulus_ta15/./lib/pico-sdk/src/rp2_common/hardware_gpio/gpio.o (symbol from plugin)
                                                  .build/obj_converter_cumulus_ta15/./lib/pico-sdk/src/rp2_common/hardware_clocks/clocks.o (symbol from plugin)
is_combo_enabled                                  .build/obj_converter_cumulus_ta15_vial/quantum/process_keycode/process_combo.o (symbol from plugin)
is_key_pressed                                    .build/obj_converter_cumulus_ta15_vial/protocol/report.o (symbol from plugin)
                                                  .build/obj_converter_cumulus_ta15_vial/quantum/action.o (symbol from plugin)
is_keyboard_left                                  .build/obj_converter_cumulus_ta15_vial/quantum/keyboard.o (symbol from plugin)
is_keyboard_master                                .build/obj_converter_cumulus_ta15_vial/quantum/keyboard.o (symbol from plugin)
is_oneshot_enabled                                .build/obj_converter_cumulus_ta15_vial/quantum/action_util.o (symbol from plugin)
is_oneshot_layer_active                           .build/obj_converter_cumulus_ta15_vial/quantum/action_util.o (symbol from plugin)
                                                  .build/obj_converter_cumulus_ta15_vial/quantum/action.o (symbol from plugin)
is_tap_action                                     .build/obj_converter_cumulus_ta15_vial/quantum/action.o (symbol from plugin)
is_tap_record                                     .build/obj_converter_cumulus_ta15_vial/quantum/action.o (symbol from plugin)
                                                  .build/obj_converter_cumulus_ta15_vial/quantum/action_tapping.o (symbol from plugin)
kbd_in_cb                                         .build/obj_converter_cumulus_ta15_vial/protocol/chibios/usb_main.o (symbol from plugin)
kbd_sof_cb                                        .build/obj_converter_cumulus_ta15_vial/protocol/chibios/usb_main.o (symbol from plugin)
key_buffer.lto_priv.135                           /var/folders/x9/cy1bx1f960zd_7xhdrxmk_zm0000gn/T//cc8Nwo3z.ltrans0.ltrans.o
                                                  /var/folders/x9/cy1bx1f960zd_7xhdrxmk_zm0000gn/T//cc8Nwo3z.ltrans1.ltrans.o
key_buffer_size.lto_priv.134                      /var/folders/x9/cy1bx1f960zd_7xhdrxmk_zm0000gn/T//cc8Nwo3z.ltrans0.ltrans.o
                                                  /var/folders/x9/cy1bx1f960zd_7xhdrxmk_zm0000gn/T//cc8Nwo3z.ltrans1.ltrans.o
key_combos                                        /var/folders/x9/cy1bx1f960zd_7xhdrxmk_zm0000gn/T//cc8Nwo3z.ltrans0.ltrans.o
                                                  .build/obj_converter_cumulus_ta15_vial/quantum/vial.o (symbol from plugin)
                                                  /var/folders/x9/cy1bx1f960zd_7xhdrxmk_zm0000gn/T//cc8Nwo3z.ltrans1.ltrans.o
key_combos_keys                                   .build/obj_converter_cumulus_ta15_vial/quantum/vial.o (symbol from plugin)
key_override_is_enabled                           .build/obj_converter_cumulus_ta15_vial/quantum/process_keycode/process_key_override.o (symbol from plugin)
key_override_off                                  .build/obj_converter_cumulus_ta15_vial/quantum/process_keycode/process_key_override.o (symbol from plugin)
key_override_on                                   .build/obj_converter_cumulus_ta15_vial/quantum/process_keycode/process_key_override.o (symbol from plugin)
key_override_task                                 .build/obj_converter_cumulus_ta15_vial/quantum/process_keycode/process_key_override.o (symbol from plugin)
                                                  .build/obj_converter_cumulus_ta15_vial/quantum/keyboard.o (symbol from plugin)
key_override_toggle                               .build/obj_converter_cumulus_ta15_vial/quantum/process_keycode/process_key_override.o (symbol from plugin)
key_overrides                                     .build/obj_converter_cumulus_ta15_vial/quantum/vial.o (symbol from plugin)
keyboard.c.06296d10                               /var/folders/x9/cy1bx1f960zd_7xhdrxmk_zm0000gn/T//ccbHuJM1debugobj
                                                  /var/folders/x9/cy1bx1f960zd_7xhdrxmk_zm0000gn/T//cc8Nwo3z.ltrans0.ltrans.o
keyboard_idle                                     .build/obj_converter_cumulus_ta15_vial/protocol/chibios/usb_main.o (symbol from plugin)
keyboard_idle_count                               .build/obj_converter_cumulus_ta15_vial/protocol/chibios/usb_main.o (symbol from plugin)
keyboard_init                                     .build/obj_converter_cumulus_ta15_vial/quantum/keyboard.o (symbol from plugin)
                                                  .build/obj_converter_cumulus_ta15_vial/quantum/main.o (symbol from plugin)
keyboard_led_state                                .build/obj_converter_cumulus_ta15_vial/protocol/chibios/usb_main.o (symbol from plugin)
keyboard_leds                                     .build/obj_converter_cumulus_ta15_vial/protocol/chibios/usb_main.o (symbol from plugin)
                                                  .build/obj_converter_cumulus_ta15_vial/protocol/chibios/chibios.o (symbol from plugin)
keyboard_post_init_kb                             .build/obj_converter_cumulus_ta15_vial/quantum/keyboard.o (symbol from plugin)
keyboard_post_init_user                           .build/obj_converter_cumulus_ta15_vial/quantum/keyboard.o (symbol from plugin)
keyboard_pre_init_kb                              .build/obj_converter_cumulus_ta15_vial/quantum/keyboard.o (symbol from plugin)
keyboard_pre_init_user                            .build/obj_converter_cumulus_ta15_vial/quantum/keyboard.o (symbol from plugin)
keyboard_protocol                                 .build/obj_converter_cumulus_ta15_vial/protocol/chibios/usb_main.o (symbol from plugin)
                                                  .build/obj_converter_cumulus_ta15_vial/protocol/report.o (symbol from plugin)
                                                  .build/obj_converter_cumulus_ta15_vial/protocol/host.o (symbol from plugin)
keyboard_report                                   .build/obj_converter_cumulus_ta15_vial/quantum/action_util.o (symbol from plugin)
                                                  .build/obj_converter_cumulus_ta15_vial/platforms/chibios/suspend.o (symbol from plugin)
                                                  .build/obj_converter_cumulus_ta15_vial/quantum/process_keycode/process_key_override.o (symbol from plugin)
                                                  .build/obj_converter_cumulus_ta15_vial/quantum/process_keycode/process_grave_esc.o (symbol from plugin)
                                                  .build/obj_converter_cumulus_ta15_vial/quantum/action.o (symbol from plugin)
keyboard_report_sent                              .build/obj_converter_cumulus_ta15_vial/protocol/chibios/usb_main.o (symbol from plugin)
keyboard_setup                                    .build/obj_converter_cumulus_ta15_vial/quantum/keyboard.o (symbol from plugin)
                                                  .build/obj_converter_cumulus_ta15_vial/quantum/main.o (symbol from plugin)
keyboard_task                                     .build/obj_converter_cumulus_ta15_vial/quantum/keyboard.o (symbol from plugin)
                                                  .build/obj_converter_cumulus_ta15_vial/quantum/main.o (symbol from plugin)
keycode_at_keymap_location                        .build/obj_converter_cumulus_ta15_vial/quantum/keymap_introspection.o (symbol from plugin)
keycode_at_keymap_location_raw                    .build/obj_converter_cumulus_ta15_vial/quantum/keymap_introspection.o (symbol from plugin)
                                                  .build/obj_converter_cumulus_ta15_vial/quantum/dynamic_keymap.o (symbol from plugin)
keycode_config                                    .build/obj_converter_cumulus_ta15_vial/quantum/keycode_config.o (symbol from plugin)
                                                  .build/obj_converter_cumulus_ta15_vial/quantum/keymap_common.o (symbol from plugin)
keycode_config.c.6292a3df                         /var/folders/x9/cy1bx1f960zd_7xhdrxmk_zm0000gn/T//ccbHuJM1debugobj
                                                  /var/folders/x9/cy1bx1f960zd_7xhdrxmk_zm0000gn/T//cc8Nwo3z.ltrans0.ltrans.o
keymap_common.c.134df2fe                          /var/folders/x9/cy1bx1f960zd_7xhdrxmk_zm0000gn/T//ccbHuJM1debugobj
                                                  /var/folders/x9/cy1bx1f960zd_7xhdrxmk_zm0000gn/T//cc8Nwo3z.ltrans0.ltrans.o
keymap_config                                     /var/folders/x9/cy1bx1f960zd_7xhdrxmk_zm0000gn/T//cc8Nwo3z.ltrans0.ltrans.o
                                                  .build/obj_converter_cumulus_ta15_vial/quantum/bootmagic/magic.o (symbol from plugin)
                                                  /var/folders/x9/cy1bx1f960zd_7xhdrxmk_zm0000gn/T//cc8Nwo3z.ltrans1.ltrans.o
                                                  .build/obj_converter_cumulus_ta15_vial/protocol/chibios/usb_main.o (symbol from plugin)
                                                  .build/obj_converter_cumulus_ta15_vial/protocol/report.o (symbol from plugin)
                                                  .build/obj_converter_cumulus_ta15_vial/protocol/host.o (symbol from plugin)
                                                  .build/obj_converter_cumulus_ta15_vial/quantum/process_keycode/process_magic.o (symbol from plugin)
                                                  .build/obj_converter_cumulus_ta15_vial/quantum/qmk_settings.o (symbol from plugin)
                                                  .build/obj_converter_cumulus_ta15_vial/quantum/keycode_config.o (symbol from plugin)
                                                  .build/obj_converter_cumulus_ta15_vial/quantum/action_util.o (symbol from plugin)
                                                  .build/obj_converter_cumulus_ta15_vial/quantum/action.o (symbol from plugin)
keymap_introspection.c.753028dd                   /var/folders/x9/cy1bx1f960zd_7xhdrxmk_zm0000gn/T//ccbHuJM1debugobj
                                                  /var/folders/x9/cy1bx1f960zd_7xhdrxmk_zm0000gn/T//cc8Nwo3z.ltrans1.ltrans.o
                                                  /var/folders/x9/cy1bx1f960zd_7xhdrxmk_zm0000gn/T//cc8Nwo3z.ltrans0.ltrans.o
keymap_key_to_keycode                             /var/folders/x9/cy1bx1f960zd_7xhdrxmk_zm0000gn/T//cc8Nwo3z.ltrans0.ltrans.o
                                                  .build/obj_converter_cumulus_ta15_vial/quantum/dynamic_keymap.o (symbol from plugin)
                                                  .build/obj_converter_cumulus_ta15_vial/quantum/keymap_common.o (symbol from plugin)
                                                  /var/folders/x9/cy1bx1f960zd_7xhdrxmk_zm0000gn/T//cc8Nwo3z.ltrans1.ltrans.o
                                                  .build/obj_converter_cumulus_ta15_vial/quantum/quantum.o (symbol from plugin)
keymap_layer_count                                .build/obj_converter_cumulus_ta15_vial/quantum/keymap_introspection.o (symbol from plugin)
                                                  .build/obj_converter_cumulus_ta15_vial/quantum/dynamic_keymap.o (symbol from plugin)
keymap_layer_count_raw                            .build/obj_converter_cumulus_ta15_vial/quantum/keymap_introspection.o (symbol from plugin)
keymaps                                           .build/obj_converter_cumulus_ta15_vial/quantum/keymap_introspection.o (symbol from plugin)
                                                  .build/obj_converter_cumulus_ta15_vial/quantum/keymap_common.o (symbol from plugin)
last_encoder_activity_elapsed                     .build/obj_converter_cumulus_ta15_vial/quantum/keyboard.o (symbol from plugin)
last_encoder_activity_time                        .build/obj_converter_cumulus_ta15_vial/quantum/keyboard.o (symbol from plugin)
last_encoder_activity_trigger                     .build/obj_converter_cumulus_ta15_vial/quantum/keyboard.o (symbol from plugin)
last_input_activity_elapsed                       .build/obj_converter_cumulus_ta15_vial/quantum/keyboard.o (symbol from plugin)
last_input_activity_time                          .build/obj_converter_cumulus_ta15_vial/quantum/keyboard.o (symbol from plugin)
last_led_activity_elapsed                         .build/obj_converter_cumulus_ta15_vial/quantum/led.o (symbol from plugin)
last_led_activity_time                            .build/obj_converter_cumulus_ta15_vial/quantum/led.o (symbol from plugin)
last_matrix_activity_elapsed                      .build/obj_converter_cumulus_ta15_vial/quantum/keyboard.o (symbol from plugin)
last_matrix_activity_time                         .build/obj_converter_cumulus_ta15_vial/quantum/keyboard.o (symbol from plugin)
last_matrix_activity_trigger                      .build/obj_converter_cumulus_ta15_vial/quantum/keyboard.o (symbol from plugin)
last_suspend_state                                .build/obj_converter_cumulus_ta15_vial/protocol/chibios/usb_main.o (symbol from plugin)
layer_and                                         .build/obj_converter_cumulus_ta15_vial/quantum/action_layer.o (symbol from plugin)
                                                  .build/obj_converter_cumulus_ta15_vial/quantum/action.o (symbol from plugin)
layer_clear                                       .build/obj_converter_cumulus_ta15_vial/quantum/action_layer.o (symbol from plugin)
                                                  .build/obj_converter_cumulus_ta15_vial/quantum/process_keycode/process_dynamic_macro.o (symbol from plugin)
                                                  .build/obj_converter_cumulus_ta15_vial/quantum/action.o (symbol from plugin)
layer_debug                                       .build/obj_converter_cumulus_ta15_vial/quantum/action_layer.o (symbol from plugin)
                                                  .build/obj_converter_cumulus_ta15_vial/quantum/action.o (symbol from plugin)
layer_invert                                      .build/obj_converter_cumulus_ta15_vial/quantum/action_layer.o (symbol from plugin)
                                                  .build/obj_converter_cumulus_ta15_vial/quantum/action.o (symbol from plugin)
layer_move                                        .build/obj_converter_cumulus_ta15_vial/quantum/action_layer.o (symbol from plugin)
                                                  .build/obj_converter_cumulus_ta15_vial/quantum/process_keycode/process_tap_dance.o (symbol from plugin)
                                                  .build/obj_converter_cumulus_ta15_vial/quantum/action.o (symbol from plugin)
layer_off                                         .build/obj_converter_cumulus_ta15_vial/quantum/action_layer.o (symbol from plugin)
                                                  .build/obj_converter_cumulus_ta15_vial/quantum/via.o (symbol from plugin)
                                                  .build/obj_converter_cumulus_ta15_vial/quantum/action_util.o (symbol from plugin)
                                                  .build/obj_converter_cumulus_ta15_vial/quantum/action.o (symbol from plugin)
layer_on                                          .build/obj_converter_cumulus_ta15_vial/quantum/action_layer.o (symbol from plugin)
                                                  .build/obj_converter_cumulus_ta15_vial/quantum/via.o (symbol from plugin)
                                                  .build/obj_converter_cumulus_ta15_vial/quantum/action_util.o (symbol from plugin)
                                                  .build/obj_converter_cumulus_ta15_vial/quantum/action.o (symbol from plugin)
layer_or                                          .build/obj_converter_cumulus_ta15_vial/quantum/action_layer.o (symbol from plugin)
                                                  .build/obj_converter_cumulus_ta15_vial/quantum/action.o (symbol from plugin)
layer_state                                       .build/obj_converter_cumulus_ta15_vial/quantum/action_layer.o (symbol from plugin)
                                                  .build/obj_converter_cumulus_ta15_vial/quantum/process_keycode/process_dynamic_macro.o (symbol from plugin)
                                                  .build/obj_converter_cumulus_ta15_vial/quantum/bootmagic/magic.o (symbol from plugin)
                                                  .build/obj_converter_cumulus_ta15_vial/quantum/quantum.o (symbol from plugin)
layer_state_cmp                                   .build/obj_converter_cumulus_ta15_vial/quantum/action_layer.o (symbol from plugin)
layer_state_is                                    .build/obj_converter_cumulus_ta15_vial/quantum/action_layer.o (symbol from plugin)
layer_state_set                                   .build/obj_converter_cumulus_ta15_vial/quantum/action_layer.o (symbol from plugin)
                                                  .build/obj_converter_cumulus_ta15_vial/quantum/process_keycode/process_dynamic_macro.o (symbol from plugin)
                                                  .build/obj_converter_cumulus_ta15_vial/quantum/action.o (symbol from plugin)
                                                  .build/obj_converter_cumulus_ta15_vial/quantum/quantum.o (symbol from plugin)
layer_state_set_kb                                .build/obj_converter_cumulus_ta15_vial/quantum/action_layer.o (symbol from plugin)
                                                  .build/obj_converter_cumulus_ta15_vial/quantum/bootmagic/magic.o (symbol from plugin)
layer_state_set_user                              .build/obj_converter_cumulus_ta15_vial/quantum/action_layer.o (symbol from plugin)
layer_switch_get_action                           .build/obj_converter_cumulus_ta15_vial/quantum/action_layer.o (symbol from plugin)
                                                  .build/obj_converter_cumulus_ta15_vial/quantum/action_tapping.o (symbol from plugin)
                                                  .build/obj_converter_cumulus_ta15_vial/quantum/action.o (symbol from plugin)
layer_switch_get_layer                            /var/folders/x9/cy1bx1f960zd_7xhdrxmk_zm0000gn/T//cc8Nwo3z.ltrans0.ltrans.o
                                                  .build/obj_converter_cumulus_ta15_vial/quantum/action_layer.o (symbol from plugin)
                                                  /var/folders/x9/cy1bx1f960zd_7xhdrxmk_zm0000gn/T//cc8Nwo3z.ltrans1.ltrans.o
                                                  .build/obj_converter_cumulus_ta15_vial/quantum/quantum.o (symbol from plugin)
layer_xor                                         .build/obj_converter_cumulus_ta15_vial/quantum/action_layer.o (symbol from plugin)
                                                  .build/obj_converter_cumulus_ta15_vial/quantum/action.o (symbol from plugin)
led.c.526da298                                    /var/folders/x9/cy1bx1f960zd_7xhdrxmk_zm0000gn/T//ccbHuJM1debugobj
                                                  /var/folders/x9/cy1bx1f960zd_7xhdrxmk_zm0000gn/T//cc8Nwo3z.ltrans0.ltrans.o
led_init_ports                                    .build/obj_converter_cumulus_ta15_vial/quantum/led.o (symbol from plugin)
                                                  .build/obj_converter_cumulus_ta15_vial/quantum/keyboard.o (symbol from plugin)
led_set                                           .build/obj_converter_cumulus_ta15_vial/quantum/led.o (symbol from plugin)
                                                  .build/obj_converter_cumulus_ta15_vial/quantum/action.o (symbol from plugin)
led_set_kb                                        .build/obj_converter_cumulus_ta15_vial/quantum/led.o (symbol from plugin)
led_set_user                                      .build/obj_converter_cumulus_ta15_vial/quantum/led.o (symbol from plugin)
led_suspend                                       .build/obj_converter_cumulus_ta15_vial/quantum/led.o (symbol from plugin)
                                                  .build/obj_converter_cumulus_ta15_vial/quantum/quantum.o (symbol from plugin)
led_task                                          .build/obj_converter_cumulus_ta15_vial/quantum/led.o (symbol from plugin)
                                                  .build/obj_converter_cumulus_ta15_vial/quantum/keyboard.o (symbol from plugin)
led_update_kb                                     .build/obj_converter_cumulus_ta15_vial/quantum/led.o (symbol from plugin)
led_update_user                                   .build/obj_converter_cumulus_ta15_vial/quantum/led.o (symbol from plugin)
led_wakeup                                        .build/obj_converter_cumulus_ta15_vial/quantum/led.o (symbol from plugin)
                                                  .build/obj_converter_cumulus_ta15_vial/quantum/quantum.o (symbol from plugin)
longest_term.lto_priv.138                         /var/folders/x9/cy1bx1f960zd_7xhdrxmk_zm0000gn/T//cc8Nwo3z.ltrans0.ltrans.o
                                                  /var/folders/x9/cy1bx1f960zd_7xhdrxmk_zm0000gn/T//cc8Nwo3z.ltrans1.ltrans.o
magic                                             .build/obj_converter_cumulus_ta15_vial/quantum/bootmagic/magic.o (symbol from plugin)
                                                  .build/obj_converter_cumulus_ta15_vial/quantum/keyboard.o (symbol from plugin)
magic.c.f7ec6814                                  /var/folders/x9/cy1bx1f960zd_7xhdrxmk_zm0000gn/T//ccbHuJM1debugobj
                                                  /var/folders/x9/cy1bx1f960zd_7xhdrxmk_zm0000gn/T//cc8Nwo3z.ltrans1.ltrans.o
                                                  /var/folders/x9/cy1bx1f960zd_7xhdrxmk_zm0000gn/T//cc8Nwo3z.ltrans0.ltrans.o
magic_token                                       .build/obj_converter_cumulus_ta15_vial/platforms/chibios/bootloaders/rp2040.o (symbol from plugin)
main                                              /var/folders/x9/cy1bx1f960zd_7xhdrxmk_zm0000gn/T//cc8Nwo3z.ltrans0.ltrans.o
                                                  .build/obj_converter_cumulus_ta15_vial/quantum/main.o (symbol from plugin)
                                                  .build/obj_converter_cumulus_ta15_vial/./lib/chibios/os/common/startup/ARMCMx/compilers/GCC/crt0_v6m.o
main.c.bb3bc6b8                                   /var/folders/x9/cy1bx1f960zd_7xhdrxmk_zm0000gn/T//ccbHuJM1debugobj
                                                  /var/folders/x9/cy1bx1f960zd_7xhdrxmk_zm0000gn/T//cc8Nwo3z.ltrans0.ltrans.o
malloc                                            /usr/local/Cellar/arm-none-eabi-gcc@8/8.5.0_2/lib/arm-none-eabi-gcc/8/gcc/arm-none-eabi/8.5.0/../../../../../../arm-none-eabi/lib/thumb/v6-m/nofp/libg_nano.a(lib_a-malloc.o)
                                                  /usr/local/Cellar/arm-none-eabi-gcc@8/8.5.0_2/lib/arm-none-eabi-gcc/8/gcc/arm-none-eabi/8.5.0/../../../../../../arm-none-eabi/lib/thumb/v6-m/nofp/libg_nano.a(lib_a-rand.o)
matrix                                            .build/obj_converter_cumulus_ta15_vial/quantum/matrix_common.o (symbol from plugin)
                                                  .build/obj_converter_cumulus_ta15_vial/quantum/matrix.o (symbol from plugin)
matrix.c.f6bd54bb                                 /var/folders/x9/cy1bx1f960zd_7xhdrxmk_zm0000gn/T//ccbHuJM1debugobj
                                                  /var/folders/x9/cy1bx1f960zd_7xhdrxmk_zm0000gn/T//cc8Nwo3z.ltrans1.ltrans.o
                                                  /var/folders/x9/cy1bx1f960zd_7xhdrxmk_zm0000gn/T//cc8Nwo3z.ltrans0.ltrans.o
matrix_cols                                       .build/obj_converter_cumulus_ta15_vial/quantum/matrix_common.o (symbol from plugin)
matrix_common.c.cad6f8d0                          /var/folders/x9/cy1bx1f960zd_7xhdrxmk_zm0000gn/T//ccbHuJM1debugobj
                                                  /var/folders/x9/cy1bx1f960zd_7xhdrxmk_zm0000gn/T//cc8Nwo3z.ltrans0.ltrans.o
matrix_get_row                                    .build/obj_converter_cumulus_ta15_vial/quantum/matrix_common.o (symbol from plugin)
                                                  .build/obj_converter_cumulus_ta15_vial/platforms/suspend.o (symbol from plugin)
                                                  .build/obj_converter_cumulus_ta15_vial/quantum/via.o (symbol from plugin)
                                                  .build/obj_converter_cumulus_ta15_vial/quantum/bootmagic/bootmagic_lite.o (symbol from plugin)
                                                  .build/obj_converter_cumulus_ta15_vial/quantum/keyboard.o (symbol from plugin)
matrix_init                                       .build/obj_converter_cumulus_ta15_vial/quantum/matrix.o (symbol from plugin)
                                                  .build/obj_converter_cumulus_ta15_vial/quantum/matrix_common.o (symbol from plugin)
                                                  .build/obj_converter_cumulus_ta15_vial/quantum/keyboard.o (symbol from plugin)
matrix_init_custom                                .build/obj_converter_cumulus_ta15_vial/quantum/matrix_common.o (symbol from plugin)
matrix_init_kb                                    .build/obj_converter_cumulus_ta15_vial/quantum/matrix_common.o (symbol from plugin)
                                                  .build/obj_converter_cumulus_ta15_vial/quantum/quantum.o (symbol from plugin)
matrix_init_pins                                  .build/obj_converter_cumulus_ta15_vial/quantum/matrix.o (symbol from plugin)
matrix_init_quantum                               .build/obj_converter_cumulus_ta15_vial/quantum/quantum.o (symbol from plugin)
                                                  .build/obj_converter_cumulus_ta15_vial/quantum/matrix.o (symbol from plugin)
                                                  .build/obj_converter_cumulus_ta15_vial/quantum/matrix_common.o (symbol from plugin)
matrix_init_user                                  .build/obj_converter_cumulus_ta15_vial/quantum/matrix_common.o (symbol from plugin)
matrix_io_delay                                   .build/obj_converter_cumulus_ta15_vial/quantum/matrix_common.o (symbol from plugin)
matrix_is_on                                      .build/obj_converter_cumulus_ta15_vial/quantum/matrix_common.o (symbol from plugin)
matrix_output_select_delay                        .build/obj_converter_cumulus_ta15_vial/quantum/matrix_common.o (symbol from plugin)
                                                  .build/obj_converter_cumulus_ta15_vial/quantum/matrix.o (symbol from plugin)
matrix_output_unselect_delay                      .build/obj_converter_cumulus_ta15_vial/quantum/matrix_common.o (symbol from plugin)
                                                  .build/obj_converter_cumulus_ta15_vial/quantum/matrix.o (symbol from plugin)
matrix_power_down                                 .build/obj_converter_cumulus_ta15_vial/platforms/suspend.o (symbol from plugin)
matrix_power_up                                   .build/obj_converter_cumulus_ta15_vial/platforms/suspend.o (symbol from plugin)
matrix_print                                      .build/obj_converter_cumulus_ta15_vial/quantum/matrix_common.o (symbol from plugin)
                                                  .build/obj_converter_cumulus_ta15_vial/quantum/keyboard.o (symbol from plugin)
matrix_read_rows_on_col                           .build/obj_converter_cumulus_ta15_vial/quantum/matrix.o (symbol from plugin)
matrix_rows                                       .build/obj_converter_cumulus_ta15_vial/quantum/matrix_common.o (symbol from plugin)
matrix_scan                                       .build/obj_converter_cumulus_ta15_vial/quantum/matrix.o (symbol from plugin)
                                                  .build/obj_converter_cumulus_ta15_vial/quantum/matrix_common.o (symbol from plugin)
                                                  .build/obj_converter_cumulus_ta15_vial/platforms/suspend.o (symbol from plugin)
                                                  .build/obj_converter_cumulus_ta15_vial/quantum/bootmagic/bootmagic_lite.o (symbol from plugin)
                                                  .build/obj_converter_cumulus_ta15_vial/quantum/keyboard.o (symbol from plugin)
matrix_scan_custom                                .build/obj_converter_cumulus_ta15_vial/quantum/matrix_common.o (symbol from plugin)
matrix_scan_kb                                    .build/obj_converter_cumulus_ta15_vial/quantum/matrix_common.o (symbol from plugin)
                                                  .build/obj_converter_cumulus_ta15_vial/quantum/quantum.o (symbol from plugin)
matrix_scan_quantum                               .build/obj_converter_cumulus_ta15_vial/quantum/quantum.o (symbol from plugin)
                                                  .build/obj_converter_cumulus_ta15_vial/quantum/matrix.o (symbol from plugin)
                                                  .build/obj_converter_cumulus_ta15_vial/quantum/matrix_common.o (symbol from plugin)
matrix_scan_user                                  .build/obj_converter_cumulus_ta15_vial/quantum/matrix_common.o (symbol from plugin)
matrix_setup                                      .build/obj_converter_cumulus_ta15_vial/quantum/keyboard.o (symbol from plugin)
mcu_reset                                         .build/obj_converter_cumulus_ta15_vial/platforms/chibios/bootloaders/rp2040.o (symbol from plugin)
                                                  .build/obj_converter_cumulus_ta15_vial/quantum/quantum.o (symbol from plugin)
memchr                                            /usr/local/Cellar/arm-none-eabi-gcc@8/8.5.0_2/lib/arm-none-eabi-gcc/8/gcc/arm-none-eabi/8.5.0/../../../../../../arm-none-eabi/lib/thumb/v6-m/nofp/libg_nano.a(lib_a-memchr-stub.o)
                                                  /usr/local/Cellar/arm-none-eabi-gcc@8/8.5.0_2/lib/arm-none-eabi-gcc/8/gcc/arm-none-eabi/8.5.0/../../../../../../arm-none-eabi/lib/thumb/v6-m/nofp/libg_nano.a(lib_a-fvwrite.o)
                                                  /usr/local/Cellar/arm-none-eabi-gcc@8/8.5.0_2/lib/arm-none-eabi-gcc/8/gcc/arm-none-eabi/8.5.0/../../../../../../arm-none-eabi/lib/thumb/v6-m/nofp/libg_nano.a(lib_a-nano-vfprintf_i.o)
                                                  /usr/local/Cellar/arm-none-eabi-gcc@8/8.5.0_2/lib/arm-none-eabi-gcc/8/gcc/arm-none-eabi/8.5.0/../../../../../../arm-none-eabi/lib/thumb/v6-m/nofp/libg_nano.a(lib_a-nano-vfprintf.o)
memcmp                                            /usr/local/Cellar/arm-none-eabi-gcc@8/8.5.0_2/lib/arm-none-eabi-gcc/8/gcc/arm-none-eabi/8.5.0/../../../../../../arm-none-eabi/lib/thumb/v6-m/nofp/libg_nano.a(lib_a-memcmp.o)
                                                  /var/folders/x9/cy1bx1f960zd_7xhdrxmk_zm0000gn/T//cc8Nwo3z.ltrans0.ltrans.o
memcpy                                            /usr/local/Cellar/arm-none-eabi-gcc@8/8.5.0_2/lib/arm-none-eabi-gcc/8/gcc/arm-none-eabi/8.5.0/../../../../../../arm-none-eabi/lib/thumb/v6-m/nofp/libg_nano.a(lib_a-memcpy-stub.o)
                                                  /var/folders/x9/cy1bx1f960zd_7xhdrxmk_zm0000gn/T//cc8Nwo3z.ltrans1.ltrans.o
                                                  /var/folders/x9/cy1bx1f960zd_7xhdrxmk_zm0000gn/T//cc8Nwo3z.ltrans0.ltrans.o
                                                  /usr/local/Cellar/arm-none-eabi-gcc@8/8.5.0_2/lib/arm-none-eabi-gcc/8/gcc/arm-none-eabi/8.5.0/../../../../../../arm-none-eabi/lib/thumb/v6-m/nofp/libg_nano.a(lib_a-nano-reallocr.o)
                                                  /usr/local/Cellar/arm-none-eabi-gcc@8/8.5.0_2/lib/arm-none-eabi-gcc/8/gcc/arm-none-eabi/8.5.0/../../../../../../arm-none-eabi/lib/thumb/v6-m/nofp/libg_nano.a(lib_a-fvwrite.o)
memmove                                           /usr/local/Cellar/arm-none-eabi-gcc@8/8.5.0_2/lib/arm-none-eabi-gcc/8/gcc/arm-none-eabi/8.5.0/../../../../../../arm-none-eabi/lib/thumb/v6-m/nofp/libg_nano.a(lib_a-memmove.o)
                                                  /usr/local/Cellar/arm-none-eabi-gcc@8/8.5.0_2/lib/arm-none-eabi-gcc/8/gcc/arm-none-eabi/8.5.0/../../../../../../arm-none-eabi/lib/thumb/v6-m/nofp/libg_nano.a(lib_a-fvwrite.o)
memset                                            /usr/local/Cellar/arm-none-eabi-gcc@8/8.5.0_2/lib/arm-none-eabi-gcc/8/gcc/arm-none-eabi/8.5.0/../../../../../../arm-none-eabi/lib/thumb/v6-m/nofp/libg_nano.a(lib_a-memset.o)
                                                  /var/folders/x9/cy1bx1f960zd_7xhdrxmk_zm0000gn/T//cc8Nwo3z.ltrans1.ltrans.o
                                                  /var/folders/x9/cy1bx1f960zd_7xhdrxmk_zm0000gn/T//cc8Nwo3z.ltrans0.ltrans.o
                                                  /usr/local/Cellar/arm-none-eabi-gcc@8/8.5.0_2/lib/arm-none-eabi-gcc/8/gcc/arm-none-eabi/8.5.0/../../../../../../arm-none-eabi/lib/thumb/v6-m/nofp/libg_nano.a(lib_a-findfp.o)
memstreams.c.ed292e80                             /var/folders/x9/cy1bx1f960zd_7xhdrxmk_zm0000gn/T//ccbHuJM1debugobj
mk_delay                                          .build/obj_converter_cumulus_ta15_vial/quantum/mousekey.o (symbol from plugin)
                                                  .build/obj_converter_cumulus_ta15_vial/quantum/qmk_settings.o (symbol from plugin)
mk_interval                                       .build/obj_converter_cumulus_ta15_vial/quantum/mousekey.o (symbol from plugin)
                                                  .build/obj_converter_cumulus_ta15_vial/quantum/qmk_settings.o (symbol from plugin)
mk_max_speed                                      .build/obj_converter_cumulus_ta15_vial/quantum/mousekey.o (symbol from plugin)
                                                  .build/obj_converter_cumulus_ta15_vial/quantum/qmk_settings.o (symbol from plugin)
mk_time_to_max                                    .build/obj_converter_cumulus_ta15_vial/quantum/mousekey.o (symbol from plugin)
                                                  .build/obj_converter_cumulus_ta15_vial/quantum/qmk_settings.o (symbol from plugin)
mk_wheel_delay                                    .build/obj_converter_cumulus_ta15_vial/quantum/mousekey.o (symbol from plugin)
                                                  .build/obj_converter_cumulus_ta15_vial/quantum/qmk_settings.o (symbol from plugin)
mk_wheel_interval                                 .build/obj_converter_cumulus_ta15_vial/quantum/mousekey.o (symbol from plugin)
                                                  .build/obj_converter_cumulus_ta15_vial/quantum/qmk_settings.o (symbol from plugin)
mk_wheel_max_speed                                .build/obj_converter_cumulus_ta15_vial/quantum/mousekey.o (symbol from plugin)
                                                  .build/obj_converter_cumulus_ta15_vial/quantum/qmk_settings.o (symbol from plugin)
mk_wheel_time_to_max                              .build/obj_converter_cumulus_ta15_vial/quantum/mousekey.o (symbol from plugin)
                                                  .build/obj_converter_cumulus_ta15_vial/quantum/qmk_settings.o (symbol from plugin)
mod_config                                        .build/obj_converter_cumulus_ta15_vial/quantum/keycode_config.o (symbol from plugin)
                                                  .build/obj_converter_cumulus_ta15_vial/quantum/keymap_common.o (symbol from plugin)
mouse_report_blank                                .build/obj_converter_cumulus_ta15_vial/protocol/chibios/usb_main.o (symbol from plugin)
mousekey.c.ac61eae7                               /var/folders/x9/cy1bx1f960zd_7xhdrxmk_zm0000gn/T//ccbHuJM1debugobj
                                                  /var/folders/x9/cy1bx1f960zd_7xhdrxmk_zm0000gn/T//cc8Nwo3z.ltrans0.ltrans.o
mousekey_clear                                    .build/obj_converter_cumulus_ta15_vial/quantum/mousekey.o (symbol from plugin)
                                                  .build/obj_converter_cumulus_ta15_vial/platforms/chibios/suspend.o (symbol from plugin)
                                                  .build/obj_converter_cumulus_ta15_vial/quantum/action.o (symbol from plugin)
mousekey_get_report                               .build/obj_converter_cumulus_ta15_vial/quantum/mousekey.o (symbol from plugin)
mousekey_off                                      .build/obj_converter_cumulus_ta15_vial/quantum/mousekey.o (symbol from plugin)
                                                  .build/obj_converter_cumulus_ta15_vial/quantum/action.o (symbol from plugin)
mousekey_on                                       .build/obj_converter_cumulus_ta15_vial/quantum/mousekey.o (symbol from plugin)
                                                  .build/obj_converter_cumulus_ta15_vial/quantum/action.o (symbol from plugin)
mousekey_send                                     .build/obj_converter_cumulus_ta15_vial/quantum/mousekey.o (symbol from plugin)
                                                  .build/obj_converter_cumulus_ta15_vial/protocol/chibios/chibios.o (symbol from plugin)
                                                  .build/obj_converter_cumulus_ta15_vial/quantum/action.o (symbol from plugin)
mousekey_task                                     .build/obj_converter_cumulus_ta15_vial/quantum/mousekey.o (symbol from plugin)
                                                  .build/obj_converter_cumulus_ta15_vial/quantum/keyboard.o (symbol from plugin)
msObjectInit                                      .build/obj_converter_cumulus_ta15/lib/chibios/os/hal/lib/streams/memstreams.o (symbol from plugin)
                                                  .build/obj_converter_cumulus_ta15/lib/chibios/os/hal/lib/streams/chscanf.o (symbol from plugin)
                                                  .build/obj_converter_cumulus_ta15/lib/chibios/os/hal/lib/streams/chprintf.o (symbol from plugin)
notify_usb_device_state_change_kb                 .build/obj_converter_cumulus_ta15_vial/protocol/usb_device_state.o (symbol from plugin)
notify_usb_device_state_change_user               .build/obj_converter_cumulus_ta15_vial/protocol/usb_device_state.o (symbol from plugin)
nullObjectInit                                    .build/obj_converter_cumulus_ta15/lib/chibios/os/hal/lib/streams/nullstreams.o (symbol from plugin)
nullstreams.c.84e16131                            /var/folders/x9/cy1bx1f960zd_7xhdrxmk_zm0000gn/T//ccbHuJM1debugobj
nvic.c.d6b825ee                                   /var/folders/x9/cy1bx1f960zd_7xhdrxmk_zm0000gn/T//ccbHuJM1debugobj
                                                  /var/folders/x9/cy1bx1f960zd_7xhdrxmk_zm0000gn/T//cc8Nwo3z.ltrans0.ltrans.o
nvicClearPending                                  .build/obj_converter_cumulus_ta15/lib/chibios/os/hal/ports/common/ARMCMx/nvic.o (symbol from plugin)
nvicDisableVector                                 .build/obj_converter_cumulus_ta15/lib/chibios/os/hal/ports/common/ARMCMx/nvic.o (symbol from plugin)
nvicEnableVector                                  .build/obj_converter_cumulus_ta15/lib/chibios/os/hal/ports/common/ARMCMx/nvic.o (symbol from plugin)
                                                  .build/obj_converter_cumulus_ta15/lib/chibios-contrib/os/hal/ports/RP/LLD/USBDv1/hal_usb_lld.o (symbol from plugin)
nvicInit                                          .build/obj_converter_cumulus_ta15/lib/chibios/os/hal/ports/common/ARMCMx/nvic.o (symbol from plugin)
nvicSetPending                                    .build/obj_converter_cumulus_ta15/lib/chibios/os/hal/ports/common/ARMCMx/nvic.o (symbol from plugin)
nvicSetSystemHandlerPriority                      .build/obj_converter_cumulus_ta15/lib/chibios/os/hal/ports/common/ARMCMx/nvic.o (symbol from plugin)
                                                  .build/obj_converter_cumulus_ta15/lib/chibios/os/hal/ports/RP/LLD/TIMERv1/hal_st_lld.o (symbol from plugin)
obqFlush                                          .build/obj_converter_cumulus_ta15/lib/chibios/os/hal/src/hal_buffers.o (symbol from plugin)
obqGetEmptyBufferTimeout                          .build/obj_converter_cumulus_ta15/lib/chibios/os/hal/src/hal_buffers.o (symbol from plugin)
obqGetEmptyBufferTimeoutS                         .build/obj_converter_cumulus_ta15/lib/chibios/os/hal/src/hal_buffers.o (symbol from plugin)
obqGetFullBufferI                                 .build/obj_converter_cumulus_ta15/lib/chibios/os/hal/src/hal_buffers.o (symbol from plugin)
                                                  .build/obj_converter_cumulus_ta15_vial/protocol/chibios/usb_driver.o (symbol from plugin)
obqObjectInit                                     .build/obj_converter_cumulus_ta15/lib/chibios/os/hal/src/hal_buffers.o (symbol from plugin)
                                                  .build/obj_converter_cumulus_ta15_vial/protocol/chibios/usb_driver.o (symbol from plugin)
obqPostFullBuffer                                 .build/obj_converter_cumulus_ta15/lib/chibios/os/hal/src/hal_buffers.o (symbol from plugin)
obqPostFullBufferS                                .build/obj_converter_cumulus_ta15/lib/chibios/os/hal/src/hal_buffers.o (symbol from plugin)
obqPutTimeout                                     .build/obj_converter_cumulus_ta15/lib/chibios/os/hal/src/hal_buffers.o (symbol from plugin)
                                                  .build/obj_converter_cumulus_ta15_vial/protocol/chibios/usb_driver.o (symbol from plugin)
obqReleaseEmptyBufferI                            .build/obj_converter_cumulus_ta15/lib/chibios/os/hal/src/hal_buffers.o (symbol from plugin)
                                                  .build/obj_converter_cumulus_ta15_vial/protocol/chibios/usb_driver.o (symbol from plugin)
obqResetI                                         .build/obj_converter_cumulus_ta15/lib/chibios/os/hal/src/hal_buffers.o (symbol from plugin)
                                                  .build/obj_converter_cumulus_ta15_vial/protocol/chibios/usb_driver.o (symbol from plugin)
obqTryFlushI                                      .build/obj_converter_cumulus_ta15/lib/chibios/os/hal/src/hal_buffers.o (symbol from plugin)
                                                  .build/obj_converter_cumulus_ta15_vial/protocol/chibios/usb_driver.o (symbol from plugin)
obqWriteTimeout                                   .build/obj_converter_cumulus_ta15/lib/chibios/os/hal/src/hal_buffers.o (symbol from plugin)
                                                  .build/obj_converter_cumulus_ta15_vial/protocol/chibios/usb_driver.o (symbol from plugin)
oneshot_disable                                   .build/obj_converter_cumulus_ta15_vial/quantum/action_util.o (symbol from plugin)
                                                  .build/obj_converter_cumulus_ta15_vial/quantum/quantum.o (symbol from plugin)
oneshot_enable                                    .build/obj_converter_cumulus_ta15_vial/quantum/action_util.o (symbol from plugin)
                                                  .build/obj_converter_cumulus_ta15_vial/quantum/quantum.o (symbol from plugin)
oneshot_layer_changed_kb                          .build/obj_converter_cumulus_ta15_vial/quantum/action_util.o (symbol from plugin)
oneshot_layer_changed_user                        .build/obj_converter_cumulus_ta15_vial/quantum/action_util.o (symbol from plugin)
oneshot_layer_data.lto_priv.141                   /var/folders/x9/cy1bx1f960zd_7xhdrxmk_zm0000gn/T//cc8Nwo3z.ltrans0.ltrans.o
                                                  /var/folders/x9/cy1bx1f960zd_7xhdrxmk_zm0000gn/T//cc8Nwo3z.ltrans1.ltrans.o
oneshot_layer_time.lto_priv.140                   /var/folders/x9/cy1bx1f960zd_7xhdrxmk_zm0000gn/T//cc8Nwo3z.ltrans0.ltrans.o
                                                  /var/folders/x9/cy1bx1f960zd_7xhdrxmk_zm0000gn/T//cc8Nwo3z.ltrans1.ltrans.o
oneshot_locked_mods_changed_kb                    .build/obj_converter_cumulus_ta15_vial/quantum/action_util.o (symbol from plugin)
oneshot_locked_mods_changed_user                  .build/obj_converter_cumulus_ta15_vial/quantum/action_util.o (symbol from plugin)
oneshot_mods_changed_kb                           .build/obj_converter_cumulus_ta15_vial/quantum/action_util.o (symbol from plugin)
oneshot_mods_changed_user                         .build/obj_converter_cumulus_ta15_vial/quantum/action_util.o (symbol from plugin)
oneshot_set                                       .build/obj_converter_cumulus_ta15_vial/quantum/action_util.o (symbol from plugin)
oneshot_toggle                                    .build/obj_converter_cumulus_ta15_vial/quantum/action_util.o (symbol from plugin)
                                                  .build/obj_converter_cumulus_ta15_vial/quantum/quantum.o (symbol from plugin)
oqGetI                                            .build/obj_converter_cumulus_ta15/lib/chibios/os/hal/src/hal_queues.o (symbol from plugin)
oqObjectInit                                      .build/obj_converter_cumulus_ta15/lib/chibios/os/hal/src/hal_queues.o (symbol from plugin)
oqPutI                                            .build/obj_converter_cumulus_ta15/lib/chibios/os/hal/src/hal_queues.o (symbol from plugin)
oqPutTimeout                                      .build/obj_converter_cumulus_ta15/lib/chibios/os/hal/src/hal_queues.o (symbol from plugin)
oqResetI                                          .build/obj_converter_cumulus_ta15/lib/chibios/os/hal/src/hal_queues.o (symbol from plugin)
oqWriteI                                          .build/obj_converter_cumulus_ta15/lib/chibios/os/hal/src/hal_queues.o (symbol from plugin)
oqWriteTimeout                                    .build/obj_converter_cumulus_ta15/lib/chibios/os/hal/src/hal_queues.o (symbol from plugin)
osal.c.4a707d63                                   /var/folders/x9/cy1bx1f960zd_7xhdrxmk_zm0000gn/T//ccbHuJM1debugobj
overlaps                                          .build/obj_converter_cumulus_ta15_vial/quantum/process_keycode/process_combo.o (symbol from plugin)
palReadBus                                        .build/obj_converter_cumulus_ta15/lib/chibios/os/hal/src/hal_pal.o (symbol from plugin)
palSetBusMode                                     .build/obj_converter_cumulus_ta15/lib/chibios/os/hal/src/hal_pal.o (symbol from plugin)
palWriteBus                                       .build/obj_converter_cumulus_ta15/lib/chibios/os/hal/src/hal_pal.o (symbol from plugin)
panic                                             .build/obj_converter_cumulus_ta15/platforms/chibios/vendors/RP/pico_sdk_shims.o (symbol from plugin)
                                                  .build/obj_converter_cumulus_ta15/./lib/pico-sdk/src/rp2_common/hardware_claim/claim.o (symbol from plugin)
                                                  .build/obj_converter_cumulus_ta15/./lib/pico-sdk/src/rp2_common/hardware_pio/pio.o (symbol from plugin)
peek_matrix                                       .build/obj_converter_cumulus_ta15_vial/quantum/matrix_common.o (symbol from plugin)
perform_space_cadet                               .build/obj_converter_cumulus_ta15_vial/quantum/process_keycode/process_space_cadet.o (symbol from plugin)
persist_unicode_input_mode                        .build/obj_converter_cumulus_ta15_vial/quantum/process_keycode/process_unicode_common.o (symbol from plugin)
pico_sdk_shims.c.82543663                         /var/folders/x9/cy1bx1f960zd_7xhdrxmk_zm0000gn/T//ccbHuJM1debugobj
                                                  /var/folders/x9/cy1bx1f960zd_7xhdrxmk_zm0000gn/T//cc8Nwo3z.ltrans0.ltrans.o
pio.c.f513228c                                    /var/folders/x9/cy1bx1f960zd_7xhdrxmk_zm0000gn/T//ccbHuJM1debugobj
                                                  /var/folders/x9/cy1bx1f960zd_7xhdrxmk_zm0000gn/T//cc8Nwo3z.ltrans0.ltrans.o
pio_add_program                                   .build/obj_converter_cumulus_ta15/./lib/pico-sdk/src/rp2_common/hardware_pio/pio.o (symbol from plugin)
pio_add_program_at_offset                         .build/obj_converter_cumulus_ta15/./lib/pico-sdk/src/rp2_common/hardware_pio/pio.o (symbol from plugin)
pio_can_add_program                               .build/obj_converter_cumulus_ta15/./lib/pico-sdk/src/rp2_common/hardware_pio/pio.o (symbol from plugin)
pio_can_add_program_at_offset                     .build/obj_converter_cumulus_ta15/./lib/pico-sdk/src/rp2_common/hardware_pio/pio.o (symbol from plugin)
pio_claim_sm_mask                                 .build/obj_converter_cumulus_ta15/./lib/pico-sdk/src/rp2_common/hardware_pio/pio.o (symbol from plugin)
pio_claim_unused_sm                               .build/obj_converter_cumulus_ta15/./lib/pico-sdk/src/rp2_common/hardware_pio/pio.o (symbol from plugin)
pio_clear_instruction_memory                      .build/obj_converter_cumulus_ta15/./lib/pico-sdk/src/rp2_common/hardware_pio/pio.o (symbol from plugin)
pio_remove_program                                .build/obj_converter_cumulus_ta15/./lib/pico-sdk/src/rp2_common/hardware_pio/pio.o (symbol from plugin)
pio_sm_claim                                      .build/obj_converter_cumulus_ta15/./lib/pico-sdk/src/rp2_common/hardware_pio/pio.o (symbol from plugin)
pio_sm_drain_tx_fifo                              .build/obj_converter_cumulus_ta15/./lib/pico-sdk/src/rp2_common/hardware_pio/pio.o (symbol from plugin)
pio_sm_init                                       .build/obj_converter_cumulus_ta15/./lib/pico-sdk/src/rp2_common/hardware_pio/pio.o (symbol from plugin)
pio_sm_is_claimed                                 .build/obj_converter_cumulus_ta15/./lib/pico-sdk/src/rp2_common/hardware_pio/pio.o (symbol from plugin)
pio_sm_set_consecutive_pindirs                    .build/obj_converter_cumulus_ta15/./lib/pico-sdk/src/rp2_common/hardware_pio/pio.o (symbol from plugin)
pio_sm_set_pindirs_with_mask                      .build/obj_converter_cumulus_ta15/./lib/pico-sdk/src/rp2_common/hardware_pio/pio.o (symbol from plugin)
pio_sm_set_pins                                   .build/obj_converter_cumulus_ta15/./lib/pico-sdk/src/rp2_common/hardware_pio/pio.o (symbol from plugin)
pio_sm_set_pins_with_mask                         .build/obj_converter_cumulus_ta15/./lib/pico-sdk/src/rp2_common/hardware_pio/pio.o (symbol from plugin)
pio_sm_unclaim                                    .build/obj_converter_cumulus_ta15/./lib/pico-sdk/src/rp2_common/hardware_pio/pio.o (symbol from plugin)
platform.c.f6945328                               /var/folders/x9/cy1bx1f960zd_7xhdrxmk_zm0000gn/T//ccbHuJM1debugobj
                                                  /var/folders/x9/cy1bx1f960zd_7xhdrxmk_zm0000gn/T//cc8Nwo3z.ltrans0.ltrans.o
platform_setup                                    .build/obj_converter_cumulus_ta15_vial/platforms/chibios/platform.o (symbol from plugin)
                                                  .build/obj_converter_cumulus_ta15_vial/quantum/main.o (symbol from plugin)
pll.c.e59fca51                                    /var/folders/x9/cy1bx1f960zd_7xhdrxmk_zm0000gn/T//ccbHuJM1debugobj
                                                  /var/folders/x9/cy1bx1f960zd_7xhdrxmk_zm0000gn/T//cc8Nwo3z.ltrans0.ltrans.o
pll_deinit                                        .build/obj_converter_cumulus_ta15/./lib/pico-sdk/src/rp2_common/hardware_pll/pll.o (symbol from plugin)
pll_init                                          .build/obj_converter_cumulus_ta15/./lib/pico-sdk/src/rp2_common/hardware_pll/pll.o (symbol from plugin)
                                                  .build/obj_converter_cumulus_ta15/./lib/pico-sdk/src/rp2_common/hardware_clocks/clocks.o (symbol from plugin)
port_init                                         .build/obj_converter_cumulus_ta15/lib/chibios/os/common/ports/ARMv6-M-RP2/chcore.o (symbol from plugin)
                                                  .build/obj_converter_cumulus_ta15/lib/chibios/os/rt/src/chinstances.o (symbol from plugin)
port_local_halt                                   .build/obj_converter_cumulus_ta15/lib/chibios/os/common/ports/ARMv6-M-RP2/chcore.o (symbol from plugin)
post_process_record_kb                            .build/obj_converter_cumulus_ta15_vial/quantum/quantum.o (symbol from plugin)
post_process_record_quantum                       .build/obj_converter_cumulus_ta15_vial/quantum/quantum.o (symbol from plugin)
post_process_record_user                          .build/obj_converter_cumulus_ta15_vial/quantum/quantum.o (symbol from plugin)
pre_process_record_quantum                        .build/obj_converter_cumulus_ta15_vial/quantum/quantum.o (symbol from plugin)
preprocess_tap_dance                              .build/obj_converter_cumulus_ta15_vial/quantum/process_keycode/process_tap_dance.o (symbol from plugin)
                                                  .build/obj_converter_cumulus_ta15_vial/quantum/quantum.o (symbol from plugin)
print.c.801493d3                                  /var/folders/x9/cy1bx1f960zd_7xhdrxmk_zm0000gn/T//ccbHuJM1debugobj
                                                  /var/folders/x9/cy1bx1f960zd_7xhdrxmk_zm0000gn/T//cc8Nwo3z.ltrans0.ltrans.o
print_set_sendchar                                .build/obj_converter_cumulus_ta15_vial/quantum/logging/print.o (symbol from plugin)
                                                  .build/obj_converter_cumulus_ta15_vial/quantum/keyboard.o (symbol from plugin)
printf                                            .build/obj_converter_cumulus_ta15_vial/printf.o (symbol from plugin)
                                                  .build/obj_converter_cumulus_ta15_vial/protocol/chibios/chibios.o (symbol from plugin)
                                                  .build/obj_converter_cumulus_ta15_vial/quantum/mousekey.o (symbol from plugin)
                                                  .build/obj_converter_cumulus_ta15_vial/quantum/matrix_common.o (symbol from plugin)
                                                  .build/obj_converter_cumulus_ta15_vial/quantum/keymap_introspection.o (symbol from plugin)
printf.c.35dc1981                                 /var/folders/x9/cy1bx1f960zd_7xhdrxmk_zm0000gn/T//ccbHuJM1debugobj
                                                  /var/folders/x9/cy1bx1f960zd_7xhdrxmk_zm0000gn/T//cc8Nwo3z.ltrans0.ltrans.o
process_action                                    .build/obj_converter_cumulus_ta15_vial/quantum/action.o (symbol from plugin)
process_action_kb                                 .build/obj_converter_cumulus_ta15_vial/quantum/quantum.o (symbol from plugin)
process_auto_shift                                .build/obj_converter_cumulus_ta15_vial/quantum/process_keycode/process_auto_shift.o (symbol from plugin)
                                                  .build/obj_converter_cumulus_ta15_vial/quantum/quantum.o (symbol from plugin)
process_auto_shift.c.1820be67                     /var/folders/x9/cy1bx1f960zd_7xhdrxmk_zm0000gn/T//ccbHuJM1debugobj
                                                  /var/folders/x9/cy1bx1f960zd_7xhdrxmk_zm0000gn/T//cc8Nwo3z.ltrans0.ltrans.o
process_combo                                     .build/obj_converter_cumulus_ta15_vial/quantum/process_keycode/process_combo.o (symbol from plugin)
                                                  .build/obj_converter_cumulus_ta15_vial/quantum/quantum.o (symbol from plugin)
process_combo.c.6890f198                          /var/folders/x9/cy1bx1f960zd_7xhdrxmk_zm0000gn/T//ccbHuJM1debugobj
                                                  /var/folders/x9/cy1bx1f960zd_7xhdrxmk_zm0000gn/T//cc8Nwo3z.ltrans1.ltrans.o
                                                  /var/folders/x9/cy1bx1f960zd_7xhdrxmk_zm0000gn/T//cc8Nwo3z.ltrans0.ltrans.o
process_combo_event                               .build/obj_converter_cumulus_ta15_vial/quantum/process_keycode/process_combo.o (symbol from plugin)
process_dynamic_macro                             .build/obj_converter_cumulus_ta15_vial/quantum/process_keycode/process_dynamic_macro.o (symbol from plugin)
                                                  .build/obj_converter_cumulus_ta15_vial/quantum/quantum.o (symbol from plugin)
process_dynamic_macro.c.97f4c2e9                  /var/folders/x9/cy1bx1f960zd_7xhdrxmk_zm0000gn/T//ccbHuJM1debugobj
                                                  /var/folders/x9/cy1bx1f960zd_7xhdrxmk_zm0000gn/T//cc8Nwo3z.ltrans0.ltrans.o
process_grave_esc                                 .build/obj_converter_cumulus_ta15_vial/quantum/process_keycode/process_grave_esc.o (symbol from plugin)
                                                  .build/obj_converter_cumulus_ta15_vial/quantum/quantum.o (symbol from plugin)
process_grave_esc.c.4d56b3d4                      /var/folders/x9/cy1bx1f960zd_7xhdrxmk_zm0000gn/T//ccbHuJM1debugobj
                                                  /var/folders/x9/cy1bx1f960zd_7xhdrxmk_zm0000gn/T//cc8Nwo3z.ltrans0.ltrans.o
process_key_override                              .build/obj_converter_cumulus_ta15_vial/quantum/process_keycode/process_key_override.o (symbol from plugin)
                                                  .build/obj_converter_cumulus_ta15_vial/quantum/quantum.o (symbol from plugin)
process_key_override.c.0fa24d56                   /var/folders/x9/cy1bx1f960zd_7xhdrxmk_zm0000gn/T//ccbHuJM1debugobj
                                                  /var/folders/x9/cy1bx1f960zd_7xhdrxmk_zm0000gn/T//cc8Nwo3z.ltrans0.ltrans.o
process_magic                                     .build/obj_converter_cumulus_ta15_vial/quantum/process_keycode/process_magic.o (symbol from plugin)
                                                  .build/obj_converter_cumulus_ta15_vial/quantum/quantum.o (symbol from plugin)
process_magic.c.eb32f2d9                          /var/folders/x9/cy1bx1f960zd_7xhdrxmk_zm0000gn/T//ccbHuJM1debugobj
                                                  /var/folders/x9/cy1bx1f960zd_7xhdrxmk_zm0000gn/T//cc8Nwo3z.ltrans0.ltrans.o
process_record                                    .build/obj_converter_cumulus_ta15_vial/quantum/action.o (symbol from plugin)
                                                  .build/obj_converter_cumulus_ta15_vial/quantum/process_keycode/process_dynamic_macro.o (symbol from plugin)
                                                  .build/obj_converter_cumulus_ta15_vial/quantum/action_tapping.o (symbol from plugin)
process_record_handler                            .build/obj_converter_cumulus_ta15_vial/quantum/action.o (symbol from plugin)
process_record_kb                                 .build/obj_converter_cumulus_ta15_vial/quantum/quantum.o (symbol from plugin)
process_record_nocache                            .build/obj_converter_cumulus_ta15_vial/quantum/action.o (symbol from plugin)
process_record_quantum                            .build/obj_converter_cumulus_ta15_vial/quantum/quantum.o (symbol from plugin)
process_record_quantum_helper                     .build/obj_converter_cumulus_ta15_vial/quantum/quantum.o (symbol from plugin)
process_record_tap_hint                           .build/obj_converter_cumulus_ta15_vial/quantum/action.o (symbol from plugin)
                                                  .build/obj_converter_cumulus_ta15_vial/quantum/action_tapping.o (symbol from plugin)
process_record_user                               .build/obj_converter_cumulus_ta15_vial/quantum/keymap_introspection.o (symbol from plugin)
process_record_via                                .build/obj_converter_cumulus_ta15_vial/quantum/via.o (symbol from plugin)
                                                  .build/obj_converter_cumulus_ta15_vial/quantum/quantum.o (symbol from plugin)
process_record_vial                               .build/obj_converter_cumulus_ta15_vial/quantum/vial.o (symbol from plugin)
                                                  .build/obj_converter_cumulus_ta15_vial/quantum/quantum.o (symbol from plugin)
process_space_cadet                               .build/obj_converter_cumulus_ta15_vial/quantum/process_keycode/process_space_cadet.o (symbol from plugin)
                                                  .build/obj_converter_cumulus_ta15_vial/quantum/quantum.o (symbol from plugin)
process_space_cadet.c.d7a90b9c                    /var/folders/x9/cy1bx1f960zd_7xhdrxmk_zm0000gn/T//ccbHuJM1debugobj
                                                  /var/folders/x9/cy1bx1f960zd_7xhdrxmk_zm0000gn/T//cc8Nwo3z.ltrans0.ltrans.o
process_tap_dance                                 .build/obj_converter_cumulus_ta15_vial/quantum/process_keycode/process_tap_dance.o (symbol from plugin)
                                                  .build/obj_converter_cumulus_ta15_vial/quantum/quantum.o (symbol from plugin)
process_tap_dance.c.b953f68e                      /var/folders/x9/cy1bx1f960zd_7xhdrxmk_zm0000gn/T//ccbHuJM1debugobj
                                                  /var/folders/x9/cy1bx1f960zd_7xhdrxmk_zm0000gn/T//cc8Nwo3z.ltrans0.ltrans.o
process_tap_dance_action_on_dance_finished        .build/obj_converter_cumulus_ta15_vial/quantum/process_keycode/process_tap_dance.o (symbol from plugin)
                                                  .build/obj_converter_cumulus_ta15_vial/quantum/vial.o (symbol from plugin)
process_unicode                                   .build/obj_converter_cumulus_ta15_vial/quantum/process_keycode/process_unicode.o (symbol from plugin)
                                                  .build/obj_converter_cumulus_ta15_vial/quantum/process_keycode/process_unicode_common.o (symbol from plugin)
process_unicode.c.2430e17f                        /var/folders/x9/cy1bx1f960zd_7xhdrxmk_zm0000gn/T//ccbHuJM1debugobj
                                                  /var/folders/x9/cy1bx1f960zd_7xhdrxmk_zm0000gn/T//cc8Nwo3z.ltrans0.ltrans.o
process_unicode_common                            .build/obj_converter_cumulus_ta15_vial/quantum/process_keycode/process_unicode_common.o (symbol from plugin)
                                                  .build/obj_converter_cumulus_ta15_vial/quantum/quantum.o (symbol from plugin)
process_unicode_common.c.cd854e7c                 /var/folders/x9/cy1bx1f960zd_7xhdrxmk_zm0000gn/T//ccbHuJM1debugobj
                                                  /var/folders/x9/cy1bx1f960zd_7xhdrxmk_zm0000gn/T//cc8Nwo3z.ltrans0.ltrans.o
protocol_init                                     .build/obj_converter_cumulus_ta15_vial/quantum/main.o (symbol from plugin)
protocol_post_init                                .build/obj_converter_cumulus_ta15_vial/protocol/chibios/chibios.o (symbol from plugin)
                                                  .build/obj_converter_cumulus_ta15_vial/quantum/main.o (symbol from plugin)
protocol_post_task                                .build/obj_converter_cumulus_ta15_vial/protocol/chibios/chibios.o (symbol from plugin)
                                                  .build/obj_converter_cumulus_ta15_vial/quantum/main.o (symbol from plugin)
protocol_pre_init                                 .build/obj_converter_cumulus_ta15_vial/protocol/chibios/chibios.o (symbol from plugin)
                                                  .build/obj_converter_cumulus_ta15_vial/quantum/main.o (symbol from plugin)
protocol_pre_task                                 .build/obj_converter_cumulus_ta15_vial/protocol/chibios/chibios.o (symbol from plugin)
                                                  .build/obj_converter_cumulus_ta15_vial/quantum/main.o (symbol from plugin)
protocol_setup                                    .build/obj_converter_cumulus_ta15_vial/protocol/chibios/chibios.o (symbol from plugin)
                                                  .build/obj_converter_cumulus_ta15_vial/quantum/main.o (symbol from plugin)
protocol_task                                     .build/obj_converter_cumulus_ta15_vial/quantum/main.o (symbol from plugin)
putchar_                                          .build/obj_converter_cumulus_ta15_vial/quantum/logging/print.o (symbol from plugin)
                                                  .build/obj_converter_cumulus_ta15_vial/printf.o (symbol from plugin)
qk_tap_dance_dual_role_finished                   .build/obj_converter_cumulus_ta15_vial/quantum/process_keycode/process_tap_dance.o (symbol from plugin)
qk_tap_dance_dual_role_on_each_tap                .build/obj_converter_cumulus_ta15_vial/quantum/process_keycode/process_tap_dance.o (symbol from plugin)
qk_tap_dance_dual_role_reset                      .build/obj_converter_cumulus_ta15_vial/quantum/process_keycode/process_tap_dance.o (symbol from plugin)
qk_tap_dance_pair_finished                        .build/obj_converter_cumulus_ta15_vial/quantum/process_keycode/process_tap_dance.o (symbol from plugin)
qk_tap_dance_pair_on_each_tap                     .build/obj_converter_cumulus_ta15_vial/quantum/process_keycode/process_tap_dance.o (symbol from plugin)
qk_tap_dance_pair_reset                           .build/obj_converter_cumulus_ta15_vial/quantum/process_keycode/process_tap_dance.o (symbol from plugin)
qmk_fnv_type_validation.c.f89b19d9                /var/folders/x9/cy1bx1f960zd_7xhdrxmk_zm0000gn/T//ccbHuJM1debugobj
qmk_settings.c.0d2524cb                           /var/folders/x9/cy1bx1f960zd_7xhdrxmk_zm0000gn/T//ccbHuJM1debugobj
                                                  /var/folders/x9/cy1bx1f960zd_7xhdrxmk_zm0000gn/T//cc8Nwo3z.ltrans1.ltrans.o
                                                  /var/folders/x9/cy1bx1f960zd_7xhdrxmk_zm0000gn/T//cc8Nwo3z.ltrans0.ltrans.o
qmk_settings_get                                  .build/obj_converter_cumulus_ta15_vial/quantum/qmk_settings.o (symbol from plugin)
                                                  .build/obj_converter_cumulus_ta15_vial/quantum/vial.o (symbol from plugin)
qmk_settings_init                                 .build/obj_converter_cumulus_ta15_vial/quantum/qmk_settings.o (symbol from plugin)
                                                  .build/obj_converter_cumulus_ta15_vial/quantum/keyboard.o (symbol from plugin)
qmk_settings_query                                .build/obj_converter_cumulus_ta15_vial/quantum/qmk_settings.o (symbol from plugin)
                                                  .build/obj_converter_cumulus_ta15_vial/quantum/vial.o (symbol from plugin)
qmk_settings_reset                                .build/obj_converter_cumulus_ta15_vial/quantum/qmk_settings.o (symbol from plugin)
                                                  .build/obj_converter_cumulus_ta15_vial/quantum/dynamic_keymap.o (symbol from plugin)
                                                  .build/obj_converter_cumulus_ta15_vial/quantum/vial.o (symbol from plugin)
qmk_settings_set                                  .build/obj_converter_cumulus_ta15_vial/quantum/qmk_settings.o (symbol from plugin)
                                                  .build/obj_converter_cumulus_ta15_vial/quantum/vial.o (symbol from plugin)
qmkusbConfigureHookI                              .build/obj_converter_cumulus_ta15_vial/protocol/chibios/usb_driver.o (symbol from plugin)
                                                  .build/obj_converter_cumulus_ta15_vial/protocol/chibios/usb_main.o (symbol from plugin)
qmkusbDataReceived                                .build/obj_converter_cumulus_ta15_vial/protocol/chibios/usb_driver.o (symbol from plugin)
                                                  .build/obj_converter_cumulus_ta15_vial/protocol/chibios/usb_main.o (symbol from plugin)
qmkusbDataTransmitted                             .build/obj_converter_cumulus_ta15_vial/protocol/chibios/usb_driver.o (symbol from plugin)
                                                  .build/obj_converter_cumulus_ta15_vial/protocol/chibios/usb_main.o (symbol from plugin)
qmkusbInit                                        .build/obj_converter_cumulus_ta15_vial/protocol/chibios/usb_driver.o (symbol from plugin)
qmkusbInterruptTransmitted                        .build/obj_converter_cumulus_ta15_vial/protocol/chibios/usb_driver.o (symbol from plugin)
                                                  .build/obj_converter_cumulus_ta15_vial/protocol/chibios/usb_main.o (symbol from plugin)
qmkusbObjectInit                                  .build/obj_converter_cumulus_ta15_vial/protocol/chibios/usb_driver.o (symbol from plugin)
                                                  .build/obj_converter_cumulus_ta15_vial/protocol/chibios/usb_main.o (symbol from plugin)
qmkusbRequestsHook                                .build/obj_converter_cumulus_ta15_vial/protocol/chibios/usb_driver.o (symbol from plugin)
                                                  .build/obj_converter_cumulus_ta15_vial/protocol/chibios/usb_main.o (symbol from plugin)
qmkusbSOFHookI                                    .build/obj_converter_cumulus_ta15_vial/protocol/chibios/usb_driver.o (symbol from plugin)
                                                  .build/obj_converter_cumulus_ta15_vial/protocol/chibios/usb_main.o (symbol from plugin)
qmkusbStart                                       .build/obj_converter_cumulus_ta15_vial/protocol/chibios/usb_driver.o (symbol from plugin)
                                                  .build/obj_converter_cumulus_ta15_vial/protocol/chibios/usb_main.o (symbol from plugin)
qmkusbStop                                        .build/obj_converter_cumulus_ta15_vial/protocol/chibios/usb_driver.o (symbol from plugin)
qmkusbSuspendHookI                                .build/obj_converter_cumulus_ta15_vial/protocol/chibios/usb_driver.o (symbol from plugin)
                                                  .build/obj_converter_cumulus_ta15_vial/protocol/chibios/usb_main.o (symbol from plugin)
qmkusbWakeupHookI                                 .build/obj_converter_cumulus_ta15_vial/protocol/chibios/usb_driver.o (symbol from plugin)
                                                  .build/obj_converter_cumulus_ta15_vial/protocol/chibios/usb_main.o (symbol from plugin)
qs_get_tapping_term                               .build/obj_converter_cumulus_ta15_vial/quantum/qmk_settings.o (symbol from plugin)
                                                  .build/obj_converter_cumulus_ta15_vial/quantum/vial.o (symbol from plugin)
quantum.c.37e74607                                /var/folders/x9/cy1bx1f960zd_7xhdrxmk_zm0000gn/T//ccbHuJM1debugobj
                                                  /var/folders/x9/cy1bx1f960zd_7xhdrxmk_zm0000gn/T//cc8Nwo3z.ltrans1.ltrans.o
                                                  /var/folders/x9/cy1bx1f960zd_7xhdrxmk_zm0000gn/T//cc8Nwo3z.ltrans0.ltrans.o
quantum_init                                      .build/obj_converter_cumulus_ta15_vial/quantum/keyboard.o (symbol from plugin)
quantum_task                                      .build/obj_converter_cumulus_ta15_vial/quantum/keyboard.o (symbol from plugin)
raise                                             /usr/local/Cellar/arm-none-eabi-gcc@8/8.5.0_2/lib/arm-none-eabi-gcc/8/gcc/arm-none-eabi/8.5.0/../../../../../../arm-none-eabi/lib/thumb/v6-m/nofp/libg_nano.a(lib_a-signal.o)
                                                  /usr/local/Cellar/arm-none-eabi-gcc@8/8.5.0_2/lib/arm-none-eabi-gcc/8/gcc/arm-none-eabi/8.5.0/../../../../../../arm-none-eabi/lib/thumb/v6-m/nofp/libg_nano.a(lib_a-abort.o)
rand                                              /usr/local/Cellar/arm-none-eabi-gcc@8/8.5.0_2/lib/arm-none-eabi-gcc/8/gcc/arm-none-eabi/8.5.0/../../../../../../arm-none-eabi/lib/thumb/v6-m/nofp/libg_nano.a(lib_a-rand.o)
                                                  .build/obj_converter_cumulus_ta15_vial/quantum/send_string/send_string.o (symbol from plugin)
raw_hid_receive                                   .build/obj_converter_cumulus_ta15_vial/quantum/via.o (symbol from plugin)
raw_hid_receive_kb                                .build/obj_converter_cumulus_ta15_vial/quantum/via.o (symbol from plugin)
raw_hid_send                                      .build/obj_converter_cumulus_ta15_vial/protocol/chibios/usb_main.o (symbol from plugin)
                                                  .build/obj_converter_cumulus_ta15_vial/quantum/via.o (symbol from plugin)
raw_hid_task                                      .build/obj_converter_cumulus_ta15_vial/protocol/chibios/usb_main.o (symbol from plugin)
                                                  .build/obj_converter_cumulus_ta15_vial/protocol/chibios/chibios.o (symbol from plugin)
raw_matrix                                        .build/obj_converter_cumulus_ta15_vial/quantum/matrix_common.o (symbol from plugin)
                                                  .build/obj_converter_cumulus_ta15_vial/quantum/matrix.o (symbol from plugin)
read_source_layers_cache                          /var/folders/x9/cy1bx1f960zd_7xhdrxmk_zm0000gn/T//cc8Nwo3z.ltrans0.ltrans.o
                                                  .build/obj_converter_cumulus_ta15_vial/quantum/action_layer.o (symbol from plugin)
                                                  /var/folders/x9/cy1bx1f960zd_7xhdrxmk_zm0000gn/T//cc8Nwo3z.ltrans1.ltrans.o
                                                  .build/obj_converter_cumulus_ta15_vial/quantum/process_keycode/process_key_override.o (symbol from plugin)
                                                  .build/obj_converter_cumulus_ta15_vial/quantum/quantum.o (symbol from plugin)
read_source_layers_cache_impl                     .build/obj_converter_cumulus_ta15_vial/quantum/action_layer.o (symbol from plugin)
register_code                                     /var/folders/x9/cy1bx1f960zd_7xhdrxmk_zm0000gn/T//cc8Nwo3z.ltrans0.ltrans.o
                                                  .build/obj_converter_cumulus_ta15_vial/quantum/action.o (symbol from plugin)
                                                  /var/folders/x9/cy1bx1f960zd_7xhdrxmk_zm0000gn/T//cc8Nwo3z.ltrans1.ltrans.o
                                                  .build/obj_converter_cumulus_ta15_vial/quantum/process_keycode/process_key_override.o (symbol from plugin)
                                                  .build/obj_converter_cumulus_ta15_vial/quantum/send_string/send_string.o (symbol from plugin)
                                                  .build/obj_converter_cumulus_ta15_vial/quantum/process_keycode/process_unicode_common.o (symbol from plugin)
                                                  .build/obj_converter_cumulus_ta15_vial/quantum/quantum.o (symbol from plugin)
register_code16                                   /var/folders/x9/cy1bx1f960zd_7xhdrxmk_zm0000gn/T//cc8Nwo3z.ltrans1.ltrans.o
                                                  .build/obj_converter_cumulus_ta15_vial/quantum/quantum.o (symbol from plugin)
                                                  /var/folders/x9/cy1bx1f960zd_7xhdrxmk_zm0000gn/T//cc8Nwo3z.ltrans0.ltrans.o
                                                  .build/obj_converter_cumulus_ta15_vial/quantum/process_keycode/process_tap_dance.o (symbol from plugin)
                                                  .build/obj_converter_cumulus_ta15_vial/quantum/process_keycode/process_key_override.o (symbol from plugin)
                                                  .build/obj_converter_cumulus_ta15_vial/quantum/process_keycode/process_auto_shift.o (symbol from plugin)
                                                  .build/obj_converter_cumulus_ta15_vial/quantum/vial.o (symbol from plugin)
register_hex                                      .build/obj_converter_cumulus_ta15_vial/quantum/process_keycode/process_unicode_common.o (symbol from plugin)
                                                  .build/obj_converter_cumulus_ta15_vial/quantum/process_keycode/process_unicode.o (symbol from plugin)
register_hex32                                    .build/obj_converter_cumulus_ta15_vial/quantum/process_keycode/process_unicode_common.o (symbol from plugin)
register_mods                                     /var/folders/x9/cy1bx1f960zd_7xhdrxmk_zm0000gn/T//cc8Nwo3z.ltrans0.ltrans.o
                                                  .build/obj_converter_cumulus_ta15_vial/quantum/action.o (symbol from plugin)
                                                  /var/folders/x9/cy1bx1f960zd_7xhdrxmk_zm0000gn/T//cc8Nwo3z.ltrans1.ltrans.o
                                                  .build/obj_converter_cumulus_ta15_vial/quantum/process_keycode/process_space_cadet.o (symbol from plugin)
                                                  .build/obj_converter_cumulus_ta15_vial/quantum/quantum.o (symbol from plugin)
register_unicode                                  .build/obj_converter_cumulus_ta15_vial/quantum/process_keycode/process_unicode_common.o (symbol from plugin)
register_weak_mods                                .build/obj_converter_cumulus_ta15_vial/quantum/action.o (symbol from plugin)
                                                  .build/obj_converter_cumulus_ta15_vial/quantum/quantum.o (symbol from plugin)
report.c.5f794c79                                 /var/folders/x9/cy1bx1f960zd_7xhdrxmk_zm0000gn/T//ccbHuJM1debugobj
                                                  /var/folders/x9/cy1bx1f960zd_7xhdrxmk_zm0000gn/T//cc8Nwo3z.ltrans0.ltrans.o
reset_keyboard                                    .build/obj_converter_cumulus_ta15_vial/quantum/quantum.o (symbol from plugin)
reset_oneshot_layer                               .build/obj_converter_cumulus_ta15_vial/quantum/action_util.o (symbol from plugin)
                                                  .build/obj_converter_cumulus_ta15_vial/quantum/action.o (symbol from plugin)
reset_tap_dance                                   .build/obj_converter_cumulus_ta15_vial/quantum/process_keycode/process_tap_dance.o (symbol from plugin)
restart_usb_driver                                .build/obj_converter_cumulus_ta15_vial/protocol/chibios/usb_main.o (symbol from plugin)
                                                  .build/obj_converter_cumulus_ta15_vial/protocol/chibios/chibios.o (symbol from plugin)
retro_tapping_counter                             /var/folders/x9/cy1bx1f960zd_7xhdrxmk_zm0000gn/T//cc8Nwo3z.ltrans0.ltrans.o
                                                  .build/obj_converter_cumulus_ta15_vial/quantum/action.o (symbol from plugin)
                                                  /var/folders/x9/cy1bx1f960zd_7xhdrxmk_zm0000gn/T//cc8Nwo3z.ltrans1.ltrans.o
rom_data_lookup                                   .build/obj_converter_cumulus_ta15/./lib/pico-sdk/src/rp2_common/pico_bootrom/bootrom.o (symbol from plugin)
rom_func_lookup                                   .build/obj_converter_cumulus_ta15/./lib/pico-sdk/src/rp2_common/pico_bootrom/bootrom.o (symbol from plugin)
                                                  .build/obj_converter_cumulus_ta15_vial/platforms/chibios/bootloaders/rp2040.o (symbol from plugin)
rom_funcs_lookup                                  .build/obj_converter_cumulus_ta15/./lib/pico-sdk/src/rp2_common/pico_bootrom/bootrom.o (symbol from plugin)
rp2040.c.6ed05248                                 /var/folders/x9/cy1bx1f960zd_7xhdrxmk_zm0000gn/T//ccbHuJM1debugobj
                                                  /var/folders/x9/cy1bx1f960zd_7xhdrxmk_zm0000gn/T//cc8Nwo3z.ltrans1.ltrans.o
                                                  /var/folders/x9/cy1bx1f960zd_7xhdrxmk_zm0000gn/T//cc8Nwo3z.ltrans0.ltrans.o
rp_dma.c.b60d1813                                 /var/folders/x9/cy1bx1f960zd_7xhdrxmk_zm0000gn/T//ccbHuJM1debugobj
rp_isr.c.0cf38114                                 /var/folders/x9/cy1bx1f960zd_7xhdrxmk_zm0000gn/T//ccbHuJM1debugobj
                                                  /var/folders/x9/cy1bx1f960zd_7xhdrxmk_zm0000gn/T//cc8Nwo3z.ltrans0.ltrans.o
send_byte                                         .build/obj_converter_cumulus_ta15_vial/quantum/send_string/send_string.o (symbol from plugin)
send_char                                         .build/obj_converter_cumulus_ta15_vial/quantum/send_string/send_string.o (symbol from plugin)
send_consumer                                     .build/obj_converter_cumulus_ta15_vial/protocol/chibios/usb_main.o (symbol from plugin)
                                                  .build/obj_converter_cumulus_ta15_vial/protocol/chibios/chibios.o (symbol from plugin)
send_digitizer                                    .build/obj_converter_cumulus_ta15_vial/protocol/chibios/usb_main.o (symbol from plugin)
                                                  .build/obj_converter_cumulus_ta15_vial/protocol/host.o (symbol from plugin)
send_dword                                        .build/obj_converter_cumulus_ta15_vial/quantum/send_string/send_string.o (symbol from plugin)
send_keyboard                                     .build/obj_converter_cumulus_ta15_vial/protocol/chibios/usb_main.o (symbol from plugin)
                                                  .build/obj_converter_cumulus_ta15_vial/protocol/chibios/chibios.o (symbol from plugin)
send_keyboard_report                              /var/folders/x9/cy1bx1f960zd_7xhdrxmk_zm0000gn/T//cc8Nwo3z.ltrans0.ltrans.o
                                                  .build/obj_converter_cumulus_ta15_vial/quantum/action_util.o (symbol from plugin)
                                                  /var/folders/x9/cy1bx1f960zd_7xhdrxmk_zm0000gn/T//cc8Nwo3z.ltrans1.ltrans.o
                                                  .build/obj_converter_cumulus_ta15_vial/protocol/chibios/chibios.o (symbol from plugin)
                                                  .build/obj_converter_cumulus_ta15_vial/quantum/process_keycode/process_tap_dance.o (symbol from plugin)
                                                  .build/obj_converter_cumulus_ta15_vial/quantum/process_keycode/process_key_override.o (symbol from plugin)
                                                  .build/obj_converter_cumulus_ta15_vial/quantum/process_keycode/process_grave_esc.o (symbol from plugin)
                                                  .build/obj_converter_cumulus_ta15_vial/quantum/process_keycode/process_auto_shift.o (symbol from plugin)
                                                  .build/obj_converter_cumulus_ta15_vial/quantum/action.o (symbol from plugin)
send_mouse                                        .build/obj_converter_cumulus_ta15_vial/protocol/chibios/usb_main.o (symbol from plugin)
                                                  .build/obj_converter_cumulus_ta15_vial/protocol/chibios/chibios.o (symbol from plugin)
send_nibble                                       .build/obj_converter_cumulus_ta15_vial/quantum/send_string/send_string.o (symbol from plugin)
                                                  .build/obj_converter_cumulus_ta15_vial/quantum/process_keycode/process_unicode_common.o (symbol from plugin)
send_programmable_button                          .build/obj_converter_cumulus_ta15_vial/protocol/chibios/usb_main.o (symbol from plugin)
                                                  .build/obj_converter_cumulus_ta15_vial/protocol/chibios/chibios.o (symbol from plugin)
send_string                                       .build/obj_converter_cumulus_ta15_vial/quantum/send_string/send_string.o (symbol from plugin)
                                                  .build/obj_converter_cumulus_ta15_vial/quantum/dynamic_keymap.o (symbol from plugin)
send_string.c.4d8f4471                            /var/folders/x9/cy1bx1f960zd_7xhdrxmk_zm0000gn/T//ccbHuJM1debugobj
                                                  /var/folders/x9/cy1bx1f960zd_7xhdrxmk_zm0000gn/T//cc8Nwo3z.ltrans0.ltrans.o
send_string_with_delay                            .build/obj_converter_cumulus_ta15_vial/quantum/send_string/send_string.o (symbol from plugin)
                                                  .build/obj_converter_cumulus_ta15_vial/quantum/dynamic_keymap.o (symbol from plugin)
send_system                                       .build/obj_converter_cumulus_ta15_vial/protocol/chibios/usb_main.o (symbol from plugin)
                                                  .build/obj_converter_cumulus_ta15_vial/protocol/chibios/chibios.o (symbol from plugin)
send_unicode_string                               .build/obj_converter_cumulus_ta15_vial/quantum/process_keycode/process_unicode_common.o (symbol from plugin)
send_word                                         .build/obj_converter_cumulus_ta15_vial/quantum/send_string/send_string.o (symbol from plugin)
sendchar                                          .build/obj_converter_cumulus_ta15_vial/protocol/chibios/usb_main.o (symbol from plugin)
                                                  .build/obj_converter_cumulus_ta15_vial/quantum/logging/sendchar.o (symbol from plugin)
                                                  .build/obj_converter_cumulus_ta15_vial/quantum/keyboard.o (symbol from plugin)
sendchar.c.aaa4bde6                               /var/folders/x9/cy1bx1f960zd_7xhdrxmk_zm0000gn/T//ccbHuJM1debugobj
set_autoshift_shift_state                         .build/obj_converter_cumulus_ta15_vial/quantum/process_keycode/process_auto_shift.o (symbol from plugin)
set_autoshift_timeout                             .build/obj_converter_cumulus_ta15_vial/quantum/process_keycode/process_auto_shift.o (symbol from plugin)
                                                  .build/obj_converter_cumulus_ta15_vial/quantum/qmk_settings.o (symbol from plugin)
set_mods                                          .build/obj_converter_cumulus_ta15_vial/quantum/action_util.o (symbol from plugin)
                                                  .build/obj_converter_cumulus_ta15_vial/quantum/process_keycode/process_unicode_common.o (symbol from plugin)
set_oneshot_layer                                 .build/obj_converter_cumulus_ta15_vial/quantum/action_util.o (symbol from plugin)
                                                  .build/obj_converter_cumulus_ta15_vial/quantum/action.o (symbol from plugin)
set_oneshot_locked_mods                           .build/obj_converter_cumulus_ta15_vial/quantum/action_util.o (symbol from plugin)
                                                  .build/obj_converter_cumulus_ta15_vial/quantum/action.o (symbol from plugin)
set_oneshot_mods                                  .build/obj_converter_cumulus_ta15_vial/quantum/action_util.o (symbol from plugin)
                                                  .build/obj_converter_cumulus_ta15_vial/quantum/process_keycode/process_auto_shift.o (symbol from plugin)
                                                  .build/obj_converter_cumulus_ta15_vial/quantum/action.o (symbol from plugin)
set_single_persistent_default_layer               .build/obj_converter_cumulus_ta15_vial/quantum/quantum.o (symbol from plugin)
set_suppressed_override_mods                      .build/obj_converter_cumulus_ta15_vial/quantum/action_util.o (symbol from plugin)
                                                  .build/obj_converter_cumulus_ta15_vial/quantum/process_keycode/process_key_override.o (symbol from plugin)
set_unicode_input_mode                            .build/obj_converter_cumulus_ta15_vial/quantum/process_keycode/process_unicode_common.o (symbol from plugin)
set_weak_mods                                     .build/obj_converter_cumulus_ta15_vial/quantum/action_util.o (symbol from plugin)
set_weak_override_mods                            .build/obj_converter_cumulus_ta15_vial/quantum/action_util.o (symbol from plugin)
                                                  .build/obj_converter_cumulus_ta15_vial/quantum/process_keycode/process_key_override.o (symbol from plugin)
shared_in_cb                                      .build/obj_converter_cumulus_ta15_vial/protocol/chibios/usb_main.o (symbol from plugin)
should_mousekey_report_send                       .build/obj_converter_cumulus_ta15_vial/quantum/mousekey.o (symbol from plugin)
should_process_keypress                           .build/obj_converter_cumulus_ta15_vial/quantum/keyboard.o (symbol from plugin)
shutdown_quantum                                  .build/obj_converter_cumulus_ta15_vial/quantum/quantum.o (symbol from plugin)
shutdown_user                                     /var/folders/x9/cy1bx1f960zd_7xhdrxmk_zm0000gn/T//cc8Nwo3z.ltrans0.ltrans.o
                                                  .build/obj_converter_cumulus_ta15_vial/quantum/quantum.o (symbol from plugin)
signal                                            /usr/local/Cellar/arm-none-eabi-gcc@8/8.5.0_2/lib/arm-none-eabi-gcc/8/gcc/arm-none-eabi/8.5.0/../../../../../../arm-none-eabi/lib/thumb/v6-m/nofp/libg_nano.a(lib_a-signal.o)
snprintf                                          /var/folders/x9/cy1bx1f960zd_7xhdrxmk_zm0000gn/T//cc8Nwo3z.ltrans0.ltrans.o
soft_reset_keyboard                               /var/folders/x9/cy1bx1f960zd_7xhdrxmk_zm0000gn/T//cc8Nwo3z.ltrans1.ltrans.o
                                                  .build/obj_converter_cumulus_ta15_vial/quantum/quantum.o (symbol from plugin)
                                                  /var/folders/x9/cy1bx1f960zd_7xhdrxmk_zm0000gn/T//cc8Nwo3z.ltrans0.ltrans.o
source_layers_cache                               .build/obj_converter_cumulus_ta15_vial/quantum/action_layer.o (symbol from plugin)
sprintf                                           /var/folders/x9/cy1bx1f960zd_7xhdrxmk_zm0000gn/T//cc8Nwo3z.ltrans0.ltrans.o
srand                                             /usr/local/Cellar/arm-none-eabi-gcc@8/8.5.0_2/lib/arm-none-eabi-gcc/8/gcc/arm-none-eabi/8.5.0/../../../../../../arm-none-eabi/lib/thumb/v6-m/nofp/libg_nano.a(lib_a-rand.o)
stBind                                            .build/obj_converter_cumulus_ta15/lib/chibios/os/hal/src/hal_st.o (symbol from plugin)
                                                  .build/obj_converter_cumulus_ta15/lib/chibios/os/common/ports/ARMv6-M-RP2/chcore.o (symbol from plugin)
stInit                                            .build/obj_converter_cumulus_ta15/lib/chibios/os/hal/src/hal_st.o (symbol from plugin)
                                                  .build/obj_converter_cumulus_ta15/lib/chibios/os/hal/src/hal.o (symbol from plugin)
st_callbacks                                      .build/obj_converter_cumulus_ta15/lib/chibios/os/hal/src/hal_st.o (symbol from plugin)
st_lld_bind                                       .build/obj_converter_cumulus_ta15/lib/chibios/os/hal/ports/RP/LLD/TIMERv1/hal_st_lld.o (symbol from plugin)
                                                  .build/obj_converter_cumulus_ta15/lib/chibios/os/hal/src/hal_st.o (symbol from plugin)
st_lld_init                                       .build/obj_converter_cumulus_ta15/lib/chibios/os/hal/ports/RP/LLD/TIMERv1/hal_st_lld.o (symbol from plugin)
                                                  .build/obj_converter_cumulus_ta15/lib/chibios/os/hal/src/hal_st.o (symbol from plugin)
stage2_bootloaders.c.d756db6a                     /var/folders/x9/cy1bx1f960zd_7xhdrxmk_zm0000gn/T//ccbHuJM1debugobj
                                                  /var/folders/x9/cy1bx1f960zd_7xhdrxmk_zm0000gn/T//cc8Nwo3z.ltrans0.ltrans.o
startup_user                                      .build/obj_converter_cumulus_ta15_vial/quantum/quantum.o (symbol from plugin)
store_or_get_action                               .build/obj_converter_cumulus_ta15_vial/quantum/action_layer.o (symbol from plugin)
                                                  .build/obj_converter_cumulus_ta15_vial/quantum/action.o (symbol from plugin)
suspend.c.bcf6d205                                /var/folders/x9/cy1bx1f960zd_7xhdrxmk_zm0000gn/T//ccbHuJM1debugobj
                                                  /var/folders/x9/cy1bx1f960zd_7xhdrxmk_zm0000gn/T//cc8Nwo3z.ltrans0.ltrans.o
suspend.c.c13cfc16                                /var/folders/x9/cy1bx1f960zd_7xhdrxmk_zm0000gn/T//ccbHuJM1debugobj
                                                  /var/folders/x9/cy1bx1f960zd_7xhdrxmk_zm0000gn/T//cc8Nwo3z.ltrans0.ltrans.o
suspend_power_down                                .build/obj_converter_cumulus_ta15_vial/platforms/chibios/suspend.o (symbol from plugin)
                                                  .build/obj_converter_cumulus_ta15_vial/protocol/chibios/chibios.o (symbol from plugin)
suspend_power_down_kb                             .build/obj_converter_cumulus_ta15_vial/platforms/suspend.o (symbol from plugin)
                                                  .build/obj_converter_cumulus_ta15_vial/quantum/quantum.o (symbol from plugin)
suspend_power_down_quantum                        .build/obj_converter_cumulus_ta15_vial/quantum/quantum.o (symbol from plugin)
                                                  .build/obj_converter_cumulus_ta15_vial/platforms/chibios/suspend.o (symbol from plugin)
suspend_power_down_user                           .build/obj_converter_cumulus_ta15_vial/platforms/suspend.o (symbol from plugin)
suspend_wakeup_condition                          .build/obj_converter_cumulus_ta15_vial/platforms/suspend.o (symbol from plugin)
                                                  .build/obj_converter_cumulus_ta15_vial/protocol/chibios/chibios.o (symbol from plugin)
suspend_wakeup_init                               .build/obj_converter_cumulus_ta15_vial/platforms/chibios/suspend.o (symbol from plugin)
                                                  .build/obj_converter_cumulus_ta15_vial/protocol/chibios/usb_main.o (symbol from plugin)
suspend_wakeup_init_kb                            .build/obj_converter_cumulus_ta15_vial/platforms/suspend.o (symbol from plugin)
                                                  .build/obj_converter_cumulus_ta15_vial/quantum/quantum.o (symbol from plugin)
suspend_wakeup_init_quantum                       .build/obj_converter_cumulus_ta15_vial/quantum/quantum.o (symbol from plugin)
                                                  .build/obj_converter_cumulus_ta15_vial/platforms/chibios/suspend.o (symbol from plugin)
suspend_wakeup_init_user                          .build/obj_converter_cumulus_ta15_vial/platforms/suspend.o (symbol from plugin)
switch_events                                     .build/obj_converter_cumulus_ta15_vial/quantum/keyboard.o (symbol from plugin)
sym_defer_g.c.3904d204                            /var/folders/x9/cy1bx1f960zd_7xhdrxmk_zm0000gn/T//ccbHuJM1debugobj
                                                  /var/folders/x9/cy1bx1f960zd_7xhdrxmk_zm0000gn/T//cc8Nwo3z.ltrans0.ltrans.o
sync_timer.c.f575104c                             /var/folders/x9/cy1bx1f960zd_7xhdrxmk_zm0000gn/T//ccbHuJM1debugobj
synchronization_util.c.e199c182                   /var/folders/x9/cy1bx1f960zd_7xhdrxmk_zm0000gn/T//ccbHuJM1debugobj
syscall_fallbacks.c.2533bc88                      /var/folders/x9/cy1bx1f960zd_7xhdrxmk_zm0000gn/T//ccbHuJM1debugobj
                                                  /var/folders/x9/cy1bx1f960zd_7xhdrxmk_zm0000gn/T//cc8Nwo3z.ltrans1.ltrans.o
                                                  /var/folders/x9/cy1bx1f960zd_7xhdrxmk_zm0000gn/T//cc8Nwo3z.ltrans0.ltrans.o
syscalls.c.e8ce088f                               /var/folders/x9/cy1bx1f960zd_7xhdrxmk_zm0000gn/T//ccbHuJM1debugobj
                                                  /var/folders/x9/cy1bx1f960zd_7xhdrxmk_zm0000gn/T//cc8Nwo3z.ltrans0.ltrans.o
tap_code                                          .build/obj_converter_cumulus_ta15_vial/quantum/action.o (symbol from plugin)
                                                  .build/obj_converter_cumulus_ta15_vial/quantum/process_keycode/process_space_cadet.o (symbol from plugin)
                                                  .build/obj_converter_cumulus_ta15_vial/quantum/send_string/send_string.o (symbol from plugin)
                                                  .build/obj_converter_cumulus_ta15_vial/quantum/process_keycode/process_unicode_common.o (symbol from plugin)
tap_code16                                        /var/folders/x9/cy1bx1f960zd_7xhdrxmk_zm0000gn/T//cc8Nwo3z.ltrans1.ltrans.o
                                                  .build/obj_converter_cumulus_ta15_vial/quantum/quantum.o (symbol from plugin)
                                                  /var/folders/x9/cy1bx1f960zd_7xhdrxmk_zm0000gn/T//cc8Nwo3z.ltrans0.ltrans.o
                                                  .build/obj_converter_cumulus_ta15_vial/quantum/process_keycode/process_unicode_common.o (symbol from plugin)
tap_code16_delay                                  .build/obj_converter_cumulus_ta15_vial/quantum/quantum.o (symbol from plugin)
tap_code_delay                                    .build/obj_converter_cumulus_ta15_vial/quantum/action.o (symbol from plugin)
tap_dance_actions                                 .build/obj_converter_cumulus_ta15_vial/quantum/vial.o (symbol from plugin)
                                                  .build/obj_converter_cumulus_ta15_vial/quantum/process_keycode/process_tap_dance.o (symbol from plugin)
tap_dance_task                                    .build/obj_converter_cumulus_ta15_vial/quantum/process_keycode/process_tap_dance.o (symbol from plugin)
                                                  .build/obj_converter_cumulus_ta15_vial/quantum/keyboard.o (symbol from plugin)
tap_random_base64                                 .build/obj_converter_cumulus_ta15_vial/quantum/send_string/send_string.o (symbol from plugin)
timer.c.210d6a75                                  /var/folders/x9/cy1bx1f960zd_7xhdrxmk_zm0000gn/T//ccbHuJM1debugobj
                                                  /var/folders/x9/cy1bx1f960zd_7xhdrxmk_zm0000gn/T//cc8Nwo3z.ltrans1.ltrans.o
                                                  /var/folders/x9/cy1bx1f960zd_7xhdrxmk_zm0000gn/T//cc8Nwo3z.ltrans0.ltrans.o
timer.lto_priv.133                                /var/folders/x9/cy1bx1f960zd_7xhdrxmk_zm0000gn/T//cc8Nwo3z.ltrans0.ltrans.o
                                                  /var/folders/x9/cy1bx1f960zd_7xhdrxmk_zm0000gn/T//cc8Nwo3z.ltrans1.ltrans.o
timer_clear                                       .build/obj_converter_cumulus_ta15_vial/platforms/chibios/timer.o (symbol from plugin)
timer_elapsed                                     .build/obj_converter_cumulus_ta15_vial/platforms/chibios/timer.o (symbol from plugin)
                                                  .build/obj_converter_cumulus_ta15_vial/quantum/process_keycode/process_tap_dance.o (symbol from plugin)
                                                  .build/obj_converter_cumulus_ta15_vial/quantum/process_keycode/process_space_cadet.o (symbol from plugin)
                                                  .build/obj_converter_cumulus_ta15_vial/quantum/process_keycode/process_combo.o (symbol from plugin)
                                                  .build/obj_converter_cumulus_ta15_vial/quantum/mousekey.o (symbol from plugin)
timer_elapsed32                                   .build/obj_converter_cumulus_ta15_vial/platforms/chibios/timer.o (symbol from plugin)
                                                  .build/obj_converter_cumulus_ta15_vial/quantum/process_keycode/process_key_override.o (symbol from plugin)
                                                  .build/obj_converter_cumulus_ta15_vial/quantum/debounce/sym_defer_g.o (symbol from plugin)
                                                  .build/obj_converter_cumulus_ta15_vial/quantum/keyboard.o (symbol from plugin)
                                                  .build/obj_converter_cumulus_ta15_vial/quantum/led.o (symbol from plugin)
timer_init                                        .build/obj_converter_cumulus_ta15_vial/platforms/chibios/timer.o (symbol from plugin)
                                                  .build/obj_converter_cumulus_ta15_vial/quantum/keyboard.o (symbol from plugin)
timer_read                                        .build/obj_converter_cumulus_ta15_vial/platforms/chibios/timer.o (symbol from plugin)
                                                  .build/obj_converter_cumulus_ta15_vial/quantum/process_keycode/process_tap_dance.o (symbol from plugin)
                                                  .build/obj_converter_cumulus_ta15_vial/quantum/process_keycode/process_space_cadet.o (symbol from plugin)
                                                  .build/obj_converter_cumulus_ta15_vial/quantum/process_keycode/process_combo.o (symbol from plugin)
                                                  .build/obj_converter_cumulus_ta15_vial/quantum/process_keycode/process_auto_shift.o (symbol from plugin)
                                                  .build/obj_converter_cumulus_ta15_vial/quantum/vial.o (symbol from plugin)
                                                  .build/obj_converter_cumulus_ta15_vial/quantum/mousekey.o (symbol from plugin)
                                                  .build/obj_converter_cumulus_ta15_vial/quantum/keyboard.o (symbol from plugin)
                                                  .build/obj_converter_cumulus_ta15_vial/quantum/action_util.o (symbol from plugin)
timer_read32                                      /var/folders/x9/cy1bx1f960zd_7xhdrxmk_zm0000gn/T//cc8Nwo3z.ltrans0.ltrans.o
                                                  .build/obj_converter_cumulus_ta15_vial/platforms/chibios/timer.o (symbol from plugin)
                                                  /var/folders/x9/cy1bx1f960zd_7xhdrxmk_zm0000gn/T//cc8Nwo3z.ltrans1.ltrans.o
                                                  .build/obj_converter_cumulus_ta15_vial/quantum/process_keycode/process_key_override.o (symbol from plugin)
                                                  .build/obj_converter_cumulus_ta15_vial/quantum/via.o (symbol from plugin)
                                                  .build/obj_converter_cumulus_ta15_vial/quantum/debounce/sym_defer_g.o (symbol from plugin)
                                                  .build/obj_converter_cumulus_ta15_vial/quantum/keyboard.o (symbol from plugin)
                                                  .build/obj_converter_cumulus_ta15_vial/quantum/led.o (symbol from plugin)
tp_buttons                                        .build/obj_converter_cumulus_ta15_vial/quantum/action.o (symbol from plugin)
unicode_config                                    .build/obj_converter_cumulus_ta15_vial/quantum/process_keycode/process_unicode_common.o (symbol from plugin)
unicode_input_cancel                              .build/obj_converter_cumulus_ta15_vial/quantum/process_keycode/process_unicode_common.o (symbol from plugin)
unicode_input_finish                              .build/obj_converter_cumulus_ta15_vial/quantum/process_keycode/process_unicode_common.o (symbol from plugin)
                                                  .build/obj_converter_cumulus_ta15_vial/quantum/process_keycode/process_unicode.o (symbol from plugin)
unicode_input_mode_init                           .build/obj_converter_cumulus_ta15_vial/quantum/process_keycode/process_unicode_common.o (symbol from plugin)
                                                  .build/obj_converter_cumulus_ta15_vial/quantum/keyboard.o (symbol from plugin)
unicode_input_start                               .build/obj_converter_cumulus_ta15_vial/quantum/process_keycode/process_unicode_common.o (symbol from plugin)
                                                  .build/obj_converter_cumulus_ta15_vial/quantum/process_keycode/process_unicode.o (symbol from plugin)
unicode_saved_caps_lock                           .build/obj_converter_cumulus_ta15_vial/quantum/process_keycode/process_unicode_common.o (symbol from plugin)
unicode_saved_mods                                .build/obj_converter_cumulus_ta15_vial/quantum/process_keycode/process_unicode_common.o (symbol from plugin)
unicode_saved_num_lock                            .build/obj_converter_cumulus_ta15_vial/quantum/process_keycode/process_unicode_common.o (symbol from plugin)
unregister_code                                   /var/folders/x9/cy1bx1f960zd_7xhdrxmk_zm0000gn/T//cc8Nwo3z.ltrans0.ltrans.o
                                                  .build/obj_converter_cumulus_ta15_vial/quantum/action.o (symbol from plugin)
                                                  /var/folders/x9/cy1bx1f960zd_7xhdrxmk_zm0000gn/T//cc8Nwo3z.ltrans1.ltrans.o
                                                  .build/obj_converter_cumulus_ta15_vial/quantum/process_keycode/process_key_override.o (symbol from plugin)
                                                  .build/obj_converter_cumulus_ta15_vial/quantum/send_string/send_string.o (symbol from plugin)
                                                  .build/obj_converter_cumulus_ta15_vial/quantum/process_keycode/process_unicode_common.o (symbol from plugin)
                                                  .build/obj_converter_cumulus_ta15_vial/quantum/quantum.o (symbol from plugin)
unregister_code16                                 /var/folders/x9/cy1bx1f960zd_7xhdrxmk_zm0000gn/T//cc8Nwo3z.ltrans1.ltrans.o
                                                  .build/obj_converter_cumulus_ta15_vial/quantum/quantum.o (symbol from plugin)
                                                  /var/folders/x9/cy1bx1f960zd_7xhdrxmk_zm0000gn/T//cc8Nwo3z.ltrans0.ltrans.o
                                                  .build/obj_converter_cumulus_ta15_vial/quantum/process_keycode/process_tap_dance.o (symbol from plugin)
                                                  .build/obj_converter_cumulus_ta15_vial/quantum/process_keycode/process_auto_shift.o (symbol from plugin)
                                                  .build/obj_converter_cumulus_ta15_vial/quantum/vial.o (symbol from plugin)
unregister_mods                                   /var/folders/x9/cy1bx1f960zd_7xhdrxmk_zm0000gn/T//cc8Nwo3z.ltrans0.ltrans.o
                                                  .build/obj_converter_cumulus_ta15_vial/quantum/action.o (symbol from plugin)
                                                  /var/folders/x9/cy1bx1f960zd_7xhdrxmk_zm0000gn/T//cc8Nwo3z.ltrans1.ltrans.o
                                                  .build/obj_converter_cumulus_ta15_vial/quantum/process_keycode/process_space_cadet.o (symbol from plugin)
                                                  .build/obj_converter_cumulus_ta15_vial/quantum/quantum.o (symbol from plugin)
unregister_weak_mods                              .build/obj_converter_cumulus_ta15_vial/quantum/action.o (symbol from plugin)
                                                  .build/obj_converter_cumulus_ta15_vial/quantum/quantum.o (symbol from plugin)
update_source_layers_cache                        /var/folders/x9/cy1bx1f960zd_7xhdrxmk_zm0000gn/T//cc8Nwo3z.ltrans0.ltrans.o
                                                  .build/obj_converter_cumulus_ta15_vial/quantum/action_layer.o (symbol from plugin)
                                                  /var/folders/x9/cy1bx1f960zd_7xhdrxmk_zm0000gn/T//cc8Nwo3z.ltrans1.ltrans.o
                                                  .build/obj_converter_cumulus_ta15_vial/quantum/quantum.o (symbol from plugin)
update_source_layers_cache_impl                   .build/obj_converter_cumulus_ta15_vial/quantum/action_layer.o (symbol from plugin)
update_tri_layer                                  .build/obj_converter_cumulus_ta15_vial/quantum/quantum.o (symbol from plugin)
                                                  .build/obj_converter_cumulus_ta15_vial/quantum/via.o (symbol from plugin)
update_tri_layer_state                            .build/obj_converter_cumulus_ta15_vial/quantum/quantum.o (symbol from plugin)
usbDisableEndpointsI                              .build/obj_converter_cumulus_ta15/lib/chibios/os/hal/src/hal_usb.o (symbol from plugin)
usbInit                                           .build/obj_converter_cumulus_ta15/lib/chibios/os/hal/src/hal_usb.o (symbol from plugin)
                                                  .build/obj_converter_cumulus_ta15/lib/chibios/os/hal/src/hal.o (symbol from plugin)
usbInitEndpointI                                  .build/obj_converter_cumulus_ta15/lib/chibios/os/hal/src/hal_usb.o (symbol from plugin)
                                                  .build/obj_converter_cumulus_ta15_vial/protocol/chibios/usb_main.o (symbol from plugin)
usbObjectInit                                     .build/obj_converter_cumulus_ta15/lib/chibios/os/hal/src/hal_usb.o (symbol from plugin)
                                                  .build/obj_converter_cumulus_ta15/lib/chibios-contrib/os/hal/ports/RP/LLD/USBDv1/hal_usb_lld.o (symbol from plugin)
usbReceive                                        .build/obj_converter_cumulus_ta15/lib/chibios/os/hal/src/hal_usb.o (symbol from plugin)
usbStallReceiveI                                  .build/obj_converter_cumulus_ta15/lib/chibios/os/hal/src/hal_usb.o (symbol from plugin)
usbStallTransmitI                                 .build/obj_converter_cumulus_ta15/lib/chibios/os/hal/src/hal_usb.o (symbol from plugin)
usbStart                                          .build/obj_converter_cumulus_ta15/lib/chibios/os/hal/src/hal_usb.o (symbol from plugin)
                                                  .build/obj_converter_cumulus_ta15_vial/protocol/chibios/usb_main.o (symbol from plugin)
usbStartReceiveI                                  .build/obj_converter_cumulus_ta15/lib/chibios/os/hal/src/hal_usb.o (symbol from plugin)
                                                  .build/obj_converter_cumulus_ta15_vial/protocol/chibios/usb_driver.o (symbol from plugin)
usbStartTransmitI                                 .build/obj_converter_cumulus_ta15/lib/chibios/os/hal/src/hal_usb.o (symbol from plugin)
                                                  .build/obj_converter_cumulus_ta15_vial/protocol/chibios/usb_driver.o (symbol from plugin)
                                                  .build/obj_converter_cumulus_ta15_vial/protocol/chibios/usb_main.o (symbol from plugin)
usbStop                                           .build/obj_converter_cumulus_ta15/lib/chibios/os/hal/src/hal_usb.o (symbol from plugin)
                                                  .build/obj_converter_cumulus_ta15_vial/protocol/chibios/usb_util.o (symbol from plugin)
                                                  .build/obj_converter_cumulus_ta15_vial/protocol/chibios/usb_main.o (symbol from plugin)
usbTransmit                                       .build/obj_converter_cumulus_ta15/lib/chibios/os/hal/src/hal_usb.o (symbol from plugin)
usbWakeupHost                                     .build/obj_converter_cumulus_ta15/lib/chibios/os/hal/src/hal_usb.o (symbol from plugin)
                                                  .build/obj_converter_cumulus_ta15_vial/protocol/chibios/chibios.o (symbol from plugin)
usb_connected_state                               .build/obj_converter_cumulus_ta15_vial/protocol/chibios/usb_util.o (symbol from plugin)
                                                  .build/obj_converter_cumulus_ta15_vial/protocol/usb_util.o (symbol from plugin)
usb_descriptor.c.a421121f                         /var/folders/x9/cy1bx1f960zd_7xhdrxmk_zm0000gn/T//ccbHuJM1debugobj
                                                  /var/folders/x9/cy1bx1f960zd_7xhdrxmk_zm0000gn/T//cc8Nwo3z.ltrans0.ltrans.o
usb_device_state                                  .build/obj_converter_cumulus_ta15_vial/protocol/usb_device_state.o (symbol from plugin)
usb_device_state.c.67c82180                       /var/folders/x9/cy1bx1f960zd_7xhdrxmk_zm0000gn/T//ccbHuJM1debugobj
                                                  /var/folders/x9/cy1bx1f960zd_7xhdrxmk_zm0000gn/T//cc8Nwo3z.ltrans0.ltrans.o
usb_device_state_init                             .build/obj_converter_cumulus_ta15_vial/protocol/usb_device_state.o (symbol from plugin)
                                                  .build/obj_converter_cumulus_ta15_vial/protocol/chibios/chibios.o (symbol from plugin)
usb_device_state_set_configuration                .build/obj_converter_cumulus_ta15_vial/protocol/usb_device_state.o (symbol from plugin)
                                                  .build/obj_converter_cumulus_ta15_vial/protocol/chibios/usb_main.o (symbol from plugin)
usb_device_state_set_reset                        .build/obj_converter_cumulus_ta15_vial/protocol/usb_device_state.o (symbol from plugin)
                                                  .build/obj_converter_cumulus_ta15_vial/protocol/chibios/usb_main.o (symbol from plugin)
usb_device_state_set_resume                       .build/obj_converter_cumulus_ta15_vial/protocol/usb_device_state.o (symbol from plugin)
                                                  .build/obj_converter_cumulus_ta15_vial/protocol/chibios/usb_main.o (symbol from plugin)
usb_device_state_set_suspend                      .build/obj_converter_cumulus_ta15_vial/protocol/usb_device_state.o (symbol from plugin)
                                                  .build/obj_converter_cumulus_ta15_vial/protocol/chibios/usb_main.o (symbol from plugin)
usb_disconnect                                    .build/obj_converter_cumulus_ta15_vial/protocol/chibios/usb_util.o (symbol from plugin)
                                                  .build/obj_converter_cumulus_ta15_vial/protocol/usb_util.o (symbol from plugin)
usb_driver.c.807120a1                             /var/folders/x9/cy1bx1f960zd_7xhdrxmk_zm0000gn/T//ccbHuJM1debugobj
                                                  /var/folders/x9/cy1bx1f960zd_7xhdrxmk_zm0000gn/T//cc8Nwo3z.ltrans0.ltrans.o
usb_event_queue_init                              .build/obj_converter_cumulus_ta15_vial/protocol/chibios/usb_main.o (symbol from plugin)
                                                  .build/obj_converter_cumulus_ta15_vial/protocol/chibios/chibios.o (symbol from plugin)
usb_event_queue_task                              .build/obj_converter_cumulus_ta15_vial/protocol/chibios/usb_main.o (symbol from plugin)
                                                  .build/obj_converter_cumulus_ta15_vial/protocol/chibios/chibios.o (symbol from plugin)
usb_lld_clear_in                                  .build/obj_converter_cumulus_ta15/lib/chibios-contrib/os/hal/ports/RP/LLD/USBDv1/hal_usb_lld.o (symbol from plugin)
                                                  .build/obj_converter_cumulus_ta15/lib/chibios/os/hal/src/hal_usb.o (symbol from plugin)
usb_lld_clear_out                                 .build/obj_converter_cumulus_ta15/lib/chibios-contrib/os/hal/ports/RP/LLD/USBDv1/hal_usb_lld.o (symbol from plugin)
                                                  .build/obj_converter_cumulus_ta15/lib/chibios/os/hal/src/hal_usb.o (symbol from plugin)
usb_lld_disable_endpoints                         .build/obj_converter_cumulus_ta15/lib/chibios-contrib/os/hal/ports/RP/LLD/USBDv1/hal_usb_lld.o (symbol from plugin)
                                                  .build/obj_converter_cumulus_ta15/lib/chibios/os/hal/src/hal_usb.o (symbol from plugin)
usb_lld_get_status_in                             .build/obj_converter_cumulus_ta15/lib/chibios-contrib/os/hal/ports/RP/LLD/USBDv1/hal_usb_lld.o (symbol from plugin)
                                                  .build/obj_converter_cumulus_ta15/lib/chibios/os/hal/src/hal_usb.o (symbol from plugin)
usb_lld_get_status_out                            .build/obj_converter_cumulus_ta15/lib/chibios-contrib/os/hal/ports/RP/LLD/USBDv1/hal_usb_lld.o (symbol from plugin)
                                                  .build/obj_converter_cumulus_ta15/lib/chibios/os/hal/src/hal_usb.o (symbol from plugin)
usb_lld_init                                      .build/obj_converter_cumulus_ta15/lib/chibios-contrib/os/hal/ports/RP/LLD/USBDv1/hal_usb_lld.o (symbol from plugin)
                                                  .build/obj_converter_cumulus_ta15/lib/chibios/os/hal/src/hal_usb.o (symbol from plugin)
usb_lld_init_endpoint                             .build/obj_converter_cumulus_ta15/lib/chibios-contrib/os/hal/ports/RP/LLD/USBDv1/hal_usb_lld.o (symbol from plugin)
                                                  .build/obj_converter_cumulus_ta15/lib/chibios/os/hal/src/hal_usb.o (symbol from plugin)
usb_lld_read_setup                                .build/obj_converter_cumulus_ta15/lib/chibios-contrib/os/hal/ports/RP/LLD/USBDv1/hal_usb_lld.o (symbol from plugin)
                                                  .build/obj_converter_cumulus_ta15/lib/chibios/os/hal/src/hal_usb.o (symbol from plugin)
usb_lld_reset                                     .build/obj_converter_cumulus_ta15/lib/chibios-contrib/os/hal/ports/RP/LLD/USBDv1/hal_usb_lld.o (symbol from plugin)
                                                  .build/obj_converter_cumulus_ta15/lib/chibios/os/hal/src/hal_usb.o (symbol from plugin)
usb_lld_set_address                               .build/obj_converter_cumulus_ta15/lib/chibios-contrib/os/hal/ports/RP/LLD/USBDv1/hal_usb_lld.o (symbol from plugin)
                                                  .build/obj_converter_cumulus_ta15/lib/chibios/os/hal/src/hal_usb.o (symbol from plugin)
usb_lld_stall_in                                  .build/obj_converter_cumulus_ta15/lib/chibios-contrib/os/hal/ports/RP/LLD/USBDv1/hal_usb_lld.o (symbol from plugin)
                                                  .build/obj_converter_cumulus_ta15/lib/chibios/os/hal/src/hal_usb.o (symbol from plugin)
usb_lld_stall_out                                 .build/obj_converter_cumulus_ta15/lib/chibios-contrib/os/hal/ports/RP/LLD/USBDv1/hal_usb_lld.o (symbol from plugin)
                                                  .build/obj_converter_cumulus_ta15/lib/chibios/os/hal/src/hal_usb.o (symbol from plugin)
usb_lld_start                                     .build/obj_converter_cumulus_ta15/lib/chibios-contrib/os/hal/ports/RP/LLD/USBDv1/hal_usb_lld.o (symbol from plugin)
                                                  .build/obj_converter_cumulus_ta15/lib/chibios/os/hal/src/hal_usb.o (symbol from plugin)
usb_lld_start_in                                  .build/obj_converter_cumulus_ta15/lib/chibios-contrib/os/hal/ports/RP/LLD/USBDv1/hal_usb_lld.o (symbol from plugin)
                                                  .build/obj_converter_cumulus_ta15/lib/chibios/os/hal/src/hal_usb.o (symbol from plugin)
usb_lld_start_out                                 .build/obj_converter_cumulus_ta15/lib/chibios-contrib/os/hal/ports/RP/LLD/USBDv1/hal_usb_lld.o (symbol from plugin)
                                                  .build/obj_converter_cumulus_ta15/lib/chibios/os/hal/src/hal_usb.o (symbol from plugin)
usb_lld_stop                                      .build/obj_converter_cumulus_ta15/lib/chibios-contrib/os/hal/ports/RP/LLD/USBDv1/hal_usb_lld.o (symbol from plugin)
                                                  .build/obj_converter_cumulus_ta15/lib/chibios/os/hal/src/hal_usb.o (symbol from plugin)
usb_main.c.fb20a81f                               /var/folders/x9/cy1bx1f960zd_7xhdrxmk_zm0000gn/T//ccbHuJM1debugobj
                                                  /var/folders/x9/cy1bx1f960zd_7xhdrxmk_zm0000gn/T//cc8Nwo3z.ltrans1.ltrans.o
                                                  /var/folders/x9/cy1bx1f960zd_7xhdrxmk_zm0000gn/T//cc8Nwo3z.ltrans0.ltrans.o
usb_prepare_out_ep_buffer                         .build/obj_converter_cumulus_ta15/lib/chibios-contrib/os/hal/ports/RP/LLD/USBDv1/hal_usb_lld.o (symbol from plugin)
usb_util.c.19a21ef5                               /var/folders/x9/cy1bx1f960zd_7xhdrxmk_zm0000gn/T//ccbHuJM1debugobj
usb_util.c.213d6342                               /var/folders/x9/cy1bx1f960zd_7xhdrxmk_zm0000gn/T//ccbHuJM1debugobj
usb_vbus_state                                    .build/obj_converter_cumulus_ta15_vial/protocol/usb_util.o (symbol from plugin)
utf8.c.2055acc7                                   /var/folders/x9/cy1bx1f960zd_7xhdrxmk_zm0000gn/T//ccbHuJM1debugobj
vfctprintf                                        .build/obj_converter_cumulus_ta15_vial/printf.o (symbol from plugin)
vfiprintf                                         /usr/local/Cellar/arm-none-eabi-gcc@8/8.5.0_2/lib/arm-none-eabi-gcc/8/gcc/arm-none-eabi/8.5.0/../../../../../../arm-none-eabi/lib/thumb/v6-m/nofp/libg_nano.a(lib_a-nano-vfprintf.o)
vfprintf                                          /usr/local/Cellar/arm-none-eabi-gcc@8/8.5.0_2/lib/arm-none-eabi-gcc/8/gcc/arm-none-eabi/8.5.0/../../../../../../arm-none-eabi/lib/thumb/v6-m/nofp/libg_nano.a(lib_a-nano-vfprintf.o)
via.c.d5b53b9f                                    /var/folders/x9/cy1bx1f960zd_7xhdrxmk_zm0000gn/T//ccbHuJM1debugobj
                                                  /var/folders/x9/cy1bx1f960zd_7xhdrxmk_zm0000gn/T//cc8Nwo3z.ltrans0.ltrans.o
via_eeprom_is_valid                               .build/obj_converter_cumulus_ta15_vial/quantum/via.o (symbol from plugin)
                                                  .build/obj_converter_cumulus_ta15_vial/quantum/eeconfig.o (symbol from plugin)
via_eeprom_set_valid                              .build/obj_converter_cumulus_ta15_vial/quantum/via.o (symbol from plugin)
                                                  .build/obj_converter_cumulus_ta15_vial/quantum/eeconfig.o (symbol from plugin)
via_get_layout_options                            .build/obj_converter_cumulus_ta15_vial/quantum/via.o (symbol from plugin)
via_init                                          .build/obj_converter_cumulus_ta15_vial/quantum/via.o (symbol from plugin)
                                                  .build/obj_converter_cumulus_ta15_vial/quantum/keyboard.o (symbol from plugin)
via_init_kb                                       .build/obj_converter_cumulus_ta15_vial/quantum/via.o (symbol from plugin)
via_set_layout_options                            .build/obj_converter_cumulus_ta15_vial/quantum/via.o (symbol from plugin)
via_set_layout_options_kb                         .build/obj_converter_cumulus_ta15_vial/quantum/via.o (symbol from plugin)
vial.c.4e4068c8                                   /var/folders/x9/cy1bx1f960zd_7xhdrxmk_zm0000gn/T//ccbHuJM1debugobj
                                                  /var/folders/x9/cy1bx1f960zd_7xhdrxmk_zm0000gn/T//cc8Nwo3z.ltrans1.ltrans.o
                                                  /var/folders/x9/cy1bx1f960zd_7xhdrxmk_zm0000gn/T//cc8Nwo3z.ltrans0.ltrans.o
vial_handle_cmd                                   .build/obj_converter_cumulus_ta15_vial/quantum/vial.o (symbol from plugin)
                                                  .build/obj_converter_cumulus_ta15_vial/quantum/via.o (symbol from plugin)
vial_init                                         .build/obj_converter_cumulus_ta15_vial/quantum/vial.o (symbol from plugin)
                                                  .build/obj_converter_cumulus_ta15_vial/quantum/keyboard.o (symbol from plugin)
vial_keycode_down                                 .build/obj_converter_cumulus_ta15_vial/quantum/vial.o (symbol from plugin)
                                                  .build/obj_converter_cumulus_ta15_vial/quantum/dynamic_keymap.o (symbol from plugin)
vial_keycode_tap                                  .build/obj_converter_cumulus_ta15_vial/quantum/vial.o (symbol from plugin)
                                                  .build/obj_converter_cumulus_ta15_vial/quantum/dynamic_keymap.o (symbol from plugin)
vial_keycode_up                                   .build/obj_converter_cumulus_ta15_vial/quantum/vial.o (symbol from plugin)
                                                  .build/obj_converter_cumulus_ta15_vial/quantum/dynamic_keymap.o (symbol from plugin)
vial_unlock_in_progress                           .build/obj_converter_cumulus_ta15_vial/quantum/vial.o (symbol from plugin)
                                                  .build/obj_converter_cumulus_ta15_vial/quantum/dynamic_keymap.o (symbol from plugin)
                                                  .build/obj_converter_cumulus_ta15_vial/quantum/via.o (symbol from plugin)
vial_unlocked                                     .build/obj_converter_cumulus_ta15_vial/quantum/vial.o (symbol from plugin)
                                                  .build/obj_converter_cumulus_ta15_vial/quantum/dynamic_keymap.o (symbol from plugin)
                                                  .build/obj_converter_cumulus_ta15_vial/quantum/via.o (symbol from plugin)
vprintf                                           /var/folders/x9/cy1bx1f960zd_7xhdrxmk_zm0000gn/T//cc8Nwo3z.ltrans0.ltrans.o
vsnprintf                                         /var/folders/x9/cy1bx1f960zd_7xhdrxmk_zm0000gn/T//cc8Nwo3z.ltrans0.ltrans.o
vsprintf                                          /var/folders/x9/cy1bx1f960zd_7xhdrxmk_zm0000gn/T//cc8Nwo3z.ltrans0.ltrans.o
wait.c.3b4dd040                                   /var/folders/x9/cy1bx1f960zd_7xhdrxmk_zm0000gn/T//ccbHuJM1debugobj
watchdog.c.c4e13931                               /var/folders/x9/cy1bx1f960zd_7xhdrxmk_zm0000gn/T//ccbHuJM1debugobj
                                                  /var/folders/x9/cy1bx1f960zd_7xhdrxmk_zm0000gn/T//cc8Nwo3z.ltrans0.ltrans.o
watchdog_caused_reboot                            .build/obj_converter_cumulus_ta15/./lib/pico-sdk/src/rp2_common/hardware_watchdog/watchdog.o (symbol from plugin)
watchdog_enable                                   .build/obj_converter_cumulus_ta15/./lib/pico-sdk/src/rp2_common/hardware_watchdog/watchdog.o (symbol from plugin)
watchdog_enable_caused_reboot                     .build/obj_converter_cumulus_ta15/./lib/pico-sdk/src/rp2_common/hardware_watchdog/watchdog.o (symbol from plugin)
watchdog_get_count                                .build/obj_converter_cumulus_ta15/./lib/pico-sdk/src/rp2_common/hardware_watchdog/watchdog.o (symbol from plugin)
watchdog_reboot                                   .build/obj_converter_cumulus_ta15/./lib/pico-sdk/src/rp2_common/hardware_watchdog/watchdog.o (symbol from plugin)
watchdog_start_tick                               .build/obj_converter_cumulus_ta15/./lib/pico-sdk/src/rp2_common/hardware_watchdog/watchdog.o (symbol from plugin)
                                                  .build/obj_converter_cumulus_ta15/./lib/pico-sdk/src/rp2_common/hardware_clocks/clocks.o (symbol from plugin)
watchdog_update                                   .build/obj_converter_cumulus_ta15/./lib/pico-sdk/src/rp2_common/hardware_watchdog/watchdog.o (symbol from plugin)
weak_mods.lto_priv.142                            /var/folders/x9/cy1bx1f960zd_7xhdrxmk_zm0000gn/T//cc8Nwo3z.ltrans0.ltrans.o
                                                  /var/folders/x9/cy1bx1f960zd_7xhdrxmk_zm0000gn/T//cc8Nwo3z.ltrans1.ltrans.o
wear_leveling.c.b99e979c                          /var/folders/x9/cy1bx1f960zd_7xhdrxmk_zm0000gn/T//ccbHuJM1debugobj
                                                  /var/folders/x9/cy1bx1f960zd_7xhdrxmk_zm0000gn/T//cc8Nwo3z.ltrans0.ltrans.o
wear_leveling_erase                               .build/obj_converter_cumulus_ta15_vial/wear_leveling.o (symbol from plugin)
                                                  .build/obj_converter_cumulus_ta15_vial/eeprom_wear_leveling.o (symbol from plugin)
wear_leveling_init                                .build/obj_converter_cumulus_ta15_vial/wear_leveling.o (symbol from plugin)
                                                  .build/obj_converter_cumulus_ta15_vial/eeprom_wear_leveling.o (symbol from plugin)
wear_leveling_read                                .build/obj_converter_cumulus_ta15_vial/wear_leveling.o (symbol from plugin)
                                                  .build/obj_converter_cumulus_ta15_vial/eeprom_wear_leveling.o (symbol from plugin)
wear_leveling_rp2040_flash.c.a5e82603             /var/folders/x9/cy1bx1f960zd_7xhdrxmk_zm0000gn/T//ccbHuJM1debugobj
                                                  /var/folders/x9/cy1bx1f960zd_7xhdrxmk_zm0000gn/T//cc8Nwo3z.ltrans0.ltrans.o
wear_leveling_write                               .build/obj_converter_cumulus_ta15_vial/wear_leveling.o (symbol from plugin)
                                                  .build/obj_converter_cumulus_ta15_vial/eeprom_wear_leveling.o (symbol from plugin)
xosc.c.fcdec69d                                   /var/folders/x9/cy1bx1f960zd_7xhdrxmk_zm0000gn/T//ccbHuJM1debugobj
                                                  /var/folders/x9/cy1bx1f960zd_7xhdrxmk_zm0000gn/T//cc8Nwo3z.ltrans0.ltrans.o
xosc_disable                                      .build/obj_converter_cumulus_ta15/./lib/pico-sdk/src/rp2_common/hardware_xosc/xosc.o (symbol from plugin)
xosc_dormant                                      .build/obj_converter_cumulus_ta15/./lib/pico-sdk/src/rp2_common/hardware_xosc/xosc.o (symbol from plugin)
xosc_init                                         .build/obj_converter_cumulus_ta15/./lib/pico-sdk/src/rp2_common/hardware_xosc/xosc.o (symbol from plugin)
                                                  .build/obj_converter_cumulus_ta15/./lib/pico-sdk/src/rp2_common/hardware_clocks/clocks.o (symbol from plugin)
