Archive member included to satisfy reference by file (symbol)

/usr/local/Cellar/avr-gcc@8/8.5.0/lib/avr-gcc/8/gcc/avr/8.5.0/../../../../../../avr/lib/avr5/libm.a(fixunssfsi.o)
                              .build/obj_xwhatsit_ibm_beamal_test_universal_alec/protocol/host.o (__fixunssfsi)
/usr/local/Cellar/avr-gcc@8/8.5.0/lib/avr-gcc/8/gcc/avr/8.5.0/../../../../../../avr/lib/avr5/libm.a(fp_split3.o)
                              /usr/local/Cellar/avr-gcc@8/8.5.0/lib/avr-gcc/8/gcc/avr/8.5.0/../../../../../../avr/lib/avr5/libm.a(fixunssfsi.o) (__fp_splitA)
/usr/local/Cellar/avr-gcc@8/8.5.0/lib/avr-gcc/8/gcc/avr/8.5.0/../../../../../../avr/lib/avr5/libm.a(fp_zero.o)
                              /usr/local/Cellar/avr-gcc@8/8.5.0/lib/avr-gcc/8/gcc/avr/8.5.0/../../../../../../avr/lib/avr5/libm.a(fixunssfsi.o) (__fp_zero)
/usr/local/Cellar/avr-gcc@8/8.5.0/lib/avr-gcc/8/gcc/avr/8.5.0/../../../../../../avr/lib/avr5/libm.a(mulsf3.o)
                              .build/obj_xwhatsit_ibm_beamal_test_universal_alec/protocol/host.o (__mulsf3)
/usr/local/Cellar/avr-gcc@8/8.5.0/lib/avr-gcc/8/gcc/avr/8.5.0/../../../../../../avr/lib/avr5/libm.a(mulsf3x.o)
                              /usr/local/Cellar/avr-gcc@8/8.5.0/lib/avr-gcc/8/gcc/avr/8.5.0/../../../../../../avr/lib/avr5/libm.a(mulsf3.o) (__mulsf3x)
/usr/local/Cellar/avr-gcc@8/8.5.0/lib/avr-gcc/8/gcc/avr/8.5.0/../../../../../../avr/lib/avr5/libm.a(fp_inf.o)
                              /usr/local/Cellar/avr-gcc@8/8.5.0/lib/avr-gcc/8/gcc/avr/8.5.0/../../../../../../avr/lib/avr5/libm.a(mulsf3x.o) (__fp_inf)
/usr/local/Cellar/avr-gcc@8/8.5.0/lib/avr-gcc/8/gcc/avr/8.5.0/../../../../../../avr/lib/avr5/libm.a(fp_nan.o)
                              /usr/local/Cellar/avr-gcc@8/8.5.0/lib/avr-gcc/8/gcc/avr/8.5.0/../../../../../../avr/lib/avr5/libm.a(mulsf3x.o) (__fp_nan)
/usr/local/Cellar/avr-gcc@8/8.5.0/lib/avr-gcc/8/gcc/avr/8.5.0/../../../../../../avr/lib/avr5/libm.a(fp_pscA.o)
                              /usr/local/Cellar/avr-gcc@8/8.5.0/lib/avr-gcc/8/gcc/avr/8.5.0/../../../../../../avr/lib/avr5/libm.a(mulsf3x.o) (__fp_pscA)
/usr/local/Cellar/avr-gcc@8/8.5.0/lib/avr-gcc/8/gcc/avr/8.5.0/../../../../../../avr/lib/avr5/libm.a(fp_pscB.o)
                              /usr/local/Cellar/avr-gcc@8/8.5.0/lib/avr-gcc/8/gcc/avr/8.5.0/../../../../../../avr/lib/avr5/libm.a(mulsf3x.o) (__fp_pscB)
/usr/local/Cellar/avr-gcc@8/8.5.0/lib/avr-gcc/8/gcc/avr/8.5.0/../../../../../../avr/lib/avr5/libm.a(fp_round.o)
                              /usr/local/Cellar/avr-gcc@8/8.5.0/lib/avr-gcc/8/gcc/avr/8.5.0/../../../../../../avr/lib/avr5/libm.a(mulsf3.o) (__fp_round)
/usr/local/Cellar/avr-gcc@8/8.5.0/lib/avr-gcc/8/gcc/avr/8.5.0/avr5/libgcc.a(_udivmodqi4.o)
                              .build/obj_xwhatsit_ibm_beamal_test_universal_alec/lufa.o (__udivmodqi4)
/usr/local/Cellar/avr-gcc@8/8.5.0/lib/avr-gcc/8/gcc/avr/8.5.0/avr5/libgcc.a(_udivmodhi4.o)
                              .build/obj_xwhatsit_ibm_beamal_test_universal_alec/keyboards/xwhatsit/matrix.o (__udivmodhi4)
/usr/local/Cellar/avr-gcc@8/8.5.0/lib/avr-gcc/8/gcc/avr/8.5.0/avr5/libgcc.a(_divmodhi4.o)
                              .build/obj_xwhatsit_ibm_beamal_test_universal_alec/quantum/process_keycode/process_unicode_common.o (__divmodhi4)
/usr/local/Cellar/avr-gcc@8/8.5.0/lib/avr-gcc/8/gcc/avr/8.5.0/avr5/libgcc.a(_udivmodsi4.o)
                              .build/obj_xwhatsit_ibm_beamal_test_universal_alec/keyboards/xwhatsit/matrix.o (__udivmodsi4)
/usr/local/Cellar/avr-gcc@8/8.5.0/lib/avr-gcc/8/gcc/avr/8.5.0/avr5/libgcc.a(_exit.o)
                              /usr/local/Cellar/avr-gcc@8/8.5.0/lib/avr-gcc/8/gcc/avr/8.5.0/../../../../../../avr/lib/avr5/crtatmega32u4.o (exit)
/usr/local/Cellar/avr-gcc@8/8.5.0/lib/avr-gcc/8/gcc/avr/8.5.0/avr5/libgcc.a(_tablejump2.o)
                              .build/obj_xwhatsit_ibm_beamal_test_universal_alec/keyboards/xwhatsit/util_comm.o (__tablejump2__)
/usr/local/Cellar/avr-gcc@8/8.5.0/lib/avr-gcc/8/gcc/avr/8.5.0/avr5/libgcc.a(_copy_data.o)
                              .build/obj_xwhatsit_ibm_beamal_test_universal_alec/keyboards/xwhatsit/matrix.o (__do_copy_data)
/usr/local/Cellar/avr-gcc@8/8.5.0/lib/avr-gcc/8/gcc/avr/8.5.0/avr5/libgcc.a(_clear_bss.o)
                              .build/obj_xwhatsit_ibm_beamal_test_universal_alec/keyboards/xwhatsit/matrix.o (__do_clear_bss)
/usr/local/Cellar/avr-gcc@8/8.5.0/lib/avr-gcc/8/gcc/avr/8.5.0/avr5/libgcc.a(_ctors.o)
                              .build/obj_xwhatsit_ibm_beamal_test_universal_alec/keyboards/xwhatsit/xwhatsit.o (__do_global_ctors)
/usr/local/Cellar/avr-gcc@8/8.5.0/lib/avr-gcc/8/gcc/avr/8.5.0/avr5/libgcc.a(_prologue.o)
                              .build/obj_xwhatsit_ibm_beamal_test_universal_alec/keyboards/xwhatsit/matrix.o (__prologue_saves__)
/usr/local/Cellar/avr-gcc@8/8.5.0/lib/avr-gcc/8/gcc/avr/8.5.0/avr5/libgcc.a(_epilogue.o)
                              .build/obj_xwhatsit_ibm_beamal_test_universal_alec/keyboards/xwhatsit/matrix.o (__epilogue_restores__)
/usr/local/Cellar/avr-gcc@8/8.5.0/lib/avr-gcc/8/gcc/avr/8.5.0/../../../../../../avr/lib/avr5/libc.a(memcmp.o)
                              .build/obj_xwhatsit_ibm_beamal_test_universal_alec/keyboards/xwhatsit/util_comm.o (memcmp)
/usr/local/Cellar/avr-gcc@8/8.5.0/lib/avr-gcc/8/gcc/avr/8.5.0/../../../../../../avr/lib/avr5/libc.a(memcpy.o)
                              .build/obj_xwhatsit_ibm_beamal_test_universal_alec/quantum/debounce/sym_defer_g.o (memcpy)
/usr/local/Cellar/avr-gcc@8/8.5.0/lib/avr-gcc/8/gcc/avr/8.5.0/../../../../../../avr/lib/avr5/libc.a(memset.o)
                              .build/obj_xwhatsit_ibm_beamal_test_universal_alec/keyboards/xwhatsit/matrix.o (memset)
/usr/local/Cellar/avr-gcc@8/8.5.0/lib/avr-gcc/8/gcc/avr/8.5.0/../../../../../../avr/lib/avr5/libatmega32u4.a(eerd_byte.o)
                              .build/obj_xwhatsit_ibm_beamal_test_universal_alec/quantum/eeconfig.o (eeprom_read_byte)
/usr/local/Cellar/avr-gcc@8/8.5.0/lib/avr-gcc/8/gcc/avr/8.5.0/../../../../../../avr/lib/avr5/libatmega32u4.a(eerd_dword.o)
                              .build/obj_xwhatsit_ibm_beamal_test_universal_alec/quantum/eeconfig.o (eeprom_read_dword)
/usr/local/Cellar/avr-gcc@8/8.5.0/lib/avr-gcc/8/gcc/avr/8.5.0/../../../../../../avr/lib/avr5/libatmega32u4.a(eerd_word.o)
                              .build/obj_xwhatsit_ibm_beamal_test_universal_alec/quantum/eeconfig.o (eeprom_read_word)
/usr/local/Cellar/avr-gcc@8/8.5.0/lib/avr-gcc/8/gcc/avr/8.5.0/../../../../../../avr/lib/avr5/libatmega32u4.a(eeupd_byte.o)
                              .build/obj_xwhatsit_ibm_beamal_test_universal_alec/keyboards/xwhatsit/util_comm.o (eeprom_update_byte)
/usr/local/Cellar/avr-gcc@8/8.5.0/lib/avr-gcc/8/gcc/avr/8.5.0/../../../../../../avr/lib/avr5/libatmega32u4.a(eeupd_dword.o)
                              .build/obj_xwhatsit_ibm_beamal_test_universal_alec/quantum/eeconfig.o (eeprom_update_dword)
/usr/local/Cellar/avr-gcc@8/8.5.0/lib/avr-gcc/8/gcc/avr/8.5.0/../../../../../../avr/lib/avr5/libatmega32u4.a(eeupd_word.o)
                              .build/obj_xwhatsit_ibm_beamal_test_universal_alec/quantum/eeconfig.o (eeprom_update_word)
/usr/local/Cellar/avr-gcc@8/8.5.0/lib/avr-gcc/8/gcc/avr/8.5.0/../../../../../../avr/lib/avr5/libatmega32u4.a(eerd_block.o)
                              /usr/local/Cellar/avr-gcc@8/8.5.0/lib/avr-gcc/8/gcc/avr/8.5.0/../../../../../../avr/lib/avr5/libatmega32u4.a(eerd_dword.o) (eeprom_read_blraw)

Allocating common symbols
Common symbol       size              file

cal_thresholds      0x1e              .build/obj_xwhatsit_ibm_beamal_test_universal_alec/keyboards/xwhatsit/matrix.o
USB_IsInitialized   0x1               .build/obj_xwhatsit_ibm_beamal_test_universal_alec/lib/lufa/LUFA/Drivers/USB/Core/USBTask.o
keymap_config       0x2               .build/obj_xwhatsit_ibm_beamal_test_universal_alec/quantum/bootmagic/magic.o
unicode_saved_num_lock
                    0x1               .build/obj_xwhatsit_ibm_beamal_test_universal_alec/quantum/process_keycode/process_unicode_common.o
unicode_config      0x4               .build/obj_xwhatsit_ibm_beamal_test_universal_alec/quantum/process_keycode/process_unicode_common.o
cal_tr_allone       0x2               .build/obj_xwhatsit_ibm_beamal_test_universal_alec/keyboards/xwhatsit/matrix.o
USB_DeviceState     0x1               .build/obj_xwhatsit_ibm_beamal_test_universal_alec/lib/lufa/LUFA/Drivers/USB/Core/USBTask.o
previous_matrix     0x10              .build/obj_xwhatsit_ibm_beamal_test_universal_alec/keyboards/xwhatsit/matrix.o
initial_fp          0x2               .build/obj_xwhatsit_ibm_beamal_test_universal_alec/keyboards/xwhatsit/xwhatsit.o
unicode_saved_mods  0x1               .build/obj_xwhatsit_ibm_beamal_test_universal_alec/quantum/process_keycode/process_unicode_common.o
USB_Device_ConfigurationNumber
                    0x1               .build/obj_xwhatsit_ibm_beamal_test_universal_alec/lib/lufa/LUFA/Drivers/USB/Core/DeviceStandardReq.o
cal_tr_allzero      0x2               .build/obj_xwhatsit_ibm_beamal_test_universal_alec/keyboards/xwhatsit/matrix.o
raw_matrix          0x10              .build/obj_xwhatsit_ibm_beamal_test_universal_alec/quantum/matrix_common.o
USB_Device_CurrentlySelfPowered
                    0x1               .build/obj_xwhatsit_ibm_beamal_test_universal_alec/lib/lufa/LUFA/Drivers/USB/Core/DeviceStandardReq.o
assigned_to_threshold
                    0xf0              .build/obj_xwhatsit_ibm_beamal_test_universal_alec/keyboards/xwhatsit/matrix.o
matrix              0x10              .build/obj_xwhatsit_ibm_beamal_test_universal_alec/quantum/matrix_common.o
USB_ControlRequest  0x8               .build/obj_xwhatsit_ibm_beamal_test_universal_alec/lib/lufa/LUFA/Drivers/USB/Core/USBTask.o
tp_buttons          0x2               .build/obj_xwhatsit_ibm_beamal_test_universal_alec/quantum/action.o
unicode_saved_caps_lock
                    0x1               .build/obj_xwhatsit_ibm_beamal_test_universal_alec/quantum/process_keycode/process_unicode_common.o
cal_time            0x2               .build/obj_xwhatsit_ibm_beamal_test_universal_alec/keyboards/xwhatsit/matrix.o
USB_Device_RemoteWakeupEnabled
                    0x1               .build/obj_xwhatsit_ibm_beamal_test_universal_alec/lib/lufa/LUFA/Drivers/USB/Core/DeviceStandardReq.o
haptic_config       0x4               .build/obj_xwhatsit_ibm_beamal_test_universal_alec/quantum/haptic.o
timer_count         0x4               .build/obj_xwhatsit_ibm_beamal_test_universal_alec/platforms/avr/timer.o

Discarded input sections

 .data          0x00000000        0x0 /usr/local/Cellar/avr-gcc@8/8.5.0/lib/avr-gcc/8/gcc/avr/8.5.0/../../../../../../avr/lib/avr5/crtatmega32u4.o
 .bss           0x00000000        0x0 /usr/local/Cellar/avr-gcc@8/8.5.0/lib/avr-gcc/8/gcc/avr/8.5.0/../../../../../../avr/lib/avr5/crtatmega32u4.o
 .text          0x00000000        0x0 .build/obj_xwhatsit_ibm_beamal_test_universal_alec/keyboards/xwhatsit/matrix.o
 .data          0x00000000        0x0 .build/obj_xwhatsit_ibm_beamal_test_universal_alec/keyboards/xwhatsit/matrix.o
 .bss           0x00000000        0x0 .build/obj_xwhatsit_ibm_beamal_test_universal_alec/keyboards/xwhatsit/matrix.o
 .text.read_rows
                0x00000000       0x40 .build/obj_xwhatsit_ibm_beamal_test_universal_alec/keyboards/xwhatsit/matrix.o
 .text.test_multiple
                0x00000000       0xa2 .build/obj_xwhatsit_ibm_beamal_test_universal_alec/keyboards/xwhatsit/matrix.o
 .text.test_col_print_data_v2
                0x00000000      0x17a .build/obj_xwhatsit_ibm_beamal_test_universal_alec/keyboards/xwhatsit/matrix.o
 .text.test_v2  0x00000000       0xca .build/obj_xwhatsit_ibm_beamal_test_universal_alec/keyboards/xwhatsit/matrix.o
 .text.measure_middle_settled
                0x00000000       0x7a .build/obj_xwhatsit_ibm_beamal_test_universal_alec/keyboards/xwhatsit/matrix.o
 .text.tracking_test
                0x00000000      0x160 .build/obj_xwhatsit_ibm_beamal_test_universal_alec/keyboards/xwhatsit/matrix.o
 .progmem.data.__c.6819
                0x00000000       0x2b .build/obj_xwhatsit_ibm_beamal_test_universal_alec/keyboards/xwhatsit/matrix.o
 .progmem.data.__c.6808
                0x00000000        0x7 .build/obj_xwhatsit_ibm_beamal_test_universal_alec/keyboards/xwhatsit/matrix.o
 .progmem.data.__c.6806
                0x00000000        0xb .build/obj_xwhatsit_ibm_beamal_test_universal_alec/keyboards/xwhatsit/matrix.o
 .progmem.data.__c.6804
                0x00000000        0x7 .build/obj_xwhatsit_ibm_beamal_test_universal_alec/keyboards/xwhatsit/matrix.o
 .progmem.data.__c.6802
                0x00000000        0xd .build/obj_xwhatsit_ibm_beamal_test_universal_alec/keyboards/xwhatsit/matrix.o
 .progmem.data.__c.6793
                0x00000000       0x15 .build/obj_xwhatsit_ibm_beamal_test_universal_alec/keyboards/xwhatsit/matrix.o
 .progmem.data.__c.6745
                0x00000000        0xb .build/obj_xwhatsit_ibm_beamal_test_universal_alec/keyboards/xwhatsit/matrix.o
 .progmem.data.__c.6736
                0x00000000       0x17 .build/obj_xwhatsit_ibm_beamal_test_universal_alec/keyboards/xwhatsit/matrix.o
 .progmem.data.__c.6733
                0x00000000        0x7 .build/obj_xwhatsit_ibm_beamal_test_universal_alec/keyboards/xwhatsit/matrix.o
 .progmem.data.__c.6731
                0x00000000        0xb .build/obj_xwhatsit_ibm_beamal_test_universal_alec/keyboards/xwhatsit/matrix.o
 .progmem.data.__c.6729
                0x00000000        0x7 .build/obj_xwhatsit_ibm_beamal_test_universal_alec/keyboards/xwhatsit/matrix.o
 .progmem.data.__c.6727
                0x00000000        0xd .build/obj_xwhatsit_ibm_beamal_test_universal_alec/keyboards/xwhatsit/matrix.o
 .progmem.data.__c.6718
                0x00000000       0x15 .build/obj_xwhatsit_ibm_beamal_test_universal_alec/keyboards/xwhatsit/matrix.o
 .progmem.data.__c.6712
                0x00000000        0x2 .build/obj_xwhatsit_ibm_beamal_test_universal_alec/keyboards/xwhatsit/matrix.o
 .progmem.data.__c.6704
                0x00000000        0x3 .build/obj_xwhatsit_ibm_beamal_test_universal_alec/keyboards/xwhatsit/matrix.o
 .progmem.data.__c.6702
                0x00000000        0x2 .build/obj_xwhatsit_ibm_beamal_test_universal_alec/keyboards/xwhatsit/matrix.o
 .progmem.data.__c.6700
                0x00000000        0x2 .build/obj_xwhatsit_ibm_beamal_test_universal_alec/keyboards/xwhatsit/matrix.o
 .progmem.data.__c.6695
                0x00000000        0x3 .build/obj_xwhatsit_ibm_beamal_test_universal_alec/keyboards/xwhatsit/matrix.o
 .progmem.data.__c.6693
                0x00000000        0x2 .build/obj_xwhatsit_ibm_beamal_test_universal_alec/keyboards/xwhatsit/matrix.o
 .bss.data.6667
                0x00000000      0x100 .build/obj_xwhatsit_ibm_beamal_test_universal_alec/keyboards/xwhatsit/matrix.o
 .bss.sums.6668
                0x00000000       0x48 .build/obj_xwhatsit_ibm_beamal_test_universal_alec/keyboards/xwhatsit/matrix.o
 .progmem.data.__c.6665
                0x00000000        0x5 .build/obj_xwhatsit_ibm_beamal_test_universal_alec/keyboards/xwhatsit/matrix.o
 .text          0x00000000        0x0 .build/obj_xwhatsit_ibm_beamal_test_universal_alec/keyboards/xwhatsit/util_comm.o
 .data          0x00000000        0x0 .build/obj_xwhatsit_ibm_beamal_test_universal_alec/keyboards/xwhatsit/util_comm.o
 .bss           0x00000000        0x0 .build/obj_xwhatsit_ibm_beamal_test_universal_alec/keyboards/xwhatsit/util_comm.o
 .text          0x00000000        0x0 .build/obj_xwhatsit_ibm_beamal_test_universal_alec/keyboards/xwhatsit/xwhatsit.o
 .data          0x00000000        0x0 .build/obj_xwhatsit_ibm_beamal_test_universal_alec/keyboards/xwhatsit/xwhatsit.o
 .bss           0x00000000        0x0 .build/obj_xwhatsit_ibm_beamal_test_universal_alec/keyboards/xwhatsit/xwhatsit.o
 .text          0x00000000        0x0 .build/obj_xwhatsit_ibm_beamal_test_universal_alec/keyboards/xwhatsit/ibm/beamal_test/universal/universal.o
 .data          0x00000000        0x0 .build/obj_xwhatsit_ibm_beamal_test_universal_alec/keyboards/xwhatsit/ibm/beamal_test/universal/universal.o
 .bss           0x00000000        0x0 .build/obj_xwhatsit_ibm_beamal_test_universal_alec/keyboards/xwhatsit/ibm/beamal_test/universal/universal.o
 .rodata.str1.1
                0x00000000       0x39 .build/obj_xwhatsit_ibm_beamal_test_universal_alec/keyboards/xwhatsit/ibm/beamal_test/universal/universal.o
 .data.KEYBOARD_FILENAME
                0x00000000        0x2 .build/obj_xwhatsit_ibm_beamal_test_universal_alec/keyboards/xwhatsit/ibm/beamal_test/universal/universal.o
 .text          0x00000000        0x0 .build/obj_xwhatsit_ibm_beamal_test_universal_alec/.build/obj_xwhatsit_ibm_beamal_test_universal/src/default_keyboard.o
 .data          0x00000000        0x0 .build/obj_xwhatsit_ibm_beamal_test_universal_alec/.build/obj_xwhatsit_ibm_beamal_test_universal/src/default_keyboard.o
 .bss           0x00000000        0x0 .build/obj_xwhatsit_ibm_beamal_test_universal_alec/.build/obj_xwhatsit_ibm_beamal_test_universal/src/default_keyboard.o
 .debug_info    0x00000000      0x804 .build/obj_xwhatsit_ibm_beamal_test_universal_alec/.build/obj_xwhatsit_ibm_beamal_test_universal/src/default_keyboard.o
 .debug_abbrev  0x00000000      0x18b .build/obj_xwhatsit_ibm_beamal_test_universal_alec/.build/obj_xwhatsit_ibm_beamal_test_universal/src/default_keyboard.o
 .debug_aranges
                0x00000000       0x18 .build/obj_xwhatsit_ibm_beamal_test_universal_alec/.build/obj_xwhatsit_ibm_beamal_test_universal/src/default_keyboard.o
 .debug_line    0x00000000      0x297 .build/obj_xwhatsit_ibm_beamal_test_universal_alec/.build/obj_xwhatsit_ibm_beamal_test_universal/src/default_keyboard.o
 .debug_str     0x00000000      0x764 .build/obj_xwhatsit_ibm_beamal_test_universal_alec/.build/obj_xwhatsit_ibm_beamal_test_universal/src/default_keyboard.o
 .comment       0x00000000       0x25 .build/obj_xwhatsit_ibm_beamal_test_universal_alec/.build/obj_xwhatsit_ibm_beamal_test_universal/src/default_keyboard.o
 .text          0x00000000        0x0 .build/obj_xwhatsit_ibm_beamal_test_universal_alec/quantum/keymap_introspection.o
 .data          0x00000000        0x0 .build/obj_xwhatsit_ibm_beamal_test_universal_alec/quantum/keymap_introspection.o
 .bss           0x00000000        0x0 .build/obj_xwhatsit_ibm_beamal_test_universal_alec/quantum/keymap_introspection.o
 .text.keymap_layer_count_raw
                0x00000000        0x4 .build/obj_xwhatsit_ibm_beamal_test_universal_alec/quantum/keymap_introspection.o
 .text.keymap_layer_count
                0x00000000        0x4 .build/obj_xwhatsit_ibm_beamal_test_universal_alec/quantum/keymap_introspection.o
 .text.keycode_at_keymap_location
                0x00000000        0x6 .build/obj_xwhatsit_ibm_beamal_test_universal_alec/quantum/keymap_introspection.o
 .text          0x00000000        0x0 .build/obj_xwhatsit_ibm_beamal_test_universal_alec/quantum/quantum.o
 .data          0x00000000        0x0 .build/obj_xwhatsit_ibm_beamal_test_universal_alec/quantum/quantum.o
 .bss           0x00000000        0x0 .build/obj_xwhatsit_ibm_beamal_test_universal_alec/quantum/quantum.o
 .text.process_record_user
                0x00000000        0x4 .build/obj_xwhatsit_ibm_beamal_test_universal_alec/quantum/quantum.o
 .text.set_single_persistent_default_layer
                0x00000000       0x24 .build/obj_xwhatsit_ibm_beamal_test_universal_alec/quantum/quantum.o
 .text.update_tri_layer_state
                0x00000000       0x4a .build/obj_xwhatsit_ibm_beamal_test_universal_alec/quantum/quantum.o
 .text.update_tri_layer
                0x00000000       0x18 .build/obj_xwhatsit_ibm_beamal_test_universal_alec/quantum/quantum.o
 .text.startup_user
                0x00000000        0x2 .build/obj_xwhatsit_ibm_beamal_test_universal_alec/quantum/quantum.o
 .text.get_numeric_str
                0x00000000       0xb0 .build/obj_xwhatsit_ibm_beamal_test_universal_alec/quantum/quantum.o
 .text.get_u8_str
                0x00000000       0x3a .build/obj_xwhatsit_ibm_beamal_test_universal_alec/quantum/quantum.o
 .text.get_u16_str
                0x00000000       0x42 .build/obj_xwhatsit_ibm_beamal_test_universal_alec/quantum/quantum.o
 .bss.buf.6700  0x00000000        0x6 .build/obj_xwhatsit_ibm_beamal_test_universal_alec/quantum/quantum.o
 .bss.last_pad.6702
                0x00000000        0x1 .build/obj_xwhatsit_ibm_beamal_test_universal_alec/quantum/quantum.o
 .data.last_num.6701
                0x00000000        0x2 .build/obj_xwhatsit_ibm_beamal_test_universal_alec/quantum/quantum.o
 .bss.buf.6693  0x00000000        0x4 .build/obj_xwhatsit_ibm_beamal_test_universal_alec/quantum/quantum.o
 .bss.last_pad.6695
                0x00000000        0x1 .build/obj_xwhatsit_ibm_beamal_test_universal_alec/quantum/quantum.o
 .data.last_num.6694
                0x00000000        0x1 .build/obj_xwhatsit_ibm_beamal_test_universal_alec/quantum/quantum.o
 .text          0x00000000        0x0 .build/obj_xwhatsit_ibm_beamal_test_universal_alec/quantum/bitwise.o
 .data          0x00000000        0x0 .build/obj_xwhatsit_ibm_beamal_test_universal_alec/quantum/bitwise.o
 .bss           0x00000000        0x0 .build/obj_xwhatsit_ibm_beamal_test_universal_alec/quantum/bitwise.o
 .text.bitpop   0x00000000       0x14 .build/obj_xwhatsit_ibm_beamal_test_universal_alec/quantum/bitwise.o
 .text.bitpop16
                0x00000000       0x18 .build/obj_xwhatsit_ibm_beamal_test_universal_alec/quantum/bitwise.o
 .text.bitpop32
                0x00000000       0x3a .build/obj_xwhatsit_ibm_beamal_test_universal_alec/quantum/bitwise.o
 .text.biton    0x00000000       0x22 .build/obj_xwhatsit_ibm_beamal_test_universal_alec/quantum/bitwise.o
 .text.biton16  0x00000000       0x48 .build/obj_xwhatsit_ibm_beamal_test_universal_alec/quantum/bitwise.o
 .text.biton32  0x00000000       0x9a .build/obj_xwhatsit_ibm_beamal_test_universal_alec/quantum/bitwise.o
 .text.bitrev32
                0x00000000       0x42 .build/obj_xwhatsit_ibm_beamal_test_universal_alec/quantum/bitwise.o
 .text          0x00000000        0x0 .build/obj_xwhatsit_ibm_beamal_test_universal_alec/quantum/led.o
 .data          0x00000000        0x0 .build/obj_xwhatsit_ibm_beamal_test_universal_alec/quantum/led.o
 .bss           0x00000000        0x0 .build/obj_xwhatsit_ibm_beamal_test_universal_alec/quantum/led.o
 .text.last_led_activity_time
                0x00000000       0x12 .build/obj_xwhatsit_ibm_beamal_test_universal_alec/quantum/led.o
 .text.last_led_activity_elapsed
                0x00000000       0x16 .build/obj_xwhatsit_ibm_beamal_test_universal_alec/quantum/led.o
 .text.led_update_kb
                0x00000000       0x2e .build/obj_xwhatsit_ibm_beamal_test_universal_alec/quantum/led.o
 .text          0x00000000        0x0 .build/obj_xwhatsit_ibm_beamal_test_universal_alec/quantum/action.o
 .data          0x00000000        0x0 .build/obj_xwhatsit_ibm_beamal_test_universal_alec/quantum/action.o
 .bss           0x00000000        0x0 .build/obj_xwhatsit_ibm_beamal_test_universal_alec/quantum/action.o
 .text.process_record_quantum
                0x00000000        0x4 .build/obj_xwhatsit_ibm_beamal_test_universal_alec/quantum/action.o
 .text.pre_process_record_quantum
                0x00000000        0x6 .build/obj_xwhatsit_ibm_beamal_test_universal_alec/quantum/action.o
 .text.post_process_record_quantum
                0x00000000        0x2 .build/obj_xwhatsit_ibm_beamal_test_universal_alec/quantum/action.o
 .text.process_record_nocache
                0x00000000       0x10 .build/obj_xwhatsit_ibm_beamal_test_universal_alec/quantum/action.o
 .text.debug_action
                0x00000000        0x2 .build/obj_xwhatsit_ibm_beamal_test_universal_alec/quantum/action.o
 COMMON         0x00000000        0x2 .build/obj_xwhatsit_ibm_beamal_test_universal_alec/quantum/action.o
 .text          0x00000000        0x0 .build/obj_xwhatsit_ibm_beamal_test_universal_alec/quantum/action_layer.o
 .data          0x00000000        0x0 .build/obj_xwhatsit_ibm_beamal_test_universal_alec/quantum/action_layer.o
 .bss           0x00000000        0x0 .build/obj_xwhatsit_ibm_beamal_test_universal_alec/quantum/action_layer.o
 .text.layer_state_cmp
                0x00000000       0x28 .build/obj_xwhatsit_ibm_beamal_test_universal_alec/quantum/action_layer.o
 .text.layer_state_is
                0x00000000       0x10 .build/obj_xwhatsit_ibm_beamal_test_universal_alec/quantum/action_layer.o
 .text          0x00000000        0x0 .build/obj_xwhatsit_ibm_beamal_test_universal_alec/quantum/action_tapping.o
 .data          0x00000000        0x0 .build/obj_xwhatsit_ibm_beamal_test_universal_alec/quantum/action_tapping.o
 .bss           0x00000000        0x0 .build/obj_xwhatsit_ibm_beamal_test_universal_alec/quantum/action_tapping.o
 .text          0x00000000        0x0 .build/obj_xwhatsit_ibm_beamal_test_universal_alec/quantum/action_util.o
 .data          0x00000000        0x0 .build/obj_xwhatsit_ibm_beamal_test_universal_alec/quantum/action_util.o
 .bss           0x00000000        0x0 .build/obj_xwhatsit_ibm_beamal_test_universal_alec/quantum/action_util.o
 .text.is_oneshot_enabled
                0x00000000        0xc .build/obj_xwhatsit_ibm_beamal_test_universal_alec/quantum/action_util.o
 .text.get_weak_mods
                0x00000000        0x6 .build/obj_xwhatsit_ibm_beamal_test_universal_alec/quantum/action_util.o
 .text.set_weak_mods
                0x00000000        0x6 .build/obj_xwhatsit_ibm_beamal_test_universal_alec/quantum/action_util.o
 .text.clear_oneshot_locked_mods
                0x00000000       0x14 .build/obj_xwhatsit_ibm_beamal_test_universal_alec/quantum/action_util.o
 .text.add_oneshot_mods
                0x00000000       0x2e .build/obj_xwhatsit_ibm_beamal_test_universal_alec/quantum/action_util.o
 .text.del_oneshot_mods
                0x00000000       0x32 .build/obj_xwhatsit_ibm_beamal_test_universal_alec/quantum/action_util.o
 .text.has_anymod
                0x00000000        0xa .build/obj_xwhatsit_ibm_beamal_test_universal_alec/quantum/action_util.o
 .text          0x00000000        0x0 .build/obj_xwhatsit_ibm_beamal_test_universal_alec/quantum/eeconfig.o
 .data          0x00000000        0x0 .build/obj_xwhatsit_ibm_beamal_test_universal_alec/quantum/eeconfig.o
 .bss           0x00000000        0x0 .build/obj_xwhatsit_ibm_beamal_test_universal_alec/quantum/eeconfig.o
 .text.eeconfig_enable
                0x00000000        0xe .build/obj_xwhatsit_ibm_beamal_test_universal_alec/quantum/eeconfig.o
 .text.eeconfig_is_disabled
                0x00000000       0x14 .build/obj_xwhatsit_ibm_beamal_test_universal_alec/quantum/eeconfig.o
 .text.eeconfig_update_debug
                0x00000000        0xc .build/obj_xwhatsit_ibm_beamal_test_universal_alec/quantum/eeconfig.o
 .text.eeconfig_update_default_layer
                0x00000000        0xc .build/obj_xwhatsit_ibm_beamal_test_universal_alec/quantum/eeconfig.o
 .text.eeconfig_read_audio
                0x00000000        0xa .build/obj_xwhatsit_ibm_beamal_test_universal_alec/quantum/eeconfig.o
 .text.eeconfig_update_audio
                0x00000000        0xc .build/obj_xwhatsit_ibm_beamal_test_universal_alec/quantum/eeconfig.o
 .text.eeconfig_read_kb
                0x00000000        0xa .build/obj_xwhatsit_ibm_beamal_test_universal_alec/quantum/eeconfig.o
 .text.eeconfig_read_user
                0x00000000        0xa .build/obj_xwhatsit_ibm_beamal_test_universal_alec/quantum/eeconfig.o
 .text.eeconfig_read_handedness
                0x00000000       0x14 .build/obj_xwhatsit_ibm_beamal_test_universal_alec/quantum/eeconfig.o
 .text          0x00000000        0x0 .build/obj_xwhatsit_ibm_beamal_test_universal_alec/quantum/keyboard.o
 .data          0x00000000        0x0 .build/obj_xwhatsit_ibm_beamal_test_universal_alec/quantum/keyboard.o
 .bss           0x00000000        0x0 .build/obj_xwhatsit_ibm_beamal_test_universal_alec/quantum/keyboard.o
 .text.last_input_activity_time
                0x00000000       0x12 .build/obj_xwhatsit_ibm_beamal_test_universal_alec/quantum/keyboard.o
 .text.last_input_activity_elapsed
                0x00000000       0x16 .build/obj_xwhatsit_ibm_beamal_test_universal_alec/quantum/keyboard.o
 .text.last_matrix_activity_time
                0x00000000       0x12 .build/obj_xwhatsit_ibm_beamal_test_universal_alec/quantum/keyboard.o
 .text.last_matrix_activity_elapsed
                0x00000000       0x16 .build/obj_xwhatsit_ibm_beamal_test_universal_alec/quantum/keyboard.o
 .text.last_encoder_activity_time
                0x00000000       0x12 .build/obj_xwhatsit_ibm_beamal_test_universal_alec/quantum/keyboard.o
 .text.last_encoder_activity_elapsed
                0x00000000       0x16 .build/obj_xwhatsit_ibm_beamal_test_universal_alec/quantum/keyboard.o
 .text.last_encoder_activity_trigger
                0x00000000       0x26 .build/obj_xwhatsit_ibm_beamal_test_universal_alec/quantum/keyboard.o
 .text.keyboard_post_init_user
                0x00000000        0x2 .build/obj_xwhatsit_ibm_beamal_test_universal_alec/quantum/keyboard.o
 .text.keyboard_post_init_kb
                0x00000000        0x6 .build/obj_xwhatsit_ibm_beamal_test_universal_alec/quantum/keyboard.o
 .text.is_keyboard_left
                0x00000000        0x6 .build/obj_xwhatsit_ibm_beamal_test_universal_alec/quantum/keyboard.o
 .text.switch_events
                0x00000000        0x2 .build/obj_xwhatsit_ibm_beamal_test_universal_alec/quantum/keyboard.o
 .text.quantum_task
                0x00000000        0x6 .build/obj_xwhatsit_ibm_beamal_test_universal_alec/quantum/keyboard.o
 .bss.last_encoder_modification_time
                0x00000000        0x4 .build/obj_xwhatsit_ibm_beamal_test_universal_alec/quantum/keyboard.o
 .text          0x00000000        0x0 .build/obj_xwhatsit_ibm_beamal_test_universal_alec/quantum/keymap_common.o
 .data          0x00000000        0x0 .build/obj_xwhatsit_ibm_beamal_test_universal_alec/quantum/keymap_common.o
 .bss           0x00000000        0x0 .build/obj_xwhatsit_ibm_beamal_test_universal_alec/quantum/keymap_common.o
 .text          0x00000000        0x0 .build/obj_xwhatsit_ibm_beamal_test_universal_alec/quantum/keycode_config.o
 .data          0x00000000        0x0 .build/obj_xwhatsit_ibm_beamal_test_universal_alec/quantum/keycode_config.o
 .bss           0x00000000        0x0 .build/obj_xwhatsit_ibm_beamal_test_universal_alec/quantum/keycode_config.o
 .text          0x00000000        0x0 .build/obj_xwhatsit_ibm_beamal_test_universal_alec/quantum/sync_timer.o
 .data          0x00000000        0x0 .build/obj_xwhatsit_ibm_beamal_test_universal_alec/quantum/sync_timer.o
 .bss           0x00000000        0x0 .build/obj_xwhatsit_ibm_beamal_test_universal_alec/quantum/sync_timer.o
 .debug_info    0x00000000       0x7c .build/obj_xwhatsit_ibm_beamal_test_universal_alec/quantum/sync_timer.o
 .debug_abbrev  0x00000000       0x4f .build/obj_xwhatsit_ibm_beamal_test_universal_alec/quantum/sync_timer.o
 .debug_aranges
                0x00000000       0x18 .build/obj_xwhatsit_ibm_beamal_test_universal_alec/quantum/sync_timer.o
 .debug_line    0x00000000       0x6c .build/obj_xwhatsit_ibm_beamal_test_universal_alec/quantum/sync_timer.o
 .debug_str     0x00000000      0x1e2 .build/obj_xwhatsit_ibm_beamal_test_universal_alec/quantum/sync_timer.o
 .comment       0x00000000       0x25 .build/obj_xwhatsit_ibm_beamal_test_universal_alec/quantum/sync_timer.o
 .text          0x00000000        0x0 .build/obj_xwhatsit_ibm_beamal_test_universal_alec/quantum/logging/debug.o
 .data          0x00000000        0x0 .build/obj_xwhatsit_ibm_beamal_test_universal_alec/quantum/logging/debug.o
 .bss           0x00000000        0x0 .build/obj_xwhatsit_ibm_beamal_test_universal_alec/quantum/logging/debug.o
 .text          0x00000000        0x0 .build/obj_xwhatsit_ibm_beamal_test_universal_alec/quantum/logging/sendchar.o
 .data          0x00000000        0x0 .build/obj_xwhatsit_ibm_beamal_test_universal_alec/quantum/logging/sendchar.o
 .bss           0x00000000        0x0 .build/obj_xwhatsit_ibm_beamal_test_universal_alec/quantum/logging/sendchar.o
 .text.sendchar
                0x00000000        0x4 .build/obj_xwhatsit_ibm_beamal_test_universal_alec/quantum/logging/sendchar.o
 .debug_info    0x00000000       0xa8 .build/obj_xwhatsit_ibm_beamal_test_universal_alec/quantum/logging/sendchar.o
 .debug_abbrev  0x00000000       0x6b .build/obj_xwhatsit_ibm_beamal_test_universal_alec/quantum/logging/sendchar.o
 .debug_loc     0x00000000       0x25 .build/obj_xwhatsit_ibm_beamal_test_universal_alec/quantum/logging/sendchar.o
 .debug_aranges
                0x00000000       0x20 .build/obj_xwhatsit_ibm_beamal_test_universal_alec/quantum/logging/sendchar.o
 .debug_ranges  0x00000000       0x10 .build/obj_xwhatsit_ibm_beamal_test_universal_alec/quantum/logging/sendchar.o
 .debug_line    0x00000000       0x9e .build/obj_xwhatsit_ibm_beamal_test_universal_alec/quantum/logging/sendchar.o
 .debug_str     0x00000000      0x1e5 .build/obj_xwhatsit_ibm_beamal_test_universal_alec/quantum/logging/sendchar.o
 .comment       0x00000000       0x25 .build/obj_xwhatsit_ibm_beamal_test_universal_alec/quantum/logging/sendchar.o
 .debug_frame   0x00000000       0x24 .build/obj_xwhatsit_ibm_beamal_test_universal_alec/quantum/logging/sendchar.o
 .text          0x00000000        0x0 .build/obj_xwhatsit_ibm_beamal_test_universal_alec/quantum/bootmagic/bootmagic_lite.o
 .data          0x00000000        0x0 .build/obj_xwhatsit_ibm_beamal_test_universal_alec/quantum/bootmagic/bootmagic_lite.o
 .bss           0x00000000        0x0 .build/obj_xwhatsit_ibm_beamal_test_universal_alec/quantum/bootmagic/bootmagic_lite.o
 .text          0x00000000        0x0 .build/obj_xwhatsit_ibm_beamal_test_universal_alec/quantum/bootmagic/magic.o
 .data          0x00000000        0x0 .build/obj_xwhatsit_ibm_beamal_test_universal_alec/quantum/bootmagic/magic.o
 .bss           0x00000000        0x0 .build/obj_xwhatsit_ibm_beamal_test_universal_alec/quantum/bootmagic/magic.o
 .text.bootmagic
                0x00000000        0x2 .build/obj_xwhatsit_ibm_beamal_test_universal_alec/quantum/bootmagic/magic.o
 .text          0x00000000        0x0 .build/obj_xwhatsit_ibm_beamal_test_universal_alec/quantum/matrix_common.o
 .data          0x00000000        0x0 .build/obj_xwhatsit_ibm_beamal_test_universal_alec/quantum/matrix_common.o
 .bss           0x00000000        0x0 .build/obj_xwhatsit_ibm_beamal_test_universal_alec/quantum/matrix_common.o
 .text.matrix_rows
                0x00000000        0x4 .build/obj_xwhatsit_ibm_beamal_test_universal_alec/quantum/matrix_common.o
 .text.matrix_cols
                0x00000000        0x4 .build/obj_xwhatsit_ibm_beamal_test_universal_alec/quantum/matrix_common.o
 .text.matrix_is_on
                0x00000000       0x2c .build/obj_xwhatsit_ibm_beamal_test_universal_alec/quantum/matrix_common.o
 .text.matrix_io_delay
                0x00000000        0x8 .build/obj_xwhatsit_ibm_beamal_test_universal_alec/quantum/matrix_common.o
 .text.matrix_output_select_delay
                0x00000000        0x4 .build/obj_xwhatsit_ibm_beamal_test_universal_alec/quantum/matrix_common.o
 .text.matrix_output_unselect_delay
                0x00000000        0x6 .build/obj_xwhatsit_ibm_beamal_test_universal_alec/quantum/matrix_common.o
 .text.matrix_init_custom
                0x00000000        0x2 .build/obj_xwhatsit_ibm_beamal_test_universal_alec/quantum/matrix_common.o
 .text.matrix_scan_custom
                0x00000000        0x4 .build/obj_xwhatsit_ibm_beamal_test_universal_alec/quantum/matrix_common.o
 .text.peek_matrix
                0x00000000       0x36 .build/obj_xwhatsit_ibm_beamal_test_universal_alec/quantum/matrix_common.o
 .text          0x00000000        0x0 .build/obj_xwhatsit_ibm_beamal_test_universal_alec/quantum/debounce/sym_defer_g.o
 .data          0x00000000        0x0 .build/obj_xwhatsit_ibm_beamal_test_universal_alec/quantum/debounce/sym_defer_g.o
 .bss           0x00000000        0x0 .build/obj_xwhatsit_ibm_beamal_test_universal_alec/quantum/debounce/sym_defer_g.o
 .text.debounce_free
                0x00000000        0x2 .build/obj_xwhatsit_ibm_beamal_test_universal_alec/quantum/debounce/sym_defer_g.o
 .text          0x00000000        0x0 .build/obj_xwhatsit_ibm_beamal_test_universal_alec/quantum/main.o
 .data          0x00000000        0x0 .build/obj_xwhatsit_ibm_beamal_test_universal_alec/quantum/main.o
 .bss           0x00000000        0x0 .build/obj_xwhatsit_ibm_beamal_test_universal_alec/quantum/main.o
 .text          0x00000000        0x0 .build/obj_xwhatsit_ibm_beamal_test_universal_alec/solenoid.o
 .data          0x00000000        0x0 .build/obj_xwhatsit_ibm_beamal_test_universal_alec/solenoid.o
 .bss           0x00000000        0x0 .build/obj_xwhatsit_ibm_beamal_test_universal_alec/solenoid.o
 .text.solenoid_buzz_on
                0x00000000        0x8 .build/obj_xwhatsit_ibm_beamal_test_universal_alec/solenoid.o
 .text.solenoid_buzz_off
                0x00000000        0x8 .build/obj_xwhatsit_ibm_beamal_test_universal_alec/solenoid.o
 .text.solenoid_set_buzz
                0x00000000        0x6 .build/obj_xwhatsit_ibm_beamal_test_universal_alec/solenoid.o
 .text          0x00000000        0x0 .build/obj_xwhatsit_ibm_beamal_test_universal_alec/quantum/process_keycode/process_unicode.o
 .data          0x00000000        0x0 .build/obj_xwhatsit_ibm_beamal_test_universal_alec/quantum/process_keycode/process_unicode.o
 .bss           0x00000000        0x0 .build/obj_xwhatsit_ibm_beamal_test_universal_alec/quantum/process_keycode/process_unicode.o
 .text          0x00000000        0x0 .build/obj_xwhatsit_ibm_beamal_test_universal_alec/quantum/process_keycode/process_unicode_common.o
 .data          0x00000000        0x0 .build/obj_xwhatsit_ibm_beamal_test_universal_alec/quantum/process_keycode/process_unicode_common.o
 .bss           0x00000000        0x0 .build/obj_xwhatsit_ibm_beamal_test_universal_alec/quantum/process_keycode/process_unicode_common.o
 .text.get_unicode_input_mode
                0x00000000        0x6 .build/obj_xwhatsit_ibm_beamal_test_universal_alec/quantum/process_keycode/process_unicode_common.o
 .text.cycle_unicode_input_mode
                0x00000000        0x2 .build/obj_xwhatsit_ibm_beamal_test_universal_alec/quantum/process_keycode/process_unicode_common.o
 .text.unicode_input_cancel
                0x00000000       0x62 .build/obj_xwhatsit_ibm_beamal_test_universal_alec/quantum/process_keycode/process_unicode_common.o
 .text.register_hex32
                0x00000000       0x64 .build/obj_xwhatsit_ibm_beamal_test_universal_alec/quantum/process_keycode/process_unicode_common.o
 .text.register_unicode
                0x00000000       0x90 .build/obj_xwhatsit_ibm_beamal_test_universal_alec/quantum/process_keycode/process_unicode_common.o
 .text.send_unicode_string
                0x00000000       0x4a .build/obj_xwhatsit_ibm_beamal_test_universal_alec/quantum/process_keycode/process_unicode_common.o
 .text          0x00000000        0x0 .build/obj_xwhatsit_ibm_beamal_test_universal_alec/quantum/utf8.o
 .data          0x00000000        0x0 .build/obj_xwhatsit_ibm_beamal_test_universal_alec/quantum/utf8.o
 .bss           0x00000000        0x0 .build/obj_xwhatsit_ibm_beamal_test_universal_alec/quantum/utf8.o
 .text.decode_utf8
                0x00000000      0x198 .build/obj_xwhatsit_ibm_beamal_test_universal_alec/quantum/utf8.o
 .debug_info    0x00000000       0xe2 .build/obj_xwhatsit_ibm_beamal_test_universal_alec/quantum/utf8.o
 .debug_abbrev  0x00000000       0xa5 .build/obj_xwhatsit_ibm_beamal_test_universal_alec/quantum/utf8.o
 .debug_loc     0x00000000      0x1ed .build/obj_xwhatsit_ibm_beamal_test_universal_alec/quantum/utf8.o
 .debug_aranges
                0x00000000       0x20 .build/obj_xwhatsit_ibm_beamal_test_universal_alec/quantum/utf8.o
 .debug_ranges  0x00000000       0x10 .build/obj_xwhatsit_ibm_beamal_test_universal_alec/quantum/utf8.o
 .debug_line    0x00000000      0x287 .build/obj_xwhatsit_ibm_beamal_test_universal_alec/quantum/utf8.o
 .debug_str     0x00000000      0x1ea .build/obj_xwhatsit_ibm_beamal_test_universal_alec/quantum/utf8.o
 .comment       0x00000000       0x25 .build/obj_xwhatsit_ibm_beamal_test_universal_alec/quantum/utf8.o
 .debug_frame   0x00000000       0x38 .build/obj_xwhatsit_ibm_beamal_test_universal_alec/quantum/utf8.o
 .text          0x00000000        0x0 .build/obj_xwhatsit_ibm_beamal_test_universal_alec/quantum/process_keycode/process_magic.o
 .data          0x00000000        0x0 .build/obj_xwhatsit_ibm_beamal_test_universal_alec/quantum/process_keycode/process_magic.o
 .bss           0x00000000        0x0 .build/obj_xwhatsit_ibm_beamal_test_universal_alec/quantum/process_keycode/process_magic.o
 .text          0x00000000        0x0 .build/obj_xwhatsit_ibm_beamal_test_universal_alec/quantum/send_string/send_string.o
 .data          0x00000000        0x0 .build/obj_xwhatsit_ibm_beamal_test_universal_alec/quantum/send_string/send_string.o
 .bss           0x00000000        0x0 .build/obj_xwhatsit_ibm_beamal_test_universal_alec/quantum/send_string/send_string.o
 .text.send_string_with_delay
                0x00000000       0xcc .build/obj_xwhatsit_ibm_beamal_test_universal_alec/quantum/send_string/send_string.o
 .text.send_string
                0x00000000        0x8 .build/obj_xwhatsit_ibm_beamal_test_universal_alec/quantum/send_string/send_string.o
 .text.send_byte
                0x00000000       0x18 .build/obj_xwhatsit_ibm_beamal_test_universal_alec/quantum/send_string/send_string.o
 .text.send_word
                0x00000000       0x14 .build/obj_xwhatsit_ibm_beamal_test_universal_alec/quantum/send_string/send_string.o
 .text.send_dword
                0x00000000       0x1e .build/obj_xwhatsit_ibm_beamal_test_universal_alec/quantum/send_string/send_string.o
 .text.tap_random_base64
                0x00000000       0x58 .build/obj_xwhatsit_ibm_beamal_test_universal_alec/quantum/send_string/send_string.o
 .text.send_string_P
                0x00000000        0x8 .build/obj_xwhatsit_ibm_beamal_test_universal_alec/quantum/send_string/send_string.o
 .text          0x00000000        0x0 .build/obj_xwhatsit_ibm_beamal_test_universal_alec/quantum/process_keycode/process_dynamic_macro.o
 .data          0x00000000        0x0 .build/obj_xwhatsit_ibm_beamal_test_universal_alec/quantum/process_keycode/process_dynamic_macro.o
 .bss           0x00000000        0x0 .build/obj_xwhatsit_ibm_beamal_test_universal_alec/quantum/process_keycode/process_dynamic_macro.o
 .text.dynamic_macro_led_blink
                0x00000000        0x2 .build/obj_xwhatsit_ibm_beamal_test_universal_alec/quantum/process_keycode/process_dynamic_macro.o
 .text          0x00000000        0x0 .build/obj_xwhatsit_ibm_beamal_test_universal_alec/quantum/process_keycode/process_grave_esc.o
 .data          0x00000000        0x0 .build/obj_xwhatsit_ibm_beamal_test_universal_alec/quantum/process_keycode/process_grave_esc.o
 .bss           0x00000000        0x0 .build/obj_xwhatsit_ibm_beamal_test_universal_alec/quantum/process_keycode/process_grave_esc.o
 .text          0x00000000        0x0 .build/obj_xwhatsit_ibm_beamal_test_universal_alec/quantum/process_keycode/process_haptic.o
 .data          0x00000000        0x0 .build/obj_xwhatsit_ibm_beamal_test_universal_alec/quantum/process_keycode/process_haptic.o
 .bss           0x00000000        0x0 .build/obj_xwhatsit_ibm_beamal_test_universal_alec/quantum/process_keycode/process_haptic.o
 .text          0x00000000        0x0 .build/obj_xwhatsit_ibm_beamal_test_universal_alec/quantum/haptic.o
 .data          0x00000000        0x0 .build/obj_xwhatsit_ibm_beamal_test_universal_alec/quantum/haptic.o
 .bss           0x00000000        0x0 .build/obj_xwhatsit_ibm_beamal_test_universal_alec/quantum/haptic.o
 .text.haptic_set_feedback
                0x00000000       0x4e .build/obj_xwhatsit_ibm_beamal_test_universal_alec/quantum/haptic.o
 .text.haptic_get_mode
                0x00000000       0x24 .build/obj_xwhatsit_ibm_beamal_test_universal_alec/quantum/haptic.o
 .text.haptic_get_dwell
                0x00000000       0x28 .build/obj_xwhatsit_ibm_beamal_test_universal_alec/quantum/haptic.o
 .progmem.data.__c.1988
                0x00000000       0x1d .build/obj_xwhatsit_ibm_beamal_test_universal_alec/quantum/haptic.o
 .text          0x00000000        0x0 .build/obj_xwhatsit_ibm_beamal_test_universal_alec/quantum/process_keycode/process_space_cadet.o
 .data          0x00000000        0x0 .build/obj_xwhatsit_ibm_beamal_test_universal_alec/quantum/process_keycode/process_space_cadet.o
 .bss           0x00000000        0x0 .build/obj_xwhatsit_ibm_beamal_test_universal_alec/quantum/process_keycode/process_space_cadet.o
 .data          0x00000000        0x0 .build/obj_xwhatsit_ibm_beamal_test_universal_alec/platforms/avr/xprintf.o
 .text          0x00000000        0x0 .build/obj_xwhatsit_ibm_beamal_test_universal_alec/platforms/avr/printf.o
 .data          0x00000000        0x0 .build/obj_xwhatsit_ibm_beamal_test_universal_alec/platforms/avr/printf.o
 .bss           0x00000000        0x0 .build/obj_xwhatsit_ibm_beamal_test_universal_alec/platforms/avr/printf.o
 .text          0x00000000        0x0 .build/obj_xwhatsit_ibm_beamal_test_universal_alec/protocol/host.o
 .data          0x00000000        0x0 .build/obj_xwhatsit_ibm_beamal_test_universal_alec/protocol/host.o
 .bss           0x00000000        0x0 .build/obj_xwhatsit_ibm_beamal_test_universal_alec/protocol/host.o
 .text.host_get_driver
                0x00000000        0xa .build/obj_xwhatsit_ibm_beamal_test_universal_alec/protocol/host.o
 .text.host_mouse_send
                0x00000000       0x16 .build/obj_xwhatsit_ibm_beamal_test_universal_alec/protocol/host.o
 .text.send_digitizer
                0x00000000        0x2 .build/obj_xwhatsit_ibm_beamal_test_universal_alec/protocol/host.o
 .text.host_digitizer_send
                0x00000000       0x72 .build/obj_xwhatsit_ibm_beamal_test_universal_alec/protocol/host.o
 .text.host_programmable_button_send
                0x00000000       0x48 .build/obj_xwhatsit_ibm_beamal_test_universal_alec/protocol/host.o
 .text.host_last_system_report
                0x00000000        0xa .build/obj_xwhatsit_ibm_beamal_test_universal_alec/protocol/host.o
 .text.host_last_consumer_report
                0x00000000        0xa .build/obj_xwhatsit_ibm_beamal_test_universal_alec/protocol/host.o
 .text.host_last_programmable_button_report
                0x00000000       0x12 .build/obj_xwhatsit_ibm_beamal_test_universal_alec/protocol/host.o
 .bss.last_programmable_button_report
                0x00000000        0x4 .build/obj_xwhatsit_ibm_beamal_test_universal_alec/protocol/host.o
 .text          0x00000000        0x0 .build/obj_xwhatsit_ibm_beamal_test_universal_alec/protocol/report.o
 .data          0x00000000        0x0 .build/obj_xwhatsit_ibm_beamal_test_universal_alec/protocol/report.o
 .bss           0x00000000        0x0 .build/obj_xwhatsit_ibm_beamal_test_universal_alec/protocol/report.o
 .text.get_first_key
                0x00000000       0x4a .build/obj_xwhatsit_ibm_beamal_test_universal_alec/protocol/report.o
 .text          0x00000000        0x0 .build/obj_xwhatsit_ibm_beamal_test_universal_alec/protocol/usb_device_state.o
 .data          0x00000000        0x0 .build/obj_xwhatsit_ibm_beamal_test_universal_alec/protocol/usb_device_state.o
 .bss           0x00000000        0x0 .build/obj_xwhatsit_ibm_beamal_test_universal_alec/protocol/usb_device_state.o
 .text          0x00000000        0x0 .build/obj_xwhatsit_ibm_beamal_test_universal_alec/protocol/usb_util.o
 .data          0x00000000        0x0 .build/obj_xwhatsit_ibm_beamal_test_universal_alec/protocol/usb_util.o
 .bss           0x00000000        0x0 .build/obj_xwhatsit_ibm_beamal_test_universal_alec/protocol/usb_util.o
 .text.usb_disconnect
                0x00000000        0x2 .build/obj_xwhatsit_ibm_beamal_test_universal_alec/protocol/usb_util.o
 .text.usb_connected_state
                0x00000000        0x4 .build/obj_xwhatsit_ibm_beamal_test_universal_alec/protocol/usb_util.o
 .text.usb_vbus_state
                0x00000000        0x4 .build/obj_xwhatsit_ibm_beamal_test_universal_alec/protocol/usb_util.o
 .debug_info    0x00000000      0x856 .build/obj_xwhatsit_ibm_beamal_test_universal_alec/protocol/usb_util.o
 .debug_abbrev  0x00000000      0x1e3 .build/obj_xwhatsit_ibm_beamal_test_universal_alec/protocol/usb_util.o
 .debug_aranges
                0x00000000       0x28 .build/obj_xwhatsit_ibm_beamal_test_universal_alec/protocol/usb_util.o
 .debug_ranges  0x00000000       0x18 .build/obj_xwhatsit_ibm_beamal_test_universal_alec/protocol/usb_util.o
 .debug_line    0x00000000      0x2eb .build/obj_xwhatsit_ibm_beamal_test_universal_alec/protocol/usb_util.o
 .debug_str     0x00000000      0x76e .build/obj_xwhatsit_ibm_beamal_test_universal_alec/protocol/usb_util.o
 .comment       0x00000000       0x25 .build/obj_xwhatsit_ibm_beamal_test_universal_alec/protocol/usb_util.o
 .debug_frame   0x00000000       0x44 .build/obj_xwhatsit_ibm_beamal_test_universal_alec/protocol/usb_util.o
 .text          0x00000000        0x0 .build/obj_xwhatsit_ibm_beamal_test_universal_alec/platforms/suspend.o
 .data          0x00000000        0x0 .build/obj_xwhatsit_ibm_beamal_test_universal_alec/platforms/suspend.o
 .bss           0x00000000        0x0 .build/obj_xwhatsit_ibm_beamal_test_universal_alec/platforms/suspend.o
 .text          0x00000000        0x0 .build/obj_xwhatsit_ibm_beamal_test_universal_alec/platforms/avr/hardware_id.o
 .data          0x00000000        0x0 .build/obj_xwhatsit_ibm_beamal_test_universal_alec/platforms/avr/hardware_id.o
 .bss           0x00000000        0x0 .build/obj_xwhatsit_ibm_beamal_test_universal_alec/platforms/avr/hardware_id.o
 .text.get_hardware_id
                0x00000000       0x4e .build/obj_xwhatsit_ibm_beamal_test_universal_alec/platforms/avr/hardware_id.o
 .debug_info    0x00000000      0x122 .build/obj_xwhatsit_ibm_beamal_test_universal_alec/platforms/avr/hardware_id.o
 .debug_abbrev  0x00000000       0xcb .build/obj_xwhatsit_ibm_beamal_test_universal_alec/platforms/avr/hardware_id.o
 .debug_loc     0x00000000       0x79 .build/obj_xwhatsit_ibm_beamal_test_universal_alec/platforms/avr/hardware_id.o
 .debug_aranges
                0x00000000       0x20 .build/obj_xwhatsit_ibm_beamal_test_universal_alec/platforms/avr/hardware_id.o
 .debug_ranges  0x00000000       0x40 .build/obj_xwhatsit_ibm_beamal_test_universal_alec/platforms/avr/hardware_id.o
 .debug_line    0x00000000      0x16a .build/obj_xwhatsit_ibm_beamal_test_universal_alec/platforms/avr/hardware_id.o
 .debug_str     0x00000000      0x220 .build/obj_xwhatsit_ibm_beamal_test_universal_alec/platforms/avr/hardware_id.o
 .comment       0x00000000       0x25 .build/obj_xwhatsit_ibm_beamal_test_universal_alec/platforms/avr/hardware_id.o
 .debug_frame   0x00000000       0x2c .build/obj_xwhatsit_ibm_beamal_test_universal_alec/platforms/avr/hardware_id.o
 .text          0x00000000        0x0 .build/obj_xwhatsit_ibm_beamal_test_universal_alec/platforms/avr/platform.o
 .data          0x00000000        0x0 .build/obj_xwhatsit_ibm_beamal_test_universal_alec/platforms/avr/platform.o
 .bss           0x00000000        0x0 .build/obj_xwhatsit_ibm_beamal_test_universal_alec/platforms/avr/platform.o
 .text          0x00000000        0x0 .build/obj_xwhatsit_ibm_beamal_test_universal_alec/platforms/avr/suspend.o
 .data          0x00000000        0x0 .build/obj_xwhatsit_ibm_beamal_test_universal_alec/platforms/avr/suspend.o
 .bss           0x00000000        0x0 .build/obj_xwhatsit_ibm_beamal_test_universal_alec/platforms/avr/suspend.o
 .text          0x00000000        0x0 .build/obj_xwhatsit_ibm_beamal_test_universal_alec/platforms/avr/timer.o
 .data          0x00000000        0x0 .build/obj_xwhatsit_ibm_beamal_test_universal_alec/platforms/avr/timer.o
 .bss           0x00000000        0x0 .build/obj_xwhatsit_ibm_beamal_test_universal_alec/platforms/avr/timer.o
 .text.timer_clear
                0x00000000       0x18 .build/obj_xwhatsit_ibm_beamal_test_universal_alec/platforms/avr/timer.o
 .text.timer_elapsed32
                0x00000000       0x38 .build/obj_xwhatsit_ibm_beamal_test_universal_alec/platforms/avr/timer.o
 .text          0x00000000        0x0 .build/obj_xwhatsit_ibm_beamal_test_universal_alec/platforms/avr/bootloaders/caterina.o
 .data          0x00000000        0x0 .build/obj_xwhatsit_ibm_beamal_test_universal_alec/platforms/avr/bootloaders/caterina.o
 .bss           0x00000000        0x0 .build/obj_xwhatsit_ibm_beamal_test_universal_alec/platforms/avr/bootloaders/caterina.o
 .text          0x00000000        0x0 .build/obj_xwhatsit_ibm_beamal_test_universal_alec/lufa.o
 .data          0x00000000        0x0 .build/obj_xwhatsit_ibm_beamal_test_universal_alec/lufa.o
 .bss           0x00000000        0x0 .build/obj_xwhatsit_ibm_beamal_test_universal_alec/lufa.o
 .text.raw_hid_receive
                0x00000000        0x2 .build/obj_xwhatsit_ibm_beamal_test_universal_alec/lufa.o
 .text.send_digitizer
                0x00000000        0x2 .build/obj_xwhatsit_ibm_beamal_test_universal_alec/lufa.o
 .text          0x00000000        0x0 .build/obj_xwhatsit_ibm_beamal_test_universal_alec/usb_descriptor.o
 .data          0x00000000        0x0 .build/obj_xwhatsit_ibm_beamal_test_universal_alec/usb_descriptor.o
 .bss           0x00000000        0x0 .build/obj_xwhatsit_ibm_beamal_test_universal_alec/usb_descriptor.o
 .text          0x00000000        0x0 .build/obj_xwhatsit_ibm_beamal_test_universal_alec/lib/lufa/LUFA/Drivers/USB/Class/Common/HIDParser.o
 .data          0x00000000        0x0 .build/obj_xwhatsit_ibm_beamal_test_universal_alec/lib/lufa/LUFA/Drivers/USB/Class/Common/HIDParser.o
 .bss           0x00000000        0x0 .build/obj_xwhatsit_ibm_beamal_test_universal_alec/lib/lufa/LUFA/Drivers/USB/Class/Common/HIDParser.o
 .text.USB_ProcessHIDReport
                0x00000000      0x670 .build/obj_xwhatsit_ibm_beamal_test_universal_alec/lib/lufa/LUFA/Drivers/USB/Class/Common/HIDParser.o
 .text.USB_GetHIDReportItemInfo
                0x00000000       0xc0 .build/obj_xwhatsit_ibm_beamal_test_universal_alec/lib/lufa/LUFA/Drivers/USB/Class/Common/HIDParser.o
 .text.USB_SetHIDReportItemInfo
                0x00000000       0xb6 .build/obj_xwhatsit_ibm_beamal_test_universal_alec/lib/lufa/LUFA/Drivers/USB/Class/Common/HIDParser.o
 .text.USB_GetHIDReportSize
                0x00000000       0x52 .build/obj_xwhatsit_ibm_beamal_test_universal_alec/lib/lufa/LUFA/Drivers/USB/Class/Common/HIDParser.o
 .debug_info    0x00000000      0x80a .build/obj_xwhatsit_ibm_beamal_test_universal_alec/lib/lufa/LUFA/Drivers/USB/Class/Common/HIDParser.o
 .debug_abbrev  0x00000000      0x253 .build/obj_xwhatsit_ibm_beamal_test_universal_alec/lib/lufa/LUFA/Drivers/USB/Class/Common/HIDParser.o
 .debug_loc     0x00000000      0xbe5 .build/obj_xwhatsit_ibm_beamal_test_universal_alec/lib/lufa/LUFA/Drivers/USB/Class/Common/HIDParser.o
 .debug_aranges
                0x00000000       0x38 .build/obj_xwhatsit_ibm_beamal_test_universal_alec/lib/lufa/LUFA/Drivers/USB/Class/Common/HIDParser.o
 .debug_ranges  0x00000000      0x100 .build/obj_xwhatsit_ibm_beamal_test_universal_alec/lib/lufa/LUFA/Drivers/USB/Class/Common/HIDParser.o
 .debug_line    0x00000000      0xe4b .build/obj_xwhatsit_ibm_beamal_test_universal_alec/lib/lufa/LUFA/Drivers/USB/Class/Common/HIDParser.o
 .debug_str     0x00000000      0x70a .build/obj_xwhatsit_ibm_beamal_test_universal_alec/lib/lufa/LUFA/Drivers/USB/Class/Common/HIDParser.o
 .comment       0x00000000       0x25 .build/obj_xwhatsit_ibm_beamal_test_universal_alec/lib/lufa/LUFA/Drivers/USB/Class/Common/HIDParser.o
 .debug_frame   0x00000000       0xdc .build/obj_xwhatsit_ibm_beamal_test_universal_alec/lib/lufa/LUFA/Drivers/USB/Class/Common/HIDParser.o
 .text          0x00000000        0x0 .build/obj_xwhatsit_ibm_beamal_test_universal_alec/lib/lufa/LUFA/Drivers/USB/Core/AVR8/Device_AVR8.o
 .data          0x00000000        0x0 .build/obj_xwhatsit_ibm_beamal_test_universal_alec/lib/lufa/LUFA/Drivers/USB/Core/AVR8/Device_AVR8.o
 .bss           0x00000000        0x0 .build/obj_xwhatsit_ibm_beamal_test_universal_alec/lib/lufa/LUFA/Drivers/USB/Core/AVR8/Device_AVR8.o
 .text          0x00000000        0x0 .build/obj_xwhatsit_ibm_beamal_test_universal_alec/lib/lufa/LUFA/Drivers/USB/Core/AVR8/EndpointStream_AVR8.o
 .data          0x00000000        0x0 .build/obj_xwhatsit_ibm_beamal_test_universal_alec/lib/lufa/LUFA/Drivers/USB/Core/AVR8/EndpointStream_AVR8.o
 .bss           0x00000000        0x0 .build/obj_xwhatsit_ibm_beamal_test_universal_alec/lib/lufa/LUFA/Drivers/USB/Core/AVR8/EndpointStream_AVR8.o
 .text.Endpoint_Discard_Stream
                0x00000000       0x78 .build/obj_xwhatsit_ibm_beamal_test_universal_alec/lib/lufa/LUFA/Drivers/USB/Core/AVR8/EndpointStream_AVR8.o
 .text.Endpoint_Null_Stream
                0x00000000       0x78 .build/obj_xwhatsit_ibm_beamal_test_universal_alec/lib/lufa/LUFA/Drivers/USB/Core/AVR8/EndpointStream_AVR8.o
 .text.Endpoint_Write_Stream_BE
                0x00000000       0xa8 .build/obj_xwhatsit_ibm_beamal_test_universal_alec/lib/lufa/LUFA/Drivers/USB/Core/AVR8/EndpointStream_AVR8.o
 .text.Endpoint_Read_Stream_BE
                0x00000000       0xa8 .build/obj_xwhatsit_ibm_beamal_test_universal_alec/lib/lufa/LUFA/Drivers/USB/Core/AVR8/EndpointStream_AVR8.o
 .text.Endpoint_Write_PStream_LE
                0x00000000       0xa0 .build/obj_xwhatsit_ibm_beamal_test_universal_alec/lib/lufa/LUFA/Drivers/USB/Core/AVR8/EndpointStream_AVR8.o
 .text.Endpoint_Write_PStream_BE
                0x00000000       0xaa .build/obj_xwhatsit_ibm_beamal_test_universal_alec/lib/lufa/LUFA/Drivers/USB/Core/AVR8/EndpointStream_AVR8.o
 .text.Endpoint_Write_EStream_LE
                0x00000000       0xa2 .build/obj_xwhatsit_ibm_beamal_test_universal_alec/lib/lufa/LUFA/Drivers/USB/Core/AVR8/EndpointStream_AVR8.o
 .text.Endpoint_Write_EStream_BE
                0x00000000       0xac .build/obj_xwhatsit_ibm_beamal_test_universal_alec/lib/lufa/LUFA/Drivers/USB/Core/AVR8/EndpointStream_AVR8.o
 .text.Endpoint_Read_EStream_LE
                0x00000000       0xa2 .build/obj_xwhatsit_ibm_beamal_test_universal_alec/lib/lufa/LUFA/Drivers/USB/Core/AVR8/EndpointStream_AVR8.o
 .text.Endpoint_Read_EStream_BE
                0x00000000       0xac .build/obj_xwhatsit_ibm_beamal_test_universal_alec/lib/lufa/LUFA/Drivers/USB/Core/AVR8/EndpointStream_AVR8.o
 .text.Endpoint_Write_Control_Stream_BE
                0x00000000       0xc6 .build/obj_xwhatsit_ibm_beamal_test_universal_alec/lib/lufa/LUFA/Drivers/USB/Core/AVR8/EndpointStream_AVR8.o
 .text.Endpoint_Read_Control_Stream_LE
                0x00000000       0x74 .build/obj_xwhatsit_ibm_beamal_test_universal_alec/lib/lufa/LUFA/Drivers/USB/Core/AVR8/EndpointStream_AVR8.o
 .text.Endpoint_Read_Control_Stream_BE
                0x00000000       0x7e .build/obj_xwhatsit_ibm_beamal_test_universal_alec/lib/lufa/LUFA/Drivers/USB/Core/AVR8/EndpointStream_AVR8.o
 .text.Endpoint_Write_Control_PStream_BE
                0x00000000       0xc2 .build/obj_xwhatsit_ibm_beamal_test_universal_alec/lib/lufa/LUFA/Drivers/USB/Core/AVR8/EndpointStream_AVR8.o
 .text.Endpoint_Write_Control_EStream_LE
                0x00000000       0xd4 .build/obj_xwhatsit_ibm_beamal_test_universal_alec/lib/lufa/LUFA/Drivers/USB/Core/AVR8/EndpointStream_AVR8.o
 .text.Endpoint_Write_Control_EStream_BE
                0x00000000       0xde .build/obj_xwhatsit_ibm_beamal_test_universal_alec/lib/lufa/LUFA/Drivers/USB/Core/AVR8/EndpointStream_AVR8.o
 .text.Endpoint_Read_Control_EStream_LE
                0x00000000       0x86 .build/obj_xwhatsit_ibm_beamal_test_universal_alec/lib/lufa/LUFA/Drivers/USB/Core/AVR8/EndpointStream_AVR8.o
 .text.Endpoint_Read_Control_EStream_BE
                0x00000000       0x8e .build/obj_xwhatsit_ibm_beamal_test_universal_alec/lib/lufa/LUFA/Drivers/USB/Core/AVR8/EndpointStream_AVR8.o
 .text          0x00000000        0x0 .build/obj_xwhatsit_ibm_beamal_test_universal_alec/lib/lufa/LUFA/Drivers/USB/Core/AVR8/Endpoint_AVR8.o
 .data          0x00000000        0x0 .build/obj_xwhatsit_ibm_beamal_test_universal_alec/lib/lufa/LUFA/Drivers/USB/Core/AVR8/Endpoint_AVR8.o
 .bss           0x00000000        0x0 .build/obj_xwhatsit_ibm_beamal_test_universal_alec/lib/lufa/LUFA/Drivers/USB/Core/AVR8/Endpoint_AVR8.o
 .text.Endpoint_ConfigureEndpointTable
                0x00000000       0x7a .build/obj_xwhatsit_ibm_beamal_test_universal_alec/lib/lufa/LUFA/Drivers/USB/Core/AVR8/Endpoint_AVR8.o
 .text.Endpoint_ClearEndpoints
                0x00000000       0x28 .build/obj_xwhatsit_ibm_beamal_test_universal_alec/lib/lufa/LUFA/Drivers/USB/Core/AVR8/Endpoint_AVR8.o
 .text          0x00000000        0x0 .build/obj_xwhatsit_ibm_beamal_test_universal_alec/lib/lufa/LUFA/Drivers/USB/Core/AVR8/Host_AVR8.o
 .data          0x00000000        0x0 .build/obj_xwhatsit_ibm_beamal_test_universal_alec/lib/lufa/LUFA/Drivers/USB/Core/AVR8/Host_AVR8.o
 .bss           0x00000000        0x0 .build/obj_xwhatsit_ibm_beamal_test_universal_alec/lib/lufa/LUFA/Drivers/USB/Core/AVR8/Host_AVR8.o
 .debug_info    0x00000000       0x5d .build/obj_xwhatsit_ibm_beamal_test_universal_alec/lib/lufa/LUFA/Drivers/USB/Core/AVR8/Host_AVR8.o
 .debug_abbrev  0x00000000       0x26 .build/obj_xwhatsit_ibm_beamal_test_universal_alec/lib/lufa/LUFA/Drivers/USB/Core/AVR8/Host_AVR8.o
 .debug_aranges
                0x00000000       0x18 .build/obj_xwhatsit_ibm_beamal_test_universal_alec/lib/lufa/LUFA/Drivers/USB/Core/AVR8/Host_AVR8.o
 .debug_line    0x00000000       0x1d .build/obj_xwhatsit_ibm_beamal_test_universal_alec/lib/lufa/LUFA/Drivers/USB/Core/AVR8/Host_AVR8.o
 .debug_str     0x00000000      0x1ee .build/obj_xwhatsit_ibm_beamal_test_universal_alec/lib/lufa/LUFA/Drivers/USB/Core/AVR8/Host_AVR8.o
 .comment       0x00000000       0x25 .build/obj_xwhatsit_ibm_beamal_test_universal_alec/lib/lufa/LUFA/Drivers/USB/Core/AVR8/Host_AVR8.o
 .text          0x00000000        0x0 .build/obj_xwhatsit_ibm_beamal_test_universal_alec/lib/lufa/LUFA/Drivers/USB/Core/AVR8/PipeStream_AVR8.o
 .data          0x00000000        0x0 .build/obj_xwhatsit_ibm_beamal_test_universal_alec/lib/lufa/LUFA/Drivers/USB/Core/AVR8/PipeStream_AVR8.o
 .bss           0x00000000        0x0 .build/obj_xwhatsit_ibm_beamal_test_universal_alec/lib/lufa/LUFA/Drivers/USB/Core/AVR8/PipeStream_AVR8.o
 .debug_info    0x00000000       0x5d .build/obj_xwhatsit_ibm_beamal_test_universal_alec/lib/lufa/LUFA/Drivers/USB/Core/AVR8/PipeStream_AVR8.o
 .debug_abbrev  0x00000000       0x26 .build/obj_xwhatsit_ibm_beamal_test_universal_alec/lib/lufa/LUFA/Drivers/USB/Core/AVR8/PipeStream_AVR8.o
 .debug_aranges
                0x00000000       0x18 .build/obj_xwhatsit_ibm_beamal_test_universal_alec/lib/lufa/LUFA/Drivers/USB/Core/AVR8/PipeStream_AVR8.o
 .debug_line    0x00000000       0x1d .build/obj_xwhatsit_ibm_beamal_test_universal_alec/lib/lufa/LUFA/Drivers/USB/Core/AVR8/PipeStream_AVR8.o
 .debug_str     0x00000000      0x1f4 .build/obj_xwhatsit_ibm_beamal_test_universal_alec/lib/lufa/LUFA/Drivers/USB/Core/AVR8/PipeStream_AVR8.o
 .comment       0x00000000       0x25 .build/obj_xwhatsit_ibm_beamal_test_universal_alec/lib/lufa/LUFA/Drivers/USB/Core/AVR8/PipeStream_AVR8.o
 .text          0x00000000        0x0 .build/obj_xwhatsit_ibm_beamal_test_universal_alec/lib/lufa/LUFA/Drivers/USB/Core/AVR8/Pipe_AVR8.o
 .data          0x00000000        0x0 .build/obj_xwhatsit_ibm_beamal_test_universal_alec/lib/lufa/LUFA/Drivers/USB/Core/AVR8/Pipe_AVR8.o
 .bss           0x00000000        0x0 .build/obj_xwhatsit_ibm_beamal_test_universal_alec/lib/lufa/LUFA/Drivers/USB/Core/AVR8/Pipe_AVR8.o
 .debug_info    0x00000000       0x5d .build/obj_xwhatsit_ibm_beamal_test_universal_alec/lib/lufa/LUFA/Drivers/USB/Core/AVR8/Pipe_AVR8.o
 .debug_abbrev  0x00000000       0x26 .build/obj_xwhatsit_ibm_beamal_test_universal_alec/lib/lufa/LUFA/Drivers/USB/Core/AVR8/Pipe_AVR8.o
 .debug_aranges
                0x00000000       0x18 .build/obj_xwhatsit_ibm_beamal_test_universal_alec/lib/lufa/LUFA/Drivers/USB/Core/AVR8/Pipe_AVR8.o
 .debug_line    0x00000000       0x1d .build/obj_xwhatsit_ibm_beamal_test_universal_alec/lib/lufa/LUFA/Drivers/USB/Core/AVR8/Pipe_AVR8.o
 .debug_str     0x00000000      0x1ee .build/obj_xwhatsit_ibm_beamal_test_universal_alec/lib/lufa/LUFA/Drivers/USB/Core/AVR8/Pipe_AVR8.o
 .comment       0x00000000       0x25 .build/obj_xwhatsit_ibm_beamal_test_universal_alec/lib/lufa/LUFA/Drivers/USB/Core/AVR8/Pipe_AVR8.o
 .text          0x00000000        0x0 .build/obj_xwhatsit_ibm_beamal_test_universal_alec/lib/lufa/LUFA/Drivers/USB/Core/AVR8/USBController_AVR8.o
 .data          0x00000000        0x0 .build/obj_xwhatsit_ibm_beamal_test_universal_alec/lib/lufa/LUFA/Drivers/USB/Core/AVR8/USBController_AVR8.o
 .bss           0x00000000        0x0 .build/obj_xwhatsit_ibm_beamal_test_universal_alec/lib/lufa/LUFA/Drivers/USB/Core/AVR8/USBController_AVR8.o
 .text          0x00000000        0x0 .build/obj_xwhatsit_ibm_beamal_test_universal_alec/lib/lufa/LUFA/Drivers/USB/Core/AVR8/USBInterrupt_AVR8.o
 .data          0x00000000        0x0 .build/obj_xwhatsit_ibm_beamal_test_universal_alec/lib/lufa/LUFA/Drivers/USB/Core/AVR8/USBInterrupt_AVR8.o
 .bss           0x00000000        0x0 .build/obj_xwhatsit_ibm_beamal_test_universal_alec/lib/lufa/LUFA/Drivers/USB/Core/AVR8/USBInterrupt_AVR8.o
 .text          0x00000000        0x0 .build/obj_xwhatsit_ibm_beamal_test_universal_alec/lib/lufa/LUFA/Drivers/USB/Core/ConfigDescriptors.o
 .data          0x00000000        0x0 .build/obj_xwhatsit_ibm_beamal_test_universal_alec/lib/lufa/LUFA/Drivers/USB/Core/ConfigDescriptors.o
 .bss           0x00000000        0x0 .build/obj_xwhatsit_ibm_beamal_test_universal_alec/lib/lufa/LUFA/Drivers/USB/Core/ConfigDescriptors.o
 .text.USB_GetNextDescriptor
                0x00000000       0x3c .build/obj_xwhatsit_ibm_beamal_test_universal_alec/lib/lufa/LUFA/Drivers/USB/Core/ConfigDescriptors.o
 .text.USB_GetNextDescriptorOfType
                0x00000000       0x36 .build/obj_xwhatsit_ibm_beamal_test_universal_alec/lib/lufa/LUFA/Drivers/USB/Core/ConfigDescriptors.o
 .text.USB_GetNextDescriptorOfTypeBefore
                0x00000000       0x42 .build/obj_xwhatsit_ibm_beamal_test_universal_alec/lib/lufa/LUFA/Drivers/USB/Core/ConfigDescriptors.o
 .text.USB_GetNextDescriptorOfTypeAfter
                0x00000000       0x32 .build/obj_xwhatsit_ibm_beamal_test_universal_alec/lib/lufa/LUFA/Drivers/USB/Core/ConfigDescriptors.o
 .text.USB_GetNextDescriptorComp
                0x00000000       0x52 .build/obj_xwhatsit_ibm_beamal_test_universal_alec/lib/lufa/LUFA/Drivers/USB/Core/ConfigDescriptors.o
 .debug_info    0x00000000      0x512 .build/obj_xwhatsit_ibm_beamal_test_universal_alec/lib/lufa/LUFA/Drivers/USB/Core/ConfigDescriptors.o
 .debug_abbrev  0x00000000      0x1d7 .build/obj_xwhatsit_ibm_beamal_test_universal_alec/lib/lufa/LUFA/Drivers/USB/Core/ConfigDescriptors.o
 .debug_loc     0x00000000      0x47a .build/obj_xwhatsit_ibm_beamal_test_universal_alec/lib/lufa/LUFA/Drivers/USB/Core/ConfigDescriptors.o
 .debug_aranges
                0x00000000       0x40 .build/obj_xwhatsit_ibm_beamal_test_universal_alec/lib/lufa/LUFA/Drivers/USB/Core/ConfigDescriptors.o
 .debug_ranges  0x00000000       0x30 .build/obj_xwhatsit_ibm_beamal_test_universal_alec/lib/lufa/LUFA/Drivers/USB/Core/ConfigDescriptors.o
 .debug_line    0x00000000      0x3a4 .build/obj_xwhatsit_ibm_beamal_test_universal_alec/lib/lufa/LUFA/Drivers/USB/Core/ConfigDescriptors.o
 .debug_str     0x00000000      0x526 .build/obj_xwhatsit_ibm_beamal_test_universal_alec/lib/lufa/LUFA/Drivers/USB/Core/ConfigDescriptors.o
 .comment       0x00000000       0x25 .build/obj_xwhatsit_ibm_beamal_test_universal_alec/lib/lufa/LUFA/Drivers/USB/Core/ConfigDescriptors.o
 .debug_frame   0x00000000       0xe0 .build/obj_xwhatsit_ibm_beamal_test_universal_alec/lib/lufa/LUFA/Drivers/USB/Core/ConfigDescriptors.o
 .text          0x00000000        0x0 .build/obj_xwhatsit_ibm_beamal_test_universal_alec/lib/lufa/LUFA/Drivers/USB/Core/DeviceStandardReq.o
 .data          0x00000000        0x0 .build/obj_xwhatsit_ibm_beamal_test_universal_alec/lib/lufa/LUFA/Drivers/USB/Core/DeviceStandardReq.o
 .bss           0x00000000        0x0 .build/obj_xwhatsit_ibm_beamal_test_universal_alec/lib/lufa/LUFA/Drivers/USB/Core/DeviceStandardReq.o
 .text          0x00000000        0x0 .build/obj_xwhatsit_ibm_beamal_test_universal_alec/lib/lufa/LUFA/Drivers/USB/Core/Events.o
 .data          0x00000000        0x0 .build/obj_xwhatsit_ibm_beamal_test_universal_alec/lib/lufa/LUFA/Drivers/USB/Core/Events.o
 .bss           0x00000000        0x0 .build/obj_xwhatsit_ibm_beamal_test_universal_alec/lib/lufa/LUFA/Drivers/USB/Core/Events.o
 .text.USB_Event_Stub
                0x00000000        0x2 .build/obj_xwhatsit_ibm_beamal_test_universal_alec/lib/lufa/LUFA/Drivers/USB/Core/Events.o
 .text.USB_Event_Stub_2
                0x00000000        0x2 .build/obj_xwhatsit_ibm_beamal_test_universal_alec/lib/lufa/LUFA/Drivers/USB/Core/Events.o
 .text.USB_Event_Stub_3
                0x00000000        0x2 .build/obj_xwhatsit_ibm_beamal_test_universal_alec/lib/lufa/LUFA/Drivers/USB/Core/Events.o
 .debug_info    0x00000000       0xf0 .build/obj_xwhatsit_ibm_beamal_test_universal_alec/lib/lufa/LUFA/Drivers/USB/Core/Events.o
 .debug_abbrev  0x00000000       0x89 .build/obj_xwhatsit_ibm_beamal_test_universal_alec/lib/lufa/LUFA/Drivers/USB/Core/Events.o
 .debug_aranges
                0x00000000       0x30 .build/obj_xwhatsit_ibm_beamal_test_universal_alec/lib/lufa/LUFA/Drivers/USB/Core/Events.o
 .debug_ranges  0x00000000       0x20 .build/obj_xwhatsit_ibm_beamal_test_universal_alec/lib/lufa/LUFA/Drivers/USB/Core/Events.o
 .debug_line    0x00000000       0xf2 .build/obj_xwhatsit_ibm_beamal_test_universal_alec/lib/lufa/LUFA/Drivers/USB/Core/Events.o
 .debug_str     0x00000000      0x21f .build/obj_xwhatsit_ibm_beamal_test_universal_alec/lib/lufa/LUFA/Drivers/USB/Core/Events.o
 .comment       0x00000000       0x25 .build/obj_xwhatsit_ibm_beamal_test_universal_alec/lib/lufa/LUFA/Drivers/USB/Core/Events.o
 .debug_frame   0x00000000       0x44 .build/obj_xwhatsit_ibm_beamal_test_universal_alec/lib/lufa/LUFA/Drivers/USB/Core/Events.o
 .text          0x00000000        0x0 .build/obj_xwhatsit_ibm_beamal_test_universal_alec/lib/lufa/LUFA/Drivers/USB/Core/HostStandardReq.o
 .data          0x00000000        0x0 .build/obj_xwhatsit_ibm_beamal_test_universal_alec/lib/lufa/LUFA/Drivers/USB/Core/HostStandardReq.o
 .bss           0x00000000        0x0 .build/obj_xwhatsit_ibm_beamal_test_universal_alec/lib/lufa/LUFA/Drivers/USB/Core/HostStandardReq.o
 .debug_info    0x00000000       0x5d .build/obj_xwhatsit_ibm_beamal_test_universal_alec/lib/lufa/LUFA/Drivers/USB/Core/HostStandardReq.o
 .debug_abbrev  0x00000000       0x26 .build/obj_xwhatsit_ibm_beamal_test_universal_alec/lib/lufa/LUFA/Drivers/USB/Core/HostStandardReq.o
 .debug_aranges
                0x00000000       0x18 .build/obj_xwhatsit_ibm_beamal_test_universal_alec/lib/lufa/LUFA/Drivers/USB/Core/HostStandardReq.o
 .debug_line    0x00000000       0x1d .build/obj_xwhatsit_ibm_beamal_test_universal_alec/lib/lufa/LUFA/Drivers/USB/Core/HostStandardReq.o
 .debug_str     0x00000000      0x1ef .build/obj_xwhatsit_ibm_beamal_test_universal_alec/lib/lufa/LUFA/Drivers/USB/Core/HostStandardReq.o
 .comment       0x00000000       0x25 .build/obj_xwhatsit_ibm_beamal_test_universal_alec/lib/lufa/LUFA/Drivers/USB/Core/HostStandardReq.o
 .text          0x00000000        0x0 .build/obj_xwhatsit_ibm_beamal_test_universal_alec/lib/lufa/LUFA/Drivers/USB/Core/USBTask.o
 .data          0x00000000        0x0 .build/obj_xwhatsit_ibm_beamal_test_universal_alec/lib/lufa/LUFA/Drivers/USB/Core/USBTask.o
 .bss           0x00000000        0x0 .build/obj_xwhatsit_ibm_beamal_test_universal_alec/lib/lufa/LUFA/Drivers/USB/Core/USBTask.o
 .text          0x00000000        0x0 .build/obj_xwhatsit_ibm_beamal_test_universal_alec/protocol/lufa/usb_util.o
 .data          0x00000000        0x0 .build/obj_xwhatsit_ibm_beamal_test_universal_alec/protocol/lufa/usb_util.o
 .bss           0x00000000        0x0 .build/obj_xwhatsit_ibm_beamal_test_universal_alec/protocol/lufa/usb_util.o
 .text.usb_disconnect
                0x00000000        0xa .build/obj_xwhatsit_ibm_beamal_test_universal_alec/protocol/lufa/usb_util.o
 .text.usb_connected_state
                0x00000000        0xc .build/obj_xwhatsit_ibm_beamal_test_universal_alec/protocol/lufa/usb_util.o
 .text.usb_vbus_state
                0x00000000       0x1a .build/obj_xwhatsit_ibm_beamal_test_universal_alec/protocol/lufa/usb_util.o
 .debug_info    0x00000000      0x41d .build/obj_xwhatsit_ibm_beamal_test_universal_alec/protocol/lufa/usb_util.o
 .debug_abbrev  0x00000000      0x260 .build/obj_xwhatsit_ibm_beamal_test_universal_alec/protocol/lufa/usb_util.o
 .debug_loc     0x00000000       0x4b .build/obj_xwhatsit_ibm_beamal_test_universal_alec/protocol/lufa/usb_util.o
 .debug_aranges
                0x00000000       0x30 .build/obj_xwhatsit_ibm_beamal_test_universal_alec/protocol/lufa/usb_util.o
 .debug_ranges  0x00000000       0x38 .build/obj_xwhatsit_ibm_beamal_test_universal_alec/protocol/lufa/usb_util.o
 .debug_line    0x00000000      0x332 .build/obj_xwhatsit_ibm_beamal_test_universal_alec/protocol/lufa/usb_util.o
 .debug_str     0x00000000      0x475 .build/obj_xwhatsit_ibm_beamal_test_universal_alec/protocol/lufa/usb_util.o
 .comment       0x00000000       0x25 .build/obj_xwhatsit_ibm_beamal_test_universal_alec/protocol/lufa/usb_util.o
 .debug_frame   0x00000000       0x44 .build/obj_xwhatsit_ibm_beamal_test_universal_alec/protocol/lufa/usb_util.o
 .text          0x00000000        0x0 /usr/local/Cellar/avr-gcc@8/8.5.0/lib/avr-gcc/8/gcc/avr/8.5.0/../../../../../../avr/lib/avr5/libm.a(fixunssfsi.o)
 .data          0x00000000        0x0 /usr/local/Cellar/avr-gcc@8/8.5.0/lib/avr-gcc/8/gcc/avr/8.5.0/../../../../../../avr/lib/avr5/libm.a(fixunssfsi.o)
 .bss           0x00000000        0x0 /usr/local/Cellar/avr-gcc@8/8.5.0/lib/avr-gcc/8/gcc/avr/8.5.0/../../../../../../avr/lib/avr5/libm.a(fixunssfsi.o)
 .text.avr-libc.fplib
                0x00000000       0x5e /usr/local/Cellar/avr-gcc@8/8.5.0/lib/avr-gcc/8/gcc/avr/8.5.0/../../../../../../avr/lib/avr5/libm.a(fixunssfsi.o)
 .text          0x00000000        0x0 /usr/local/Cellar/avr-gcc@8/8.5.0/lib/avr-gcc/8/gcc/avr/8.5.0/../../../../../../avr/lib/avr5/libm.a(fp_split3.o)
 .data          0x00000000        0x0 /usr/local/Cellar/avr-gcc@8/8.5.0/lib/avr-gcc/8/gcc/avr/8.5.0/../../../../../../avr/lib/avr5/libm.a(fp_split3.o)
 .bss           0x00000000        0x0 /usr/local/Cellar/avr-gcc@8/8.5.0/lib/avr-gcc/8/gcc/avr/8.5.0/../../../../../../avr/lib/avr5/libm.a(fp_split3.o)
 .text.avr-libc.fplib
                0x00000000       0x44 /usr/local/Cellar/avr-gcc@8/8.5.0/lib/avr-gcc/8/gcc/avr/8.5.0/../../../../../../avr/lib/avr5/libm.a(fp_split3.o)
 .text          0x00000000        0x0 /usr/local/Cellar/avr-gcc@8/8.5.0/lib/avr-gcc/8/gcc/avr/8.5.0/../../../../../../avr/lib/avr5/libm.a(fp_zero.o)
 .data          0x00000000        0x0 /usr/local/Cellar/avr-gcc@8/8.5.0/lib/avr-gcc/8/gcc/avr/8.5.0/../../../../../../avr/lib/avr5/libm.a(fp_zero.o)
 .bss           0x00000000        0x0 /usr/local/Cellar/avr-gcc@8/8.5.0/lib/avr-gcc/8/gcc/avr/8.5.0/../../../../../../avr/lib/avr5/libm.a(fp_zero.o)
 .text.avr-libc.fplib
                0x00000000        0xe /usr/local/Cellar/avr-gcc@8/8.5.0/lib/avr-gcc/8/gcc/avr/8.5.0/../../../../../../avr/lib/avr5/libm.a(fp_zero.o)
 .text          0x00000000        0x0 /usr/local/Cellar/avr-gcc@8/8.5.0/lib/avr-gcc/8/gcc/avr/8.5.0/../../../../../../avr/lib/avr5/libm.a(mulsf3.o)
 .data          0x00000000        0x0 /usr/local/Cellar/avr-gcc@8/8.5.0/lib/avr-gcc/8/gcc/avr/8.5.0/../../../../../../avr/lib/avr5/libm.a(mulsf3.o)
 .bss           0x00000000        0x0 /usr/local/Cellar/avr-gcc@8/8.5.0/lib/avr-gcc/8/gcc/avr/8.5.0/../../../../../../avr/lib/avr5/libm.a(mulsf3.o)
 .text.avr-libc.fplib
                0x00000000        0x8 /usr/local/Cellar/avr-gcc@8/8.5.0/lib/avr-gcc/8/gcc/avr/8.5.0/../../../../../../avr/lib/avr5/libm.a(mulsf3.o)
 .text          0x00000000        0x0 /usr/local/Cellar/avr-gcc@8/8.5.0/lib/avr-gcc/8/gcc/avr/8.5.0/../../../../../../avr/lib/avr5/libm.a(mulsf3x.o)
 .data          0x00000000        0x0 /usr/local/Cellar/avr-gcc@8/8.5.0/lib/avr-gcc/8/gcc/avr/8.5.0/../../../../../../avr/lib/avr5/libm.a(mulsf3x.o)
 .bss           0x00000000        0x0 /usr/local/Cellar/avr-gcc@8/8.5.0/lib/avr-gcc/8/gcc/avr/8.5.0/../../../../../../avr/lib/avr5/libm.a(mulsf3x.o)
 .text.avr-libc.fplib
                0x00000000       0xd2 /usr/local/Cellar/avr-gcc@8/8.5.0/lib/avr-gcc/8/gcc/avr/8.5.0/../../../../../../avr/lib/avr5/libm.a(mulsf3x.o)
 .text          0x00000000        0x0 /usr/local/Cellar/avr-gcc@8/8.5.0/lib/avr-gcc/8/gcc/avr/8.5.0/../../../../../../avr/lib/avr5/libm.a(fp_inf.o)
 .data          0x00000000        0x0 /usr/local/Cellar/avr-gcc@8/8.5.0/lib/avr-gcc/8/gcc/avr/8.5.0/../../../../../../avr/lib/avr5/libm.a(fp_inf.o)
 .bss           0x00000000        0x0 /usr/local/Cellar/avr-gcc@8/8.5.0/lib/avr-gcc/8/gcc/avr/8.5.0/../../../../../../avr/lib/avr5/libm.a(fp_inf.o)
 .text.avr-libc.fplib
                0x00000000        0xc /usr/local/Cellar/avr-gcc@8/8.5.0/lib/avr-gcc/8/gcc/avr/8.5.0/../../../../../../avr/lib/avr5/libm.a(fp_inf.o)
 .text          0x00000000        0x0 /usr/local/Cellar/avr-gcc@8/8.5.0/lib/avr-gcc/8/gcc/avr/8.5.0/../../../../../../avr/lib/avr5/libm.a(fp_nan.o)
 .data          0x00000000        0x0 /usr/local/Cellar/avr-gcc@8/8.5.0/lib/avr-gcc/8/gcc/avr/8.5.0/../../../../../../avr/lib/avr5/libm.a(fp_nan.o)
 .bss           0x00000000        0x0 /usr/local/Cellar/avr-gcc@8/8.5.0/lib/avr-gcc/8/gcc/avr/8.5.0/../../../../../../avr/lib/avr5/libm.a(fp_nan.o)
 .text.avr-libc.fplib
                0x00000000        0x6 /usr/local/Cellar/avr-gcc@8/8.5.0/lib/avr-gcc/8/gcc/avr/8.5.0/../../../../../../avr/lib/avr5/libm.a(fp_nan.o)
 .text          0x00000000        0x0 /usr/local/Cellar/avr-gcc@8/8.5.0/lib/avr-gcc/8/gcc/avr/8.5.0/../../../../../../avr/lib/avr5/libm.a(fp_pscA.o)
 .data          0x00000000        0x0 /usr/local/Cellar/avr-gcc@8/8.5.0/lib/avr-gcc/8/gcc/avr/8.5.0/../../../../../../avr/lib/avr5/libm.a(fp_pscA.o)
 .bss           0x00000000        0x0 /usr/local/Cellar/avr-gcc@8/8.5.0/lib/avr-gcc/8/gcc/avr/8.5.0/../../../../../../avr/lib/avr5/libm.a(fp_pscA.o)
 .text.avr-libc.fplib
                0x00000000        0xe /usr/local/Cellar/avr-gcc@8/8.5.0/lib/avr-gcc/8/gcc/avr/8.5.0/../../../../../../avr/lib/avr5/libm.a(fp_pscA.o)
 .text          0x00000000        0x0 /usr/local/Cellar/avr-gcc@8/8.5.0/lib/avr-gcc/8/gcc/avr/8.5.0/../../../../../../avr/lib/avr5/libm.a(fp_pscB.o)
 .data          0x00000000        0x0 /usr/local/Cellar/avr-gcc@8/8.5.0/lib/avr-gcc/8/gcc/avr/8.5.0/../../../../../../avr/lib/avr5/libm.a(fp_pscB.o)
 .bss           0x00000000        0x0 /usr/local/Cellar/avr-gcc@8/8.5.0/lib/avr-gcc/8/gcc/avr/8.5.0/../../../../../../avr/lib/avr5/libm.a(fp_pscB.o)
 .text.avr-libc.fplib
                0x00000000        0xe /usr/local/Cellar/avr-gcc@8/8.5.0/lib/avr-gcc/8/gcc/avr/8.5.0/../../../../../../avr/lib/avr5/libm.a(fp_pscB.o)
 .text          0x00000000        0x0 /usr/local/Cellar/avr-gcc@8/8.5.0/lib/avr-gcc/8/gcc/avr/8.5.0/../../../../../../avr/lib/avr5/libm.a(fp_round.o)
 .data          0x00000000        0x0 /usr/local/Cellar/avr-gcc@8/8.5.0/lib/avr-gcc/8/gcc/avr/8.5.0/../../../../../../avr/lib/avr5/libm.a(fp_round.o)
 .bss           0x00000000        0x0 /usr/local/Cellar/avr-gcc@8/8.5.0/lib/avr-gcc/8/gcc/avr/8.5.0/../../../../../../avr/lib/avr5/libm.a(fp_round.o)
 .text.avr-libc.fplib
                0x00000000       0x22 /usr/local/Cellar/avr-gcc@8/8.5.0/lib/avr-gcc/8/gcc/avr/8.5.0/../../../../../../avr/lib/avr5/libm.a(fp_round.o)
 .text          0x00000000        0x0 /usr/local/Cellar/avr-gcc@8/8.5.0/lib/avr-gcc/8/gcc/avr/8.5.0/avr5/libgcc.a(_udivmodqi4.o)
 .data          0x00000000        0x0 /usr/local/Cellar/avr-gcc@8/8.5.0/lib/avr-gcc/8/gcc/avr/8.5.0/avr5/libgcc.a(_udivmodqi4.o)
 .bss           0x00000000        0x0 /usr/local/Cellar/avr-gcc@8/8.5.0/lib/avr-gcc/8/gcc/avr/8.5.0/avr5/libgcc.a(_udivmodqi4.o)
 .text.libgcc.mul
                0x00000000        0x0 /usr/local/Cellar/avr-gcc@8/8.5.0/lib/avr-gcc/8/gcc/avr/8.5.0/avr5/libgcc.a(_udivmodqi4.o)
 .text.libgcc   0x00000000        0x0 /usr/local/Cellar/avr-gcc@8/8.5.0/lib/avr-gcc/8/gcc/avr/8.5.0/avr5/libgcc.a(_udivmodqi4.o)
 .text.libgcc.prologue
                0x00000000        0x0 /usr/local/Cellar/avr-gcc@8/8.5.0/lib/avr-gcc/8/gcc/avr/8.5.0/avr5/libgcc.a(_udivmodqi4.o)
 .text.libgcc.builtins
                0x00000000        0x0 /usr/local/Cellar/avr-gcc@8/8.5.0/lib/avr-gcc/8/gcc/avr/8.5.0/avr5/libgcc.a(_udivmodqi4.o)
 .text.libgcc.fmul
                0x00000000        0x0 /usr/local/Cellar/avr-gcc@8/8.5.0/lib/avr-gcc/8/gcc/avr/8.5.0/avr5/libgcc.a(_udivmodqi4.o)
 .text.libgcc.fixed
                0x00000000        0x0 /usr/local/Cellar/avr-gcc@8/8.5.0/lib/avr-gcc/8/gcc/avr/8.5.0/avr5/libgcc.a(_udivmodqi4.o)
 .text          0x00000000        0x0 /usr/local/Cellar/avr-gcc@8/8.5.0/lib/avr-gcc/8/gcc/avr/8.5.0/avr5/libgcc.a(_udivmodhi4.o)
 .data          0x00000000        0x0 /usr/local/Cellar/avr-gcc@8/8.5.0/lib/avr-gcc/8/gcc/avr/8.5.0/avr5/libgcc.a(_udivmodhi4.o)
 .bss           0x00000000        0x0 /usr/local/Cellar/avr-gcc@8/8.5.0/lib/avr-gcc/8/gcc/avr/8.5.0/avr5/libgcc.a(_udivmodhi4.o)
 .text.libgcc.mul
                0x00000000        0x0 /usr/local/Cellar/avr-gcc@8/8.5.0/lib/avr-gcc/8/gcc/avr/8.5.0/avr5/libgcc.a(_udivmodhi4.o)
 .text.libgcc   0x00000000        0x0 /usr/local/Cellar/avr-gcc@8/8.5.0/lib/avr-gcc/8/gcc/avr/8.5.0/avr5/libgcc.a(_udivmodhi4.o)
 .text.libgcc.prologue
                0x00000000        0x0 /usr/local/Cellar/avr-gcc@8/8.5.0/lib/avr-gcc/8/gcc/avr/8.5.0/avr5/libgcc.a(_udivmodhi4.o)
 .text.libgcc.builtins
                0x00000000        0x0 /usr/local/Cellar/avr-gcc@8/8.5.0/lib/avr-gcc/8/gcc/avr/8.5.0/avr5/libgcc.a(_udivmodhi4.o)
 .text.libgcc.fmul
                0x00000000        0x0 /usr/local/Cellar/avr-gcc@8/8.5.0/lib/avr-gcc/8/gcc/avr/8.5.0/avr5/libgcc.a(_udivmodhi4.o)
 .text.libgcc.fixed
                0x00000000        0x0 /usr/local/Cellar/avr-gcc@8/8.5.0/lib/avr-gcc/8/gcc/avr/8.5.0/avr5/libgcc.a(_udivmodhi4.o)
 .text          0x00000000        0x0 /usr/local/Cellar/avr-gcc@8/8.5.0/lib/avr-gcc/8/gcc/avr/8.5.0/avr5/libgcc.a(_divmodhi4.o)
 .data          0x00000000        0x0 /usr/local/Cellar/avr-gcc@8/8.5.0/lib/avr-gcc/8/gcc/avr/8.5.0/avr5/libgcc.a(_divmodhi4.o)
 .bss           0x00000000        0x0 /usr/local/Cellar/avr-gcc@8/8.5.0/lib/avr-gcc/8/gcc/avr/8.5.0/avr5/libgcc.a(_divmodhi4.o)
 .text.libgcc.mul
                0x00000000        0x0 /usr/local/Cellar/avr-gcc@8/8.5.0/lib/avr-gcc/8/gcc/avr/8.5.0/avr5/libgcc.a(_divmodhi4.o)
 .text.libgcc   0x00000000        0x0 /usr/local/Cellar/avr-gcc@8/8.5.0/lib/avr-gcc/8/gcc/avr/8.5.0/avr5/libgcc.a(_divmodhi4.o)
 .text.libgcc.prologue
                0x00000000        0x0 /usr/local/Cellar/avr-gcc@8/8.5.0/lib/avr-gcc/8/gcc/avr/8.5.0/avr5/libgcc.a(_divmodhi4.o)
 .text.libgcc.builtins
                0x00000000        0x0 /usr/local/Cellar/avr-gcc@8/8.5.0/lib/avr-gcc/8/gcc/avr/8.5.0/avr5/libgcc.a(_divmodhi4.o)
 .text.libgcc.fmul
                0x00000000        0x0 /usr/local/Cellar/avr-gcc@8/8.5.0/lib/avr-gcc/8/gcc/avr/8.5.0/avr5/libgcc.a(_divmodhi4.o)
 .text.libgcc.fixed
                0x00000000        0x0 /usr/local/Cellar/avr-gcc@8/8.5.0/lib/avr-gcc/8/gcc/avr/8.5.0/avr5/libgcc.a(_divmodhi4.o)
 .text          0x00000000        0x0 /usr/local/Cellar/avr-gcc@8/8.5.0/lib/avr-gcc/8/gcc/avr/8.5.0/avr5/libgcc.a(_udivmodsi4.o)
 .data          0x00000000        0x0 /usr/local/Cellar/avr-gcc@8/8.5.0/lib/avr-gcc/8/gcc/avr/8.5.0/avr5/libgcc.a(_udivmodsi4.o)
 .bss           0x00000000        0x0 /usr/local/Cellar/avr-gcc@8/8.5.0/lib/avr-gcc/8/gcc/avr/8.5.0/avr5/libgcc.a(_udivmodsi4.o)
 .text.libgcc.mul
                0x00000000        0x0 /usr/local/Cellar/avr-gcc@8/8.5.0/lib/avr-gcc/8/gcc/avr/8.5.0/avr5/libgcc.a(_udivmodsi4.o)
 .text.libgcc.div
                0x00000000       0x44 /usr/local/Cellar/avr-gcc@8/8.5.0/lib/avr-gcc/8/gcc/avr/8.5.0/avr5/libgcc.a(_udivmodsi4.o)
 .text.libgcc   0x00000000        0x0 /usr/local/Cellar/avr-gcc@8/8.5.0/lib/avr-gcc/8/gcc/avr/8.5.0/avr5/libgcc.a(_udivmodsi4.o)
 .text.libgcc.prologue
                0x00000000        0x0 /usr/local/Cellar/avr-gcc@8/8.5.0/lib/avr-gcc/8/gcc/avr/8.5.0/avr5/libgcc.a(_udivmodsi4.o)
 .text.libgcc.builtins
                0x00000000        0x0 /usr/local/Cellar/avr-gcc@8/8.5.0/lib/avr-gcc/8/gcc/avr/8.5.0/avr5/libgcc.a(_udivmodsi4.o)
 .text.libgcc.fmul
                0x00000000        0x0 /usr/local/Cellar/avr-gcc@8/8.5.0/lib/avr-gcc/8/gcc/avr/8.5.0/avr5/libgcc.a(_udivmodsi4.o)
 .text.libgcc.fixed
                0x00000000        0x0 /usr/local/Cellar/avr-gcc@8/8.5.0/lib/avr-gcc/8/gcc/avr/8.5.0/avr5/libgcc.a(_udivmodsi4.o)
 .debug_line    0x00000000      0x121 /usr/local/Cellar/avr-gcc@8/8.5.0/lib/avr-gcc/8/gcc/avr/8.5.0/avr5/libgcc.a(_udivmodsi4.o)
 .debug_info    0x00000000       0x26 /usr/local/Cellar/avr-gcc@8/8.5.0/lib/avr-gcc/8/gcc/avr/8.5.0/avr5/libgcc.a(_udivmodsi4.o)
 .debug_abbrev  0x00000000       0x14 /usr/local/Cellar/avr-gcc@8/8.5.0/lib/avr-gcc/8/gcc/avr/8.5.0/avr5/libgcc.a(_udivmodsi4.o)
 .debug_aranges
                0x00000000       0x20 /usr/local/Cellar/avr-gcc@8/8.5.0/lib/avr-gcc/8/gcc/avr/8.5.0/avr5/libgcc.a(_udivmodsi4.o)
 .debug_str     0x00000000       0x83 /usr/local/Cellar/avr-gcc@8/8.5.0/lib/avr-gcc/8/gcc/avr/8.5.0/avr5/libgcc.a(_udivmodsi4.o)
 .text          0x00000000        0x0 /usr/local/Cellar/avr-gcc@8/8.5.0/lib/avr-gcc/8/gcc/avr/8.5.0/avr5/libgcc.a(_exit.o)
 .data          0x00000000        0x0 /usr/local/Cellar/avr-gcc@8/8.5.0/lib/avr-gcc/8/gcc/avr/8.5.0/avr5/libgcc.a(_exit.o)
 .bss           0x00000000        0x0 /usr/local/Cellar/avr-gcc@8/8.5.0/lib/avr-gcc/8/gcc/avr/8.5.0/avr5/libgcc.a(_exit.o)
 .text.libgcc.mul
                0x00000000        0x0 /usr/local/Cellar/avr-gcc@8/8.5.0/lib/avr-gcc/8/gcc/avr/8.5.0/avr5/libgcc.a(_exit.o)
 .text.libgcc.div
                0x00000000        0x0 /usr/local/Cellar/avr-gcc@8/8.5.0/lib/avr-gcc/8/gcc/avr/8.5.0/avr5/libgcc.a(_exit.o)
 .text.libgcc   0x00000000        0x0 /usr/local/Cellar/avr-gcc@8/8.5.0/lib/avr-gcc/8/gcc/avr/8.5.0/avr5/libgcc.a(_exit.o)
 .text.libgcc.prologue
                0x00000000        0x0 /usr/local/Cellar/avr-gcc@8/8.5.0/lib/avr-gcc/8/gcc/avr/8.5.0/avr5/libgcc.a(_exit.o)
 .text.libgcc.builtins
                0x00000000        0x0 /usr/local/Cellar/avr-gcc@8/8.5.0/lib/avr-gcc/8/gcc/avr/8.5.0/avr5/libgcc.a(_exit.o)
 .text.libgcc.fmul
                0x00000000        0x0 /usr/local/Cellar/avr-gcc@8/8.5.0/lib/avr-gcc/8/gcc/avr/8.5.0/avr5/libgcc.a(_exit.o)
 .text.libgcc.fixed
                0x00000000        0x0 /usr/local/Cellar/avr-gcc@8/8.5.0/lib/avr-gcc/8/gcc/avr/8.5.0/avr5/libgcc.a(_exit.o)
 .text          0x00000000        0x0 /usr/local/Cellar/avr-gcc@8/8.5.0/lib/avr-gcc/8/gcc/avr/8.5.0/avr5/libgcc.a(_tablejump2.o)
 .data          0x00000000        0x0 /usr/local/Cellar/avr-gcc@8/8.5.0/lib/avr-gcc/8/gcc/avr/8.5.0/avr5/libgcc.a(_tablejump2.o)
 .bss           0x00000000        0x0 /usr/local/Cellar/avr-gcc@8/8.5.0/lib/avr-gcc/8/gcc/avr/8.5.0/avr5/libgcc.a(_tablejump2.o)
 .text.libgcc.mul
                0x00000000        0x0 /usr/local/Cellar/avr-gcc@8/8.5.0/lib/avr-gcc/8/gcc/avr/8.5.0/avr5/libgcc.a(_tablejump2.o)
 .text.libgcc.div
                0x00000000        0x0 /usr/local/Cellar/avr-gcc@8/8.5.0/lib/avr-gcc/8/gcc/avr/8.5.0/avr5/libgcc.a(_tablejump2.o)
 .text.libgcc.prologue
                0x00000000        0x0 /usr/local/Cellar/avr-gcc@8/8.5.0/lib/avr-gcc/8/gcc/avr/8.5.0/avr5/libgcc.a(_tablejump2.o)
 .text.libgcc.builtins
                0x00000000        0x0 /usr/local/Cellar/avr-gcc@8/8.5.0/lib/avr-gcc/8/gcc/avr/8.5.0/avr5/libgcc.a(_tablejump2.o)
 .text.libgcc.fmul
                0x00000000        0x0 /usr/local/Cellar/avr-gcc@8/8.5.0/lib/avr-gcc/8/gcc/avr/8.5.0/avr5/libgcc.a(_tablejump2.o)
 .text.libgcc.fixed
                0x00000000        0x0 /usr/local/Cellar/avr-gcc@8/8.5.0/lib/avr-gcc/8/gcc/avr/8.5.0/avr5/libgcc.a(_tablejump2.o)
 .text          0x00000000        0x0 /usr/local/Cellar/avr-gcc@8/8.5.0/lib/avr-gcc/8/gcc/avr/8.5.0/avr5/libgcc.a(_copy_data.o)
 .data          0x00000000        0x0 /usr/local/Cellar/avr-gcc@8/8.5.0/lib/avr-gcc/8/gcc/avr/8.5.0/avr5/libgcc.a(_copy_data.o)
 .bss           0x00000000        0x0 /usr/local/Cellar/avr-gcc@8/8.5.0/lib/avr-gcc/8/gcc/avr/8.5.0/avr5/libgcc.a(_copy_data.o)
 .text.libgcc.mul
                0x00000000        0x0 /usr/local/Cellar/avr-gcc@8/8.5.0/lib/avr-gcc/8/gcc/avr/8.5.0/avr5/libgcc.a(_copy_data.o)
 .text.libgcc.div
                0x00000000        0x0 /usr/local/Cellar/avr-gcc@8/8.5.0/lib/avr-gcc/8/gcc/avr/8.5.0/avr5/libgcc.a(_copy_data.o)
 .text.libgcc   0x00000000        0x0 /usr/local/Cellar/avr-gcc@8/8.5.0/lib/avr-gcc/8/gcc/avr/8.5.0/avr5/libgcc.a(_copy_data.o)
 .text.libgcc.prologue
                0x00000000        0x0 /usr/local/Cellar/avr-gcc@8/8.5.0/lib/avr-gcc/8/gcc/avr/8.5.0/avr5/libgcc.a(_copy_data.o)
 .text.libgcc.builtins
                0x00000000        0x0 /usr/local/Cellar/avr-gcc@8/8.5.0/lib/avr-gcc/8/gcc/avr/8.5.0/avr5/libgcc.a(_copy_data.o)
 .text.libgcc.fmul
                0x00000000        0x0 /usr/local/Cellar/avr-gcc@8/8.5.0/lib/avr-gcc/8/gcc/avr/8.5.0/avr5/libgcc.a(_copy_data.o)
 .text.libgcc.fixed
                0x00000000        0x0 /usr/local/Cellar/avr-gcc@8/8.5.0/lib/avr-gcc/8/gcc/avr/8.5.0/avr5/libgcc.a(_copy_data.o)
 .text          0x00000000        0x0 /usr/local/Cellar/avr-gcc@8/8.5.0/lib/avr-gcc/8/gcc/avr/8.5.0/avr5/libgcc.a(_clear_bss.o)
 .data          0x00000000        0x0 /usr/local/Cellar/avr-gcc@8/8.5.0/lib/avr-gcc/8/gcc/avr/8.5.0/avr5/libgcc.a(_clear_bss.o)
 .bss           0x00000000        0x0 /usr/local/Cellar/avr-gcc@8/8.5.0/lib/avr-gcc/8/gcc/avr/8.5.0/avr5/libgcc.a(_clear_bss.o)
 .text.libgcc.mul
                0x00000000        0x0 /usr/local/Cellar/avr-gcc@8/8.5.0/lib/avr-gcc/8/gcc/avr/8.5.0/avr5/libgcc.a(_clear_bss.o)
 .text.libgcc.div
                0x00000000        0x0 /usr/local/Cellar/avr-gcc@8/8.5.0/lib/avr-gcc/8/gcc/avr/8.5.0/avr5/libgcc.a(_clear_bss.o)
 .text.libgcc   0x00000000        0x0 /usr/local/Cellar/avr-gcc@8/8.5.0/lib/avr-gcc/8/gcc/avr/8.5.0/avr5/libgcc.a(_clear_bss.o)
 .text.libgcc.prologue
                0x00000000        0x0 /usr/local/Cellar/avr-gcc@8/8.5.0/lib/avr-gcc/8/gcc/avr/8.5.0/avr5/libgcc.a(_clear_bss.o)
 .text.libgcc.builtins
                0x00000000        0x0 /usr/local/Cellar/avr-gcc@8/8.5.0/lib/avr-gcc/8/gcc/avr/8.5.0/avr5/libgcc.a(_clear_bss.o)
 .text.libgcc.fmul
                0x00000000        0x0 /usr/local/Cellar/avr-gcc@8/8.5.0/lib/avr-gcc/8/gcc/avr/8.5.0/avr5/libgcc.a(_clear_bss.o)
 .text.libgcc.fixed
                0x00000000        0x0 /usr/local/Cellar/avr-gcc@8/8.5.0/lib/avr-gcc/8/gcc/avr/8.5.0/avr5/libgcc.a(_clear_bss.o)
 .text          0x00000000        0x0 /usr/local/Cellar/avr-gcc@8/8.5.0/lib/avr-gcc/8/gcc/avr/8.5.0/avr5/libgcc.a(_ctors.o)
 .data          0x00000000        0x0 /usr/local/Cellar/avr-gcc@8/8.5.0/lib/avr-gcc/8/gcc/avr/8.5.0/avr5/libgcc.a(_ctors.o)
 .bss           0x00000000        0x0 /usr/local/Cellar/avr-gcc@8/8.5.0/lib/avr-gcc/8/gcc/avr/8.5.0/avr5/libgcc.a(_ctors.o)
 .text.libgcc.mul
                0x00000000        0x0 /usr/local/Cellar/avr-gcc@8/8.5.0/lib/avr-gcc/8/gcc/avr/8.5.0/avr5/libgcc.a(_ctors.o)
 .text.libgcc.div
                0x00000000        0x0 /usr/local/Cellar/avr-gcc@8/8.5.0/lib/avr-gcc/8/gcc/avr/8.5.0/avr5/libgcc.a(_ctors.o)
 .text.libgcc   0x00000000        0x0 /usr/local/Cellar/avr-gcc@8/8.5.0/lib/avr-gcc/8/gcc/avr/8.5.0/avr5/libgcc.a(_ctors.o)
 .text.libgcc.prologue
                0x00000000        0x0 /usr/local/Cellar/avr-gcc@8/8.5.0/lib/avr-gcc/8/gcc/avr/8.5.0/avr5/libgcc.a(_ctors.o)
 .text.libgcc.builtins
                0x00000000        0x0 /usr/local/Cellar/avr-gcc@8/8.5.0/lib/avr-gcc/8/gcc/avr/8.5.0/avr5/libgcc.a(_ctors.o)
 .text.libgcc.fmul
                0x00000000        0x0 /usr/local/Cellar/avr-gcc@8/8.5.0/lib/avr-gcc/8/gcc/avr/8.5.0/avr5/libgcc.a(_ctors.o)
 .text.libgcc.fixed
                0x00000000        0x0 /usr/local/Cellar/avr-gcc@8/8.5.0/lib/avr-gcc/8/gcc/avr/8.5.0/avr5/libgcc.a(_ctors.o)
 .text          0x00000000        0x0 /usr/local/Cellar/avr-gcc@8/8.5.0/lib/avr-gcc/8/gcc/avr/8.5.0/avr5/libgcc.a(_prologue.o)
 .data          0x00000000        0x0 /usr/local/Cellar/avr-gcc@8/8.5.0/lib/avr-gcc/8/gcc/avr/8.5.0/avr5/libgcc.a(_prologue.o)
 .bss           0x00000000        0x0 /usr/local/Cellar/avr-gcc@8/8.5.0/lib/avr-gcc/8/gcc/avr/8.5.0/avr5/libgcc.a(_prologue.o)
 .text.libgcc.mul
                0x00000000        0x0 /usr/local/Cellar/avr-gcc@8/8.5.0/lib/avr-gcc/8/gcc/avr/8.5.0/avr5/libgcc.a(_prologue.o)
 .text.libgcc.div
                0x00000000        0x0 /usr/local/Cellar/avr-gcc@8/8.5.0/lib/avr-gcc/8/gcc/avr/8.5.0/avr5/libgcc.a(_prologue.o)
 .text.libgcc   0x00000000        0x0 /usr/local/Cellar/avr-gcc@8/8.5.0/lib/avr-gcc/8/gcc/avr/8.5.0/avr5/libgcc.a(_prologue.o)
 .text.libgcc.builtins
                0x00000000        0x0 /usr/local/Cellar/avr-gcc@8/8.5.0/lib/avr-gcc/8/gcc/avr/8.5.0/avr5/libgcc.a(_prologue.o)
 .text.libgcc.fmul
                0x00000000        0x0 /usr/local/Cellar/avr-gcc@8/8.5.0/lib/avr-gcc/8/gcc/avr/8.5.0/avr5/libgcc.a(_prologue.o)
 .text.libgcc.fixed
                0x00000000        0x0 /usr/local/Cellar/avr-gcc@8/8.5.0/lib/avr-gcc/8/gcc/avr/8.5.0/avr5/libgcc.a(_prologue.o)
 .text          0x00000000        0x0 /usr/local/Cellar/avr-gcc@8/8.5.0/lib/avr-gcc/8/gcc/avr/8.5.0/avr5/libgcc.a(_epilogue.o)
 .data          0x00000000        0x0 /usr/local/Cellar/avr-gcc@8/8.5.0/lib/avr-gcc/8/gcc/avr/8.5.0/avr5/libgcc.a(_epilogue.o)
 .bss           0x00000000        0x0 /usr/local/Cellar/avr-gcc@8/8.5.0/lib/avr-gcc/8/gcc/avr/8.5.0/avr5/libgcc.a(_epilogue.o)
 .text.libgcc.mul
                0x00000000        0x0 /usr/local/Cellar/avr-gcc@8/8.5.0/lib/avr-gcc/8/gcc/avr/8.5.0/avr5/libgcc.a(_epilogue.o)
 .text.libgcc.div
                0x00000000        0x0 /usr/local/Cellar/avr-gcc@8/8.5.0/lib/avr-gcc/8/gcc/avr/8.5.0/avr5/libgcc.a(_epilogue.o)
 .text.libgcc   0x00000000        0x0 /usr/local/Cellar/avr-gcc@8/8.5.0/lib/avr-gcc/8/gcc/avr/8.5.0/avr5/libgcc.a(_epilogue.o)
 .text.libgcc.builtins
                0x00000000        0x0 /usr/local/Cellar/avr-gcc@8/8.5.0/lib/avr-gcc/8/gcc/avr/8.5.0/avr5/libgcc.a(_epilogue.o)
 .text.libgcc.fmul
                0x00000000        0x0 /usr/local/Cellar/avr-gcc@8/8.5.0/lib/avr-gcc/8/gcc/avr/8.5.0/avr5/libgcc.a(_epilogue.o)
 .text.libgcc.fixed
                0x00000000        0x0 /usr/local/Cellar/avr-gcc@8/8.5.0/lib/avr-gcc/8/gcc/avr/8.5.0/avr5/libgcc.a(_epilogue.o)
 .text          0x00000000        0x0 /usr/local/Cellar/avr-gcc@8/8.5.0/lib/avr-gcc/8/gcc/avr/8.5.0/../../../../../../avr/lib/avr5/libc.a(memcmp.o)
 .data          0x00000000        0x0 /usr/local/Cellar/avr-gcc@8/8.5.0/lib/avr-gcc/8/gcc/avr/8.5.0/../../../../../../avr/lib/avr5/libc.a(memcmp.o)
 .bss           0x00000000        0x0 /usr/local/Cellar/avr-gcc@8/8.5.0/lib/avr-gcc/8/gcc/avr/8.5.0/../../../../../../avr/lib/avr5/libc.a(memcmp.o)
 .text          0x00000000        0x0 /usr/local/Cellar/avr-gcc@8/8.5.0/lib/avr-gcc/8/gcc/avr/8.5.0/../../../../../../avr/lib/avr5/libc.a(memcpy.o)
 .data          0x00000000        0x0 /usr/local/Cellar/avr-gcc@8/8.5.0/lib/avr-gcc/8/gcc/avr/8.5.0/../../../../../../avr/lib/avr5/libc.a(memcpy.o)
 .bss           0x00000000        0x0 /usr/local/Cellar/avr-gcc@8/8.5.0/lib/avr-gcc/8/gcc/avr/8.5.0/../../../../../../avr/lib/avr5/libc.a(memcpy.o)
 .text          0x00000000        0x0 /usr/local/Cellar/avr-gcc@8/8.5.0/lib/avr-gcc/8/gcc/avr/8.5.0/../../../../../../avr/lib/avr5/libc.a(memset.o)
 .data          0x00000000        0x0 /usr/local/Cellar/avr-gcc@8/8.5.0/lib/avr-gcc/8/gcc/avr/8.5.0/../../../../../../avr/lib/avr5/libc.a(memset.o)
 .bss           0x00000000        0x0 /usr/local/Cellar/avr-gcc@8/8.5.0/lib/avr-gcc/8/gcc/avr/8.5.0/../../../../../../avr/lib/avr5/libc.a(memset.o)
 .text          0x00000000        0x0 /usr/local/Cellar/avr-gcc@8/8.5.0/lib/avr-gcc/8/gcc/avr/8.5.0/../../../../../../avr/lib/avr5/libatmega32u4.a(eerd_byte.o)
 .data          0x00000000        0x0 /usr/local/Cellar/avr-gcc@8/8.5.0/lib/avr-gcc/8/gcc/avr/8.5.0/../../../../../../avr/lib/avr5/libatmega32u4.a(eerd_byte.o)
 .bss           0x00000000        0x0 /usr/local/Cellar/avr-gcc@8/8.5.0/lib/avr-gcc/8/gcc/avr/8.5.0/../../../../../../avr/lib/avr5/libatmega32u4.a(eerd_byte.o)
 .text          0x00000000        0x0 /usr/local/Cellar/avr-gcc@8/8.5.0/lib/avr-gcc/8/gcc/avr/8.5.0/../../../../../../avr/lib/avr5/libatmega32u4.a(eerd_dword.o)
 .data          0x00000000        0x0 /usr/local/Cellar/avr-gcc@8/8.5.0/lib/avr-gcc/8/gcc/avr/8.5.0/../../../../../../avr/lib/avr5/libatmega32u4.a(eerd_dword.o)
 .bss           0x00000000        0x0 /usr/local/Cellar/avr-gcc@8/8.5.0/lib/avr-gcc/8/gcc/avr/8.5.0/../../../../../../avr/lib/avr5/libatmega32u4.a(eerd_dword.o)
 .text          0x00000000        0x0 /usr/local/Cellar/avr-gcc@8/8.5.0/lib/avr-gcc/8/gcc/avr/8.5.0/../../../../../../avr/lib/avr5/libatmega32u4.a(eerd_word.o)
 .data          0x00000000        0x0 /usr/local/Cellar/avr-gcc@8/8.5.0/lib/avr-gcc/8/gcc/avr/8.5.0/../../../../../../avr/lib/avr5/libatmega32u4.a(eerd_word.o)
 .bss           0x00000000        0x0 /usr/local/Cellar/avr-gcc@8/8.5.0/lib/avr-gcc/8/gcc/avr/8.5.0/../../../../../../avr/lib/avr5/libatmega32u4.a(eerd_word.o)
 .text          0x00000000        0x0 /usr/local/Cellar/avr-gcc@8/8.5.0/lib/avr-gcc/8/gcc/avr/8.5.0/../../../../../../avr/lib/avr5/libatmega32u4.a(eeupd_byte.o)
 .data          0x00000000        0x0 /usr/local/Cellar/avr-gcc@8/8.5.0/lib/avr-gcc/8/gcc/avr/8.5.0/../../../../../../avr/lib/avr5/libatmega32u4.a(eeupd_byte.o)
 .bss           0x00000000        0x0 /usr/local/Cellar/avr-gcc@8/8.5.0/lib/avr-gcc/8/gcc/avr/8.5.0/../../../../../../avr/lib/avr5/libatmega32u4.a(eeupd_byte.o)
 .text          0x00000000        0x0 /usr/local/Cellar/avr-gcc@8/8.5.0/lib/avr-gcc/8/gcc/avr/8.5.0/../../../../../../avr/lib/avr5/libatmega32u4.a(eeupd_dword.o)
 .data          0x00000000        0x0 /usr/local/Cellar/avr-gcc@8/8.5.0/lib/avr-gcc/8/gcc/avr/8.5.0/../../../../../../avr/lib/avr5/libatmega32u4.a(eeupd_dword.o)
 .bss           0x00000000        0x0 /usr/local/Cellar/avr-gcc@8/8.5.0/lib/avr-gcc/8/gcc/avr/8.5.0/../../../../../../avr/lib/avr5/libatmega32u4.a(eeupd_dword.o)
 .text          0x00000000        0x0 /usr/local/Cellar/avr-gcc@8/8.5.0/lib/avr-gcc/8/gcc/avr/8.5.0/../../../../../../avr/lib/avr5/libatmega32u4.a(eeupd_word.o)
 .data          0x00000000        0x0 /usr/local/Cellar/avr-gcc@8/8.5.0/lib/avr-gcc/8/gcc/avr/8.5.0/../../../../../../avr/lib/avr5/libatmega32u4.a(eeupd_word.o)
 .bss           0x00000000        0x0 /usr/local/Cellar/avr-gcc@8/8.5.0/lib/avr-gcc/8/gcc/avr/8.5.0/../../../../../../avr/lib/avr5/libatmega32u4.a(eeupd_word.o)
 .text          0x00000000        0x0 /usr/local/Cellar/avr-gcc@8/8.5.0/lib/avr-gcc/8/gcc/avr/8.5.0/../../../../../../avr/lib/avr5/libatmega32u4.a(eerd_block.o)
 .data          0x00000000        0x0 /usr/local/Cellar/avr-gcc@8/8.5.0/lib/avr-gcc/8/gcc/avr/8.5.0/../../../../../../avr/lib/avr5/libatmega32u4.a(eerd_block.o)
 .bss           0x00000000        0x0 /usr/local/Cellar/avr-gcc@8/8.5.0/lib/avr-gcc/8/gcc/avr/8.5.0/../../../../../../avr/lib/avr5/libatmega32u4.a(eerd_block.o)

Memory Configuration

Name             Origin             Length             Attributes
text             0x00000000         0x00020000         xr
data             0x00800060         0x0000ffa0         rw!x
eeprom           0x00810000         0x00010000         rw!x
fuse             0x00820000         0x00000003         rw!x
lock             0x00830000         0x00000400         rw!x
signature        0x00840000         0x00000400         rw!x
user_signatures  0x00850000         0x00000400         rw!x
*default*        0x00000000         0xffffffff

Linker script and memory map

Address of section .data set to 0x800100
LOAD /usr/local/Cellar/avr-gcc@8/8.5.0/lib/avr-gcc/8/gcc/avr/8.5.0/../../../../../../avr/lib/avr5/crtatmega32u4.o
LOAD .build/obj_xwhatsit_ibm_beamal_test_universal_alec/keyboards/xwhatsit/matrix.o
LOAD .build/obj_xwhatsit_ibm_beamal_test_universal_alec/keyboards/xwhatsit/util_comm.o
LOAD .build/obj_xwhatsit_ibm_beamal_test_universal_alec/keyboards/xwhatsit/xwhatsit.o
LOAD .build/obj_xwhatsit_ibm_beamal_test_universal_alec/keyboards/xwhatsit/ibm/beamal_test/universal/universal.o
LOAD .build/obj_xwhatsit_ibm_beamal_test_universal_alec/.build/obj_xwhatsit_ibm_beamal_test_universal/src/default_keyboard.o
LOAD .build/obj_xwhatsit_ibm_beamal_test_universal_alec/quantum/keymap_introspection.o
LOAD .build/obj_xwhatsit_ibm_beamal_test_universal_alec/quantum/quantum.o
LOAD .build/obj_xwhatsit_ibm_beamal_test_universal_alec/quantum/bitwise.o
LOAD .build/obj_xwhatsit_ibm_beamal_test_universal_alec/quantum/led.o
LOAD .build/obj_xwhatsit_ibm_beamal_test_universal_alec/quantum/action.o
LOAD .build/obj_xwhatsit_ibm_beamal_test_universal_alec/quantum/action_layer.o
LOAD .build/obj_xwhatsit_ibm_beamal_test_universal_alec/quantum/action_tapping.o
LOAD .build/obj_xwhatsit_ibm_beamal_test_universal_alec/quantum/action_util.o
LOAD .build/obj_xwhatsit_ibm_beamal_test_universal_alec/quantum/eeconfig.o
LOAD .build/obj_xwhatsit_ibm_beamal_test_universal_alec/quantum/keyboard.o
LOAD .build/obj_xwhatsit_ibm_beamal_test_universal_alec/quantum/keymap_common.o
LOAD .build/obj_xwhatsit_ibm_beamal_test_universal_alec/quantum/keycode_config.o
LOAD .build/obj_xwhatsit_ibm_beamal_test_universal_alec/quantum/sync_timer.o
LOAD .build/obj_xwhatsit_ibm_beamal_test_universal_alec/quantum/logging/debug.o
LOAD .build/obj_xwhatsit_ibm_beamal_test_universal_alec/quantum/logging/sendchar.o
LOAD .build/obj_xwhatsit_ibm_beamal_test_universal_alec/quantum/bootmagic/bootmagic_lite.o
LOAD .build/obj_xwhatsit_ibm_beamal_test_universal_alec/quantum/bootmagic/magic.o
LOAD .build/obj_xwhatsit_ibm_beamal_test_universal_alec/quantum/matrix_common.o
LOAD .build/obj_xwhatsit_ibm_beamal_test_universal_alec/quantum/debounce/sym_defer_g.o
LOAD .build/obj_xwhatsit_ibm_beamal_test_universal_alec/quantum/main.o
LOAD .build/obj_xwhatsit_ibm_beamal_test_universal_alec/solenoid.o
LOAD .build/obj_xwhatsit_ibm_beamal_test_universal_alec/quantum/process_keycode/process_unicode.o
LOAD .build/obj_xwhatsit_ibm_beamal_test_universal_alec/quantum/process_keycode/process_unicode_common.o
LOAD .build/obj_xwhatsit_ibm_beamal_test_universal_alec/quantum/utf8.o
LOAD .build/obj_xwhatsit_ibm_beamal_test_universal_alec/quantum/process_keycode/process_magic.o
LOAD .build/obj_xwhatsit_ibm_beamal_test_universal_alec/quantum/send_string/send_string.o
LOAD .build/obj_xwhatsit_ibm_beamal_test_universal_alec/quantum/process_keycode/process_dynamic_macro.o
LOAD .build/obj_xwhatsit_ibm_beamal_test_universal_alec/quantum/process_keycode/process_grave_esc.o
LOAD .build/obj_xwhatsit_ibm_beamal_test_universal_alec/quantum/process_keycode/process_haptic.o
LOAD .build/obj_xwhatsit_ibm_beamal_test_universal_alec/quantum/haptic.o
LOAD .build/obj_xwhatsit_ibm_beamal_test_universal_alec/quantum/process_keycode/process_space_cadet.o
LOAD .build/obj_xwhatsit_ibm_beamal_test_universal_alec/platforms/avr/xprintf.o
LOAD .build/obj_xwhatsit_ibm_beamal_test_universal_alec/platforms/avr/printf.o
LOAD .build/obj_xwhatsit_ibm_beamal_test_universal_alec/protocol/host.o
LOAD .build/obj_xwhatsit_ibm_beamal_test_universal_alec/protocol/report.o
LOAD .build/obj_xwhatsit_ibm_beamal_test_universal_alec/protocol/usb_device_state.o
LOAD .build/obj_xwhatsit_ibm_beamal_test_universal_alec/protocol/usb_util.o
LOAD .build/obj_xwhatsit_ibm_beamal_test_universal_alec/platforms/suspend.o
LOAD .build/obj_xwhatsit_ibm_beamal_test_universal_alec/platforms/avr/hardware_id.o
LOAD .build/obj_xwhatsit_ibm_beamal_test_universal_alec/platforms/avr/platform.o
LOAD .build/obj_xwhatsit_ibm_beamal_test_universal_alec/platforms/avr/suspend.o
LOAD .build/obj_xwhatsit_ibm_beamal_test_universal_alec/platforms/avr/timer.o
LOAD .build/obj_xwhatsit_ibm_beamal_test_universal_alec/platforms/avr/bootloaders/caterina.o
LOAD .build/obj_xwhatsit_ibm_beamal_test_universal_alec/lufa.o
LOAD .build/obj_xwhatsit_ibm_beamal_test_universal_alec/usb_descriptor.o
LOAD .build/obj_xwhatsit_ibm_beamal_test_universal_alec/lib/lufa/LUFA/Drivers/USB/Class/Common/HIDParser.o
LOAD .build/obj_xwhatsit_ibm_beamal_test_universal_alec/lib/lufa/LUFA/Drivers/USB/Core/AVR8/Device_AVR8.o
LOAD .build/obj_xwhatsit_ibm_beamal_test_universal_alec/lib/lufa/LUFA/Drivers/USB/Core/AVR8/EndpointStream_AVR8.o
LOAD .build/obj_xwhatsit_ibm_beamal_test_universal_alec/lib/lufa/LUFA/Drivers/USB/Core/AVR8/Endpoint_AVR8.o
LOAD .build/obj_xwhatsit_ibm_beamal_test_universal_alec/lib/lufa/LUFA/Drivers/USB/Core/AVR8/Host_AVR8.o
LOAD .build/obj_xwhatsit_ibm_beamal_test_universal_alec/lib/lufa/LUFA/Drivers/USB/Core/AVR8/PipeStream_AVR8.o
LOAD .build/obj_xwhatsit_ibm_beamal_test_universal_alec/lib/lufa/LUFA/Drivers/USB/Core/AVR8/Pipe_AVR8.o
LOAD .build/obj_xwhatsit_ibm_beamal_test_universal_alec/lib/lufa/LUFA/Drivers/USB/Core/AVR8/USBController_AVR8.o
LOAD .build/obj_xwhatsit_ibm_beamal_test_universal_alec/lib/lufa/LUFA/Drivers/USB/Core/AVR8/USBInterrupt_AVR8.o
LOAD .build/obj_xwhatsit_ibm_beamal_test_universal_alec/lib/lufa/LUFA/Drivers/USB/Core/ConfigDescriptors.o
LOAD .build/obj_xwhatsit_ibm_beamal_test_universal_alec/lib/lufa/LUFA/Drivers/USB/Core/DeviceStandardReq.o
LOAD .build/obj_xwhatsit_ibm_beamal_test_universal_alec/lib/lufa/LUFA/Drivers/USB/Core/Events.o
LOAD .build/obj_xwhatsit_ibm_beamal_test_universal_alec/lib/lufa/LUFA/Drivers/USB/Core/HostStandardReq.o
LOAD .build/obj_xwhatsit_ibm_beamal_test_universal_alec/lib/lufa/LUFA/Drivers/USB/Core/USBTask.o
LOAD .build/obj_xwhatsit_ibm_beamal_test_universal_alec/protocol/lufa/usb_util.o
LOAD /usr/local/Cellar/avr-gcc@8/8.5.0/lib/avr-gcc/8/gcc/avr/8.5.0/../../../../../../avr/lib/avr5/libm.a
START GROUP
LOAD /usr/local/Cellar/avr-gcc@8/8.5.0/lib/avr-gcc/8/gcc/avr/8.5.0/avr5/libgcc.a
LOAD /usr/local/Cellar/avr-gcc@8/8.5.0/lib/avr-gcc/8/gcc/avr/8.5.0/../../../../../../avr/lib/avr5/libm.a
LOAD /usr/local/Cellar/avr-gcc@8/8.5.0/lib/avr-gcc/8/gcc/avr/8.5.0/../../../../../../avr/lib/avr5/libc.a
LOAD /usr/local/Cellar/avr-gcc@8/8.5.0/lib/avr-gcc/8/gcc/avr/8.5.0/../../../../../../avr/lib/avr5/libatmega32u4.a
END GROUP
                0x00020000                        __TEXT_REGION_LENGTH__ = DEFINED (__TEXT_REGION_LENGTH__)?__TEXT_REGION_LENGTH__:0x20000
                0x00800060                        __DATA_REGION_ORIGIN__ = DEFINED (__DATA_REGION_ORIGIN__)?__DATA_REGION_ORIGIN__:0x800060
                0x0000ffa0                        __DATA_REGION_LENGTH__ = DEFINED (__DATA_REGION_LENGTH__)?__DATA_REGION_LENGTH__:0xffa0
                0x00010000                        __EEPROM_REGION_LENGTH__ = DEFINED (__EEPROM_REGION_LENGTH__)?__EEPROM_REGION_LENGTH__:0x10000
                [0x00000003]                      __FUSE_REGION_LENGTH__ = DEFINED (__FUSE_REGION_LENGTH__)?__FUSE_REGION_LENGTH__:0x400
                0x00000400                        __LOCK_REGION_LENGTH__ = DEFINED (__LOCK_REGION_LENGTH__)?__LOCK_REGION_LENGTH__:0x400
                0x00000400                        __SIGNATURE_REGION_LENGTH__ = DEFINED (__SIGNATURE_REGION_LENGTH__)?__SIGNATURE_REGION_LENGTH__:0x400
                0x00000400                        __USER_SIGNATURE_REGION_LENGTH__ = DEFINED (__USER_SIGNATURE_REGION_LENGTH__)?__USER_SIGNATURE_REGION_LENGTH__:0x400

.hash
 *(.hash)

.dynsym
 *(.dynsym)

.dynstr
 *(.dynstr)

.gnu.version
 *(.gnu.version)

.gnu.version_d
 *(.gnu.version_d)

.gnu.version_r
 *(.gnu.version_r)

.rel.init
 *(.rel.init)

.rela.init
 *(.rela.init)

.rel.text
 *(.rel.text)
 *(.rel.text.*)
 *(.rel.gnu.linkonce.t*)

.rela.text
 *(.rela.text)
 *(.rela.text.*)
 *(.rela.gnu.linkonce.t*)

.rel.fini
 *(.rel.fini)

.rela.fini
 *(.rela.fini)

.rel.rodata
 *(.rel.rodata)
 *(.rel.rodata.*)
 *(.rel.gnu.linkonce.r*)

.rela.rodata
 *(.rela.rodata)
 *(.rela.rodata.*)
 *(.rela.gnu.linkonce.r*)

.rel.data
 *(.rel.data)
 *(.rel.data.*)
 *(.rel.gnu.linkonce.d*)

.rela.data
 *(.rela.data)
 *(.rela.data.*)
 *(.rela.gnu.linkonce.d*)

.rel.ctors
 *(.rel.ctors)

.rela.ctors
 *(.rela.ctors)

.rel.dtors
 *(.rel.dtors)

.rela.dtors
 *(.rela.dtors)

.rel.got
 *(.rel.got)

.rela.got
 *(.rela.got)

.rel.bss
 *(.rel.bss)

.rela.bss
 *(.rela.bss)

.rel.plt
 *(.rel.plt)

.rela.plt
 *(.rela.plt)

.text           0x00000000     0x67dc
 *(.vectors)
 .vectors       0x00000000       0xac /usr/local/Cellar/avr-gcc@8/8.5.0/lib/avr-gcc/8/gcc/avr/8.5.0/../../../../../../avr/lib/avr5/crtatmega32u4.o
                0x00000000                __vectors
                0x00000000                __vector_default
 *(.vectors)
 *(.progmem.gcc*)
                0x000000ac                        . = ALIGN (0x2)
                0x000000ac                        __trampolines_start = .
 *(.trampolines)
 .trampolines   0x000000ac        0x0 linker stubs
 *(.trampolines*)
                0x000000ac                        __trampolines_end = .
 *libprintf_flt.a:*(.progmem.data)
 *libc.a:*(.progmem.data)
 *(.progmem.*)
 .progmem.data.__c.6937
                0x000000ac        0x8 .build/obj_xwhatsit_ibm_beamal_test_universal_alec/keyboards/xwhatsit/matrix.o
 .progmem.data.__c.6935
                0x000000b4       0x27 .build/obj_xwhatsit_ibm_beamal_test_universal_alec/keyboards/xwhatsit/matrix.o
 .progmem.data.__c.6933
                0x000000db       0x26 .build/obj_xwhatsit_ibm_beamal_test_universal_alec/keyboards/xwhatsit/matrix.o
 .progmem.data.__c.6931
                0x00000101       0x16 .build/obj_xwhatsit_ibm_beamal_test_universal_alec/keyboards/xwhatsit/matrix.o
 .progmem.data.__c.6929
                0x00000117       0x19 .build/obj_xwhatsit_ibm_beamal_test_universal_alec/keyboards/xwhatsit/matrix.o
 .progmem.data.__c.6901
                0x00000130        0x7 .build/obj_xwhatsit_ibm_beamal_test_universal_alec/keyboards/xwhatsit/matrix.o
 .progmem.data.__c.6899
                0x00000137        0xb .build/obj_xwhatsit_ibm_beamal_test_universal_alec/keyboards/xwhatsit/matrix.o
 .progmem.data.__c.6897
                0x00000142        0x7 .build/obj_xwhatsit_ibm_beamal_test_universal_alec/keyboards/xwhatsit/matrix.o
 .progmem.data.__c.6895
                0x00000149        0xd .build/obj_xwhatsit_ibm_beamal_test_universal_alec/keyboards/xwhatsit/matrix.o
 .progmem.data.keyboard_filename.6618
                0x00000156       0x23 .build/obj_xwhatsit_ibm_beamal_test_universal_alec/keyboards/xwhatsit/util_comm.o
 .progmem.data.__c.6714
                0x00000179       0x55 .build/obj_xwhatsit_ibm_beamal_test_universal_alec/quantum/keymap_introspection.o
 .progmem.data.__c.6712
                0x000001ce        0xe .build/obj_xwhatsit_ibm_beamal_test_universal_alec/quantum/keymap_introspection.o
 .progmem.data.__c.6709
                0x000001dc        0xf .build/obj_xwhatsit_ibm_beamal_test_universal_alec/quantum/keymap_introspection.o
 .progmem.data.__c.6706
                0x000001eb       0x11 .build/obj_xwhatsit_ibm_beamal_test_universal_alec/quantum/keymap_introspection.o
 .progmem.data.__c.6703
                0x000001fc       0x10 .build/obj_xwhatsit_ibm_beamal_test_universal_alec/quantum/keymap_introspection.o
 .progmem.data.__c.6700
                0x0000020c        0xe .build/obj_xwhatsit_ibm_beamal_test_universal_alec/quantum/keymap_introspection.o
 .progmem.data.__c.6697
                0x0000021a        0xc .build/obj_xwhatsit_ibm_beamal_test_universal_alec/quantum/keymap_introspection.o
 .progmem.data.__c.6694
                0x00000226        0x9 .build/obj_xwhatsit_ibm_beamal_test_universal_alec/quantum/keymap_introspection.o
 .progmem.data.__c.6691
                0x0000022f       0x11 .build/obj_xwhatsit_ibm_beamal_test_universal_alec/quantum/keymap_introspection.o
 .progmem.data.__c.6688
                0x00000240        0xc .build/obj_xwhatsit_ibm_beamal_test_universal_alec/quantum/keymap_introspection.o
 .progmem.data.__c.6685
                0x0000024c        0xf .build/obj_xwhatsit_ibm_beamal_test_universal_alec/quantum/keymap_introspection.o
 .progmem.data.__c.6682
                0x0000025b       0x11 .build/obj_xwhatsit_ibm_beamal_test_universal_alec/quantum/keymap_introspection.o
 .progmem.data.__c.6679
                0x0000026c       0x13 .build/obj_xwhatsit_ibm_beamal_test_universal_alec/quantum/keymap_introspection.o
 .progmem.data.__c.6676
                0x0000027f       0x11 .build/obj_xwhatsit_ibm_beamal_test_universal_alec/quantum/keymap_introspection.o
 .progmem.data.__c.6673
                0x00000290       0x13 .build/obj_xwhatsit_ibm_beamal_test_universal_alec/quantum/keymap_introspection.o
 .progmem.data.__c.6670
                0x000002a3        0xb .build/obj_xwhatsit_ibm_beamal_test_universal_alec/quantum/keymap_introspection.o
 .progmem.data.__c.6667
                0x000002ae       0x11 .build/obj_xwhatsit_ibm_beamal_test_universal_alec/quantum/keymap_introspection.o
 .progmem.data.__c.6664
                0x000002bf       0x11 .build/obj_xwhatsit_ibm_beamal_test_universal_alec/quantum/keymap_introspection.o
 .progmem.data.__c.6661
                0x000002d0        0xf .build/obj_xwhatsit_ibm_beamal_test_universal_alec/quantum/keymap_introspection.o
 .progmem.data.__c.6658
                0x000002df        0x9 .build/obj_xwhatsit_ibm_beamal_test_universal_alec/quantum/keymap_introspection.o
 .progmem.data.__c.6655
                0x000002e8        0xa .build/obj_xwhatsit_ibm_beamal_test_universal_alec/quantum/keymap_introspection.o
 .progmem.data.__c.6652
                0x000002f2        0x4 .build/obj_xwhatsit_ibm_beamal_test_universal_alec/quantum/keymap_introspection.o
 .progmem.data.__c.6649
                0x000002f6        0x2 .build/obj_xwhatsit_ibm_beamal_test_universal_alec/quantum/keymap_introspection.o
 .progmem.data.__c.6646
                0x000002f8        0x2 .build/obj_xwhatsit_ibm_beamal_test_universal_alec/quantum/keymap_introspection.o
 .progmem.data.__c.6643
                0x000002fa        0xa .build/obj_xwhatsit_ibm_beamal_test_universal_alec/quantum/keymap_introspection.o
 .progmem.data.__c.6640
                0x00000304        0x3 .build/obj_xwhatsit_ibm_beamal_test_universal_alec/quantum/keymap_introspection.o
 .progmem.data.__c.6637
                0x00000307        0x8 .build/obj_xwhatsit_ibm_beamal_test_universal_alec/quantum/keymap_introspection.o
 .progmem.data.__c.6635
                0x0000030f        0xa .build/obj_xwhatsit_ibm_beamal_test_universal_alec/quantum/keymap_introspection.o
 .progmem.data.__c.6632
                0x00000319        0xe .build/obj_xwhatsit_ibm_beamal_test_universal_alec/quantum/keymap_introspection.o
 .progmem.data.__c.6629
                0x00000327        0xe .build/obj_xwhatsit_ibm_beamal_test_universal_alec/quantum/keymap_introspection.o
 .progmem.data.__c.6626
                0x00000335       0x10 .build/obj_xwhatsit_ibm_beamal_test_universal_alec/quantum/keymap_introspection.o
 .progmem.data.__c.6624
                0x00000345       0x10 .build/obj_xwhatsit_ibm_beamal_test_universal_alec/quantum/keymap_introspection.o
 .progmem.data.__c.6621
                0x00000355        0xb .build/obj_xwhatsit_ibm_beamal_test_universal_alec/quantum/keymap_introspection.o
 .progmem.data.__c.6618
                0x00000360        0xc .build/obj_xwhatsit_ibm_beamal_test_universal_alec/quantum/keymap_introspection.o
 .progmem.data.__c.6615
                0x0000036c        0xc .build/obj_xwhatsit_ibm_beamal_test_universal_alec/quantum/keymap_introspection.o
 .progmem.data.__c.6612
                0x00000378        0xe .build/obj_xwhatsit_ibm_beamal_test_universal_alec/quantum/keymap_introspection.o
 .progmem.data.__c.6609
                0x00000386        0x8 .build/obj_xwhatsit_ibm_beamal_test_universal_alec/quantum/keymap_introspection.o
 .progmem.data.__c.6606
                0x0000038e        0x8 .build/obj_xwhatsit_ibm_beamal_test_universal_alec/quantum/keymap_introspection.o
 .progmem.data.__c.6603
                0x00000396        0xb .build/obj_xwhatsit_ibm_beamal_test_universal_alec/quantum/keymap_introspection.o
 .progmem.data.__c.6600
                0x000003a1       0x10 .build/obj_xwhatsit_ibm_beamal_test_universal_alec/quantum/keymap_introspection.o
 .progmem.data.__c.6597
                0x000003b1       0x10 .build/obj_xwhatsit_ibm_beamal_test_universal_alec/quantum/keymap_introspection.o
 .progmem.data.__c.6593
                0x000003c1        0x5 .build/obj_xwhatsit_ibm_beamal_test_universal_alec/quantum/keymap_introspection.o
 .progmem.data.keymaps
                0x000003c6      0x180 .build/obj_xwhatsit_ibm_beamal_test_universal_alec/quantum/keymap_introspection.o
                0x000003c6                keymaps
 .progmem.data.__c.6641
                0x00000546       0x12 .build/obj_xwhatsit_ibm_beamal_test_universal_alec/quantum/quantum.o
 .progmem.data.__c.6639
                0x00000558       0x11 .build/obj_xwhatsit_ibm_beamal_test_universal_alec/quantum/quantum.o
 .progmem.data.__c.5031
                0x00000569        0x2 .build/obj_xwhatsit_ibm_beamal_test_universal_alec/quantum/led.o
 .progmem.data.__c.5029
                0x0000056b        0x5 .build/obj_xwhatsit_ibm_beamal_test_universal_alec/quantum/led.o
 .progmem.data.__c.5027
                0x00000570        0xb .build/obj_xwhatsit_ibm_beamal_test_universal_alec/quantum/led.o
 .progmem.data.__c.5514
                0x0000057b       0x12 .build/obj_xwhatsit_ibm_beamal_test_universal_alec/quantum/action_util.o
 .progmem.data.__c.5497
                0x0000058d       0x15 .build/obj_xwhatsit_ibm_beamal_test_universal_alec/quantum/action_util.o
 .progmem.data.__c.6593
                0x000005a2        0x2 .build/obj_xwhatsit_ibm_beamal_test_universal_alec/quantum/matrix_common.o
 .progmem.data.__c.6591
                0x000005a4        0x6 .build/obj_xwhatsit_ibm_beamal_test_universal_alec/quantum/matrix_common.o
 .progmem.data.__c.6589
                0x000005aa        0x3 .build/obj_xwhatsit_ibm_beamal_test_universal_alec/quantum/matrix_common.o
 .progmem.data.__c.6587
                0x000005ad        0x5 .build/obj_xwhatsit_ibm_beamal_test_universal_alec/quantum/matrix_common.o
 .progmem.data.__c.6584
                0x000005b2       0x17 .build/obj_xwhatsit_ibm_beamal_test_universal_alec/quantum/matrix_common.o
 .progmem.data.__c.6563
                0x000005c9       0x1f .build/obj_xwhatsit_ibm_beamal_test_universal_alec/quantum/process_keycode/process_unicode_common.o
 .progmem.data.__c.6555
                0x000005e8       0x20 .build/obj_xwhatsit_ibm_beamal_test_universal_alec/quantum/process_keycode/process_unicode_common.o
 .progmem.data.ascii_to_keycode_lut
                0x00000608       0x80 .build/obj_xwhatsit_ibm_beamal_test_universal_alec/quantum/send_string/send_string.o
                0x00000608                ascii_to_keycode_lut
 .progmem.data.ascii_to_dead_lut
                0x00000688       0x10 .build/obj_xwhatsit_ibm_beamal_test_universal_alec/quantum/send_string/send_string.o
                0x00000688                ascii_to_dead_lut
 .progmem.data.ascii_to_altgr_lut
                0x00000698       0x10 .build/obj_xwhatsit_ibm_beamal_test_universal_alec/quantum/send_string/send_string.o
                0x00000698                ascii_to_altgr_lut
 .progmem.data.ascii_to_shift_lut
                0x000006a8       0x10 .build/obj_xwhatsit_ibm_beamal_test_universal_alec/quantum/send_string/send_string.o
                0x000006a8                ascii_to_shift_lut
 .progmem.data.__c.6600
                0x000006b8       0x2a .build/obj_xwhatsit_ibm_beamal_test_universal_alec/quantum/process_keycode/process_dynamic_macro.o
 .progmem.data.__c.6595
                0x000006e2       0x34 .build/obj_xwhatsit_ibm_beamal_test_universal_alec/quantum/process_keycode/process_dynamic_macro.o
 .progmem.data.__c.6587
                0x00000716       0x26 .build/obj_xwhatsit_ibm_beamal_test_universal_alec/quantum/process_keycode/process_dynamic_macro.o
 .progmem.data.__c.6585
                0x0000073c       0x31 .build/obj_xwhatsit_ibm_beamal_test_universal_alec/quantum/process_keycode/process_dynamic_macro.o
 .progmem.data.__c.6572
                0x0000076d       0x21 .build/obj_xwhatsit_ibm_beamal_test_universal_alec/quantum/process_keycode/process_dynamic_macro.o
 .progmem.data.__c.6565
                0x0000078e       0x23 .build/obj_xwhatsit_ibm_beamal_test_universal_alec/quantum/process_keycode/process_dynamic_macro.o
 .progmem.data.__c.2030
                0x000007b1       0x19 .build/obj_xwhatsit_ibm_beamal_test_universal_alec/quantum/haptic.o
 .progmem.data.__c.2025
                0x000007ca       0x19 .build/obj_xwhatsit_ibm_beamal_test_universal_alec/quantum/haptic.o
 .progmem.data.__c.2008
                0x000007e3       0x1a .build/obj_xwhatsit_ibm_beamal_test_universal_alec/quantum/haptic.o
 .progmem.data.__c.2003
                0x000007fd       0x19 .build/obj_xwhatsit_ibm_beamal_test_universal_alec/quantum/haptic.o
 .progmem.data.__c.1998
                0x00000816       0x1e .build/obj_xwhatsit_ibm_beamal_test_universal_alec/quantum/haptic.o
 .progmem.data.__c.1993
                0x00000834       0x19 .build/obj_xwhatsit_ibm_beamal_test_universal_alec/quantum/haptic.o
 .progmem.data.__c.1983
                0x0000084d       0x19 .build/obj_xwhatsit_ibm_beamal_test_universal_alec/quantum/haptic.o
 .progmem.data.__c.1981
                0x00000866       0x1d .build/obj_xwhatsit_ibm_beamal_test_universal_alec/quantum/haptic.o
 .progmem.data.__c.1954
                0x00000883       0x1d .build/obj_xwhatsit_ibm_beamal_test_universal_alec/quantum/haptic.o
 .progmem.data.__c.1946
                0x000008a0       0x1b .build/obj_xwhatsit_ibm_beamal_test_universal_alec/quantum/haptic.o
 .progmem.data.__c.1941
                0x000008bb       0x1b .build/obj_xwhatsit_ibm_beamal_test_universal_alec/quantum/haptic.o
 .progmem.data.__c.1936
                0x000008d6       0x19 .build/obj_xwhatsit_ibm_beamal_test_universal_alec/quantum/haptic.o
 .progmem.data.__c.1934
                0x000008ef       0x1b .build/obj_xwhatsit_ibm_beamal_test_universal_alec/quantum/haptic.o
 .progmem.data.__c.1932
                0x0000090a       0x16 .build/obj_xwhatsit_ibm_beamal_test_universal_alec/quantum/haptic.o
 .progmem.data.__c.1924
                0x00000920       0x1d .build/obj_xwhatsit_ibm_beamal_test_universal_alec/quantum/haptic.o
 .progmem.data.__c.6594
                0x0000093d        0x2 .build/obj_xwhatsit_ibm_beamal_test_universal_alec/protocol/host.o
 .progmem.data.__c.6589
                0x0000093f        0x6 .build/obj_xwhatsit_ibm_beamal_test_universal_alec/protocol/host.o
 .progmem.data.__c.6586
                0x00000945       0x12 .build/obj_xwhatsit_ibm_beamal_test_universal_alec/protocol/host.o
 .progmem.data.__c.5185
                0x00000957       0x1e .build/obj_xwhatsit_ibm_beamal_test_universal_alec/protocol/report.o
 .progmem.data.__c.5179
                0x00000975       0x1e .build/obj_xwhatsit_ibm_beamal_test_universal_alec/protocol/report.o
 .progmem.data.__c.6784
                0x00000993        0x4 .build/obj_xwhatsit_ibm_beamal_test_universal_alec/lufa.o
 .progmem.data.__c.6664
                0x00000997        0x4 .build/obj_xwhatsit_ibm_beamal_test_universal_alec/lufa.o
 .progmem.data.__c.6660
                0x0000099b        0x4 .build/obj_xwhatsit_ibm_beamal_test_universal_alec/lufa.o
 .progmem.data.__c.6656
                0x0000099f        0x4 .build/obj_xwhatsit_ibm_beamal_test_universal_alec/lufa.o
 .progmem.data.__c.6651
                0x000009a3        0x4 .build/obj_xwhatsit_ibm_beamal_test_universal_alec/lufa.o
 .progmem.data.__c.6646
                0x000009a7        0x4 .build/obj_xwhatsit_ibm_beamal_test_universal_alec/lufa.o
 .progmem.data.SerialNumberString
                0x000009ab       0x30 .build/obj_xwhatsit_ibm_beamal_test_universal_alec/usb_descriptor.o
                0x000009ab                SerialNumberString
 .progmem.data.ProductString
                0x000009db       0x10 .build/obj_xwhatsit_ibm_beamal_test_universal_alec/usb_descriptor.o
                0x000009db                ProductString
 .progmem.data.ManufacturerString
                0x000009eb       0x88 .build/obj_xwhatsit_ibm_beamal_test_universal_alec/usb_descriptor.o
                0x000009eb                ManufacturerString
 .progmem.data.LanguageString
                0x00000a73        0x4 .build/obj_xwhatsit_ibm_beamal_test_universal_alec/usb_descriptor.o
                0x00000a73                LanguageString
 .progmem.data.ConfigurationDescriptor
                0x00000a77       0x7b .build/obj_xwhatsit_ibm_beamal_test_universal_alec/usb_descriptor.o
                0x00000a77                ConfigurationDescriptor
 .progmem.data.DeviceDescriptor
                0x00000af2       0x12 .build/obj_xwhatsit_ibm_beamal_test_universal_alec/usb_descriptor.o
                0x00000af2                DeviceDescriptor
 .progmem.data.ConsoleReport
                0x00000b04       0x22 .build/obj_xwhatsit_ibm_beamal_test_universal_alec/usb_descriptor.o
                0x00000b04                ConsoleReport
 .progmem.data.RawReport
                0x00000b26       0x22 .build/obj_xwhatsit_ibm_beamal_test_universal_alec/usb_descriptor.o
                0x00000b26                RawReport
 .progmem.data.SharedReport
                0x00000b48       0x6d .build/obj_xwhatsit_ibm_beamal_test_universal_alec/usb_descriptor.o
                0x00000b48                SharedReport
 .progmem.data.KeyboardReport
                0x00000bb5       0x40 .build/obj_xwhatsit_ibm_beamal_test_universal_alec/usb_descriptor.o
                0x00000bb5                KeyboardReport
                0x00000bf6                        . = ALIGN (0x2)
 *fill*         0x00000bf5        0x1 
 *(.lowtext)
 *(.lowtext*)
                0x00000bf6                        __ctors_start = .
 *(.ctors)
 .ctors         0x00000bf6        0x2 .build/obj_xwhatsit_ibm_beamal_test_universal_alec/keyboards/xwhatsit/xwhatsit.o
                0x00000bf8                        __ctors_end = .
                0x00000bf8                        __dtors_start = .
 *(.dtors)
                0x00000bf8                        __dtors_end = .
 SORT_BY_NAME(*)(.ctors)
 SORT_BY_NAME(*)(.dtors)
 *(.init0)
 .init0         0x00000bf8        0x0 /usr/local/Cellar/avr-gcc@8/8.5.0/lib/avr-gcc/8/gcc/avr/8.5.0/../../../../../../avr/lib/avr5/crtatmega32u4.o
                0x00000bf8                __init
 *(.init0)
 *(.init1)
 *(.init1)
 *(.init2)
 .init2         0x00000bf8        0xc /usr/local/Cellar/avr-gcc@8/8.5.0/lib/avr-gcc/8/gcc/avr/8.5.0/../../../../../../avr/lib/avr5/crtatmega32u4.o
 *(.init2)
 *(.init3)
 *(.init3)
 *(.init4)
 .init4         0x00000c04       0x16 /usr/local/Cellar/avr-gcc@8/8.5.0/lib/avr-gcc/8/gcc/avr/8.5.0/avr5/libgcc.a(_copy_data.o)
                0x00000c04                __do_copy_data
 .init4         0x00000c1a       0x10 /usr/local/Cellar/avr-gcc@8/8.5.0/lib/avr-gcc/8/gcc/avr/8.5.0/avr5/libgcc.a(_clear_bss.o)
                0x00000c1a                __do_clear_bss
 *(.init4)
 *(.init5)
 *(.init5)
 *(.init6)
 .init6         0x00000c2a       0x16 /usr/local/Cellar/avr-gcc@8/8.5.0/lib/avr-gcc/8/gcc/avr/8.5.0/avr5/libgcc.a(_ctors.o)
                0x00000c2a                __do_global_ctors
 *(.init6)
 *(.init7)
 *(.init7)
 *(.init8)
 *(.init8)
 *(.init9)
 .init9         0x00000c40        0x8 /usr/local/Cellar/avr-gcc@8/8.5.0/lib/avr-gcc/8/gcc/avr/8.5.0/../../../../../../avr/lib/avr5/crtatmega32u4.o
 *(.init9)
 *(.text)
 .text          0x00000c48        0x4 /usr/local/Cellar/avr-gcc@8/8.5.0/lib/avr-gcc/8/gcc/avr/8.5.0/../../../../../../avr/lib/avr5/crtatmega32u4.o
                0x00000c48                __vector_42
                0x00000c48                __vector_22
                0x00000c48                __vector_28
                0x00000c48                __vector_1
                0x00000c48                __vector_32
                0x00000c48                __vector_34
                0x00000c48                __vector_24
                0x00000c48                __bad_interrupt
                0x00000c48                __vector_6
                0x00000c48                __vector_31
                0x00000c48                __vector_35
                0x00000c48                __vector_39
                0x00000c48                __vector_3
                0x00000c48                __vector_23
                0x00000c48                __vector_30
                0x00000c48                __vector_25
                0x00000c48                __vector_13
                0x00000c48                __vector_17
                0x00000c48                __vector_19
                0x00000c48                __vector_7
                0x00000c48                __vector_41
                0x00000c48                __vector_27
                0x00000c48                __vector_5
                0x00000c48                __vector_33
                0x00000c48                __vector_37
                0x00000c48                __vector_4
                0x00000c48                __vector_9
                0x00000c48                __vector_2
                0x00000c48                __vector_15
                0x00000c48                __vector_36
                0x00000c48                __vector_29
                0x00000c48                __vector_40
                0x00000c48                __vector_8
                0x00000c48                __vector_26
                0x00000c48                __vector_14
                0x00000c48                __vector_16
                0x00000c48                __vector_18
                0x00000c48                __vector_20
                0x00000c48                __vector_38
 .text          0x00000c4c      0x15c .build/obj_xwhatsit_ibm_beamal_test_universal_alec/platforms/avr/xprintf.o
                0x00000c4c                xputc
                0x00000c64                xputs
                0x00000c72                xitoa
                0x00000d96                __xprintf
                0x00000da8                        . = ALIGN (0x2)
 *(.text.*)
 .text.dac_init
                0x00000da8       0x10 .build/obj_xwhatsit_ibm_beamal_test_universal_alec/keyboards/xwhatsit/matrix.o
                0x00000da8                dac_init
 .text.dac_write_threshold
                0x00000db8       0x2c .build/obj_xwhatsit_ibm_beamal_test_universal_alec/keyboards/xwhatsit/matrix.o
                0x00000db8                dac_write_threshold
 .text.shift_select_nothing
                0x00000de4       0x14 .build/obj_xwhatsit_ibm_beamal_test_universal_alec/keyboards/xwhatsit/matrix.o
                0x00000de4                shift_select_nothing
 .text.shift_data
                0x00000df8       0x48 .build/obj_xwhatsit_ibm_beamal_test_universal_alec/keyboards/xwhatsit/matrix.o
                0x00000df8                shift_data
 .text.shift_select_col_no_strobe
                0x00000e40       0x1e .build/obj_xwhatsit_ibm_beamal_test_universal_alec/keyboards/xwhatsit/matrix.o
                0x00000e40                shift_select_col_no_strobe
 .text.shift_init
                0x00000e5e       0x1c .build/obj_xwhatsit_ibm_beamal_test_universal_alec/keyboards/xwhatsit/matrix.o
                0x00000e5e                shift_init
 .text.test_single
                0x00000e7a       0xe8 .build/obj_xwhatsit_ibm_beamal_test_universal_alec/keyboards/xwhatsit/matrix.o
                0x00000e7a                test_single
 .text.measure_middle
                0x00000f62       0x88 .build/obj_xwhatsit_ibm_beamal_test_universal_alec/keyboards/xwhatsit/matrix.o
                0x00000f62                measure_middle
 .text.measure_middle_keymap_coords
                0x00000fea        0xc .build/obj_xwhatsit_ibm_beamal_test_universal_alec/keyboards/xwhatsit/matrix.o
                0x00000fea                measure_middle_keymap_coords
 .text.calibration_measure_all_valid_keys
                0x00000ff6       0xd2 .build/obj_xwhatsit_ibm_beamal_test_universal_alec/keyboards/xwhatsit/matrix.o
                0x00000ff6                calibration_measure_all_valid_keys
 .text.calibration
                0x000010c8      0x236 .build/obj_xwhatsit_ibm_beamal_test_universal_alec/keyboards/xwhatsit/matrix.o
                0x000010c8                calibration
 .text.set_leds
                0x000012fe       0x20 .build/obj_xwhatsit_ibm_beamal_test_universal_alec/keyboards/xwhatsit/matrix.o
                0x000012fe                set_leds
 .text.real_keyboard_init_basic
                0x0000131e       0xa4 .build/obj_xwhatsit_ibm_beamal_test_universal_alec/keyboards/xwhatsit/matrix.o
                0x0000131e                real_keyboard_init_basic
 .text.led_update_kb
                0x000013c2       0x32 .build/obj_xwhatsit_ibm_beamal_test_universal_alec/keyboards/xwhatsit/matrix.o
                0x000013c2                led_update_kb
 .text.matrix_init_custom
                0x000013f4        0x6 .build/obj_xwhatsit_ibm_beamal_test_universal_alec/keyboards/xwhatsit/matrix.o
                0x000013f4                matrix_init_custom
 .text.matrix_has_it_changed
                0x000013fa       0x36 .build/obj_xwhatsit_ibm_beamal_test_universal_alec/keyboards/xwhatsit/matrix.o
                0x000013fa                matrix_has_it_changed
 .text.matrix_print_stats
                0x00001430      0x114 .build/obj_xwhatsit_ibm_beamal_test_universal_alec/keyboards/xwhatsit/matrix.o
                0x00001430                matrix_print_stats
 .text.matrix_scan_raw
                0x00001544      0x10c .build/obj_xwhatsit_ibm_beamal_test_universal_alec/keyboards/xwhatsit/matrix.o
                0x00001544                matrix_scan_raw
 .text.matrix_scan_custom
                0x00001650       0x30 .build/obj_xwhatsit_ibm_beamal_test_universal_alec/keyboards/xwhatsit/matrix.o
                0x00001650                matrix_scan_custom
 .text.raw_hid_receive
                0x00001680      0x260 .build/obj_xwhatsit_ibm_beamal_test_universal_alec/keyboards/xwhatsit/util_comm.o
                0x00001680                raw_hid_receive
 .text.startup.stack_painter
                0x000018e0       0x1e .build/obj_xwhatsit_ibm_beamal_test_universal_alec/keyboards/xwhatsit/xwhatsit.o
                0x000018e0                stack_painter
 .text.stack_used
                0x000018fe       0x26 .build/obj_xwhatsit_ibm_beamal_test_universal_alec/keyboards/xwhatsit/xwhatsit.o
                0x000018fe                stack_used
 .text.keyboard_post_init_kb
                0x00001924        0x2 .build/obj_xwhatsit_ibm_beamal_test_universal_alec/keyboards/xwhatsit/ibm/beamal_test/universal/universal.o
                0x00001924                keyboard_post_init_kb
 .text.process_record_user
                0x00001926      0x188 .build/obj_xwhatsit_ibm_beamal_test_universal_alec/quantum/keymap_introspection.o
                0x00001926                process_record_user
 .text.keycode_at_keymap_location_raw
                0x00001aae       0x38 .build/obj_xwhatsit_ibm_beamal_test_universal_alec/quantum/keymap_introspection.o
                0x00001aae                keycode_at_keymap_location_raw
 .text.extract_mod_bits
                0x00001ae6       0x62 .build/obj_xwhatsit_ibm_beamal_test_universal_alec/quantum/quantum.o
                0x00001ae6                extract_mod_bits
 .text.do_code16
                0x00001b48       0x14 .build/obj_xwhatsit_ibm_beamal_test_universal_alec/quantum/quantum.o
                0x00001b48                do_code16
 .text.register_code16
                0x00001b5c       0x2c .build/obj_xwhatsit_ibm_beamal_test_universal_alec/quantum/quantum.o
                0x00001b5c                register_code16
 .text.unregister_code16
                0x00001b88       0x2c .build/obj_xwhatsit_ibm_beamal_test_universal_alec/quantum/quantum.o
                0x00001b88                unregister_code16
 .text.tap_code16_delay
                0x00001bb4       0x34 .build/obj_xwhatsit_ibm_beamal_test_universal_alec/quantum/quantum.o
                0x00001bb4                tap_code16_delay
 .text.tap_code16
                0x00001be8       0x14 .build/obj_xwhatsit_ibm_beamal_test_universal_alec/quantum/quantum.o
                0x00001be8                tap_code16
 .text.process_action_kb
                0x00001bfc        0x4 .build/obj_xwhatsit_ibm_beamal_test_universal_alec/quantum/quantum.o
                0x00001bfc                process_action_kb
 .text.process_record_kb
                0x00001c00        0x6 .build/obj_xwhatsit_ibm_beamal_test_universal_alec/quantum/quantum.o
                0x00001c00                process_record_kb
 .text.post_process_record_user
                0x00001c06        0x2 .build/obj_xwhatsit_ibm_beamal_test_universal_alec/quantum/quantum.o
                0x00001c06                post_process_record_user
 .text.post_process_record_kb
                0x00001c08        0x6 .build/obj_xwhatsit_ibm_beamal_test_universal_alec/quantum/quantum.o
                0x00001c08                post_process_record_kb
 .text.get_event_keycode
                0x00001c0e       0x58 .build/obj_xwhatsit_ibm_beamal_test_universal_alec/quantum/quantum.o
                0x00001c0e                get_event_keycode
 .text.get_record_keycode
                0x00001c66       0x14 .build/obj_xwhatsit_ibm_beamal_test_universal_alec/quantum/quantum.o
                0x00001c66                get_record_keycode
 .text.pre_process_record_quantum
                0x00001c7a        0x4 .build/obj_xwhatsit_ibm_beamal_test_universal_alec/quantum/quantum.o
                0x00001c7a                pre_process_record_quantum
 .text.post_process_record_quantum
                0x00001c7e       0x18 .build/obj_xwhatsit_ibm_beamal_test_universal_alec/quantum/quantum.o
                0x00001c7e                post_process_record_quantum
 .text.matrix_init_quantum
                0x00001c96        0x6 .build/obj_xwhatsit_ibm_beamal_test_universal_alec/quantum/quantum.o
                0x00001c96                matrix_init_quantum
 .text.matrix_scan_quantum
                0x00001c9c        0x6 .build/obj_xwhatsit_ibm_beamal_test_universal_alec/quantum/quantum.o
                0x00001c9c                matrix_scan_quantum
 .text.shutdown_user
                0x00001ca2        0x2 .build/obj_xwhatsit_ibm_beamal_test_universal_alec/quantum/quantum.o
                0x00001ca2                shutdown_user
 .text.shutdown_quantum
                0x00001ca4       0x20 .build/obj_xwhatsit_ibm_beamal_test_universal_alec/quantum/quantum.o
                0x00001ca4                shutdown_quantum
 .text.reset_keyboard
                0x00001cc4        0xa .build/obj_xwhatsit_ibm_beamal_test_universal_alec/quantum/quantum.o
                0x00001cc4                reset_keyboard
 .text.soft_reset_keyboard
                0x00001cce        0xa .build/obj_xwhatsit_ibm_beamal_test_universal_alec/quantum/quantum.o
                0x00001cce                soft_reset_keyboard
 .text.process_record_quantum_helper
                0x00001cd8       0xee .build/obj_xwhatsit_ibm_beamal_test_universal_alec/quantum/quantum.o
                0x00001cd8                process_record_quantum_helper
 .text.process_record_quantum
                0x00001dc6       0x18 .build/obj_xwhatsit_ibm_beamal_test_universal_alec/quantum/quantum.o
                0x00001dc6                process_record_quantum
 .text.suspend_power_down_quantum
                0x00001dde        0xa .build/obj_xwhatsit_ibm_beamal_test_universal_alec/quantum/quantum.o
                0x00001dde                suspend_power_down_quantum
 .text.suspend_wakeup_init_quantum
                0x00001de8        0xa .build/obj_xwhatsit_ibm_beamal_test_universal_alec/quantum/quantum.o
                0x00001de8                suspend_wakeup_init_quantum
 .text.bitrev   0x00001df2       0x30 .build/obj_xwhatsit_ibm_beamal_test_universal_alec/quantum/bitwise.o
                0x00001df2                bitrev
 .text.bitrev16
                0x00001e22       0x1a .build/obj_xwhatsit_ibm_beamal_test_universal_alec/quantum/bitwise.o
                0x00001e22                bitrev16
 .text.led_set_user
                0x00001e3c        0x2 .build/obj_xwhatsit_ibm_beamal_test_universal_alec/quantum/led.o
                0x00001e3c                led_set_user
 .text.led_set_kb
                0x00001e3e        0x6 .build/obj_xwhatsit_ibm_beamal_test_universal_alec/quantum/led.o
                0x00001e3e                led_set_kb
 .text.led_update_user
                0x00001e44        0x4 .build/obj_xwhatsit_ibm_beamal_test_universal_alec/quantum/led.o
                0x00001e44                led_update_user
 .text.led_init_ports
                0x00001e48        0xe .build/obj_xwhatsit_ibm_beamal_test_universal_alec/quantum/led.o
                0x00001e48                led_init_ports
 .text.led_set  0x00001e56       0x12 .build/obj_xwhatsit_ibm_beamal_test_universal_alec/quantum/led.o
                0x00001e56                led_set
 .text.led_suspend
                0x00001e68        0x8 .build/obj_xwhatsit_ibm_beamal_test_universal_alec/quantum/led.o
                0x00001e68                led_suspend
 .text.led_wakeup
                0x00001e70        0xa .build/obj_xwhatsit_ibm_beamal_test_universal_alec/quantum/led.o
                0x00001e70                led_wakeup
 .text.led_task
                0x00001e7a       0x76 .build/obj_xwhatsit_ibm_beamal_test_universal_alec/quantum/led.o
                0x00001e7a                led_task
 .text.action_exec
                0x00001ef0       0x8a .build/obj_xwhatsit_ibm_beamal_test_universal_alec/quantum/action.o
                0x00001ef0                action_exec
 .text.process_record_tap_hint
                0x00001f7a        0xc .build/obj_xwhatsit_ibm_beamal_test_universal_alec/quantum/action.o
                0x00001f7a                process_record_tap_hint
 .text.register_code
                0x00001f86       0x88 .build/obj_xwhatsit_ibm_beamal_test_universal_alec/quantum/action.o
                0x00001f86                register_code
 .text.unregister_code
                0x0000200e       0x54 .build/obj_xwhatsit_ibm_beamal_test_universal_alec/quantum/action.o
                0x0000200e                unregister_code
 .text.tap_code_delay
                0x00002062       0x30 .build/obj_xwhatsit_ibm_beamal_test_universal_alec/quantum/action.o
                0x00002062                tap_code_delay
 .text.tap_code
                0x00002092       0x12 .build/obj_xwhatsit_ibm_beamal_test_universal_alec/quantum/action.o
                0x00002092                tap_code
 .text.register_mods
                0x000020a4        0xe .build/obj_xwhatsit_ibm_beamal_test_universal_alec/quantum/action.o
                0x000020a4                register_mods
 .text.unregister_mods
                0x000020b2        0xe .build/obj_xwhatsit_ibm_beamal_test_universal_alec/quantum/action.o
                0x000020b2                unregister_mods
 .text.process_action
                0x000020c0      0x44e .build/obj_xwhatsit_ibm_beamal_test_universal_alec/quantum/action.o
                0x000020c0                process_action
 .text.process_record_handler
                0x0000250e       0x30 .build/obj_xwhatsit_ibm_beamal_test_universal_alec/quantum/action.o
                0x0000250e                process_record_handler
 .text.process_record
                0x0000253e       0x54 .build/obj_xwhatsit_ibm_beamal_test_universal_alec/quantum/action.o
                0x0000253e                process_record
 .text.register_weak_mods
                0x00002592        0xe .build/obj_xwhatsit_ibm_beamal_test_universal_alec/quantum/action.o
                0x00002592                register_weak_mods
 .text.unregister_weak_mods
                0x000025a0        0xe .build/obj_xwhatsit_ibm_beamal_test_universal_alec/quantum/action.o
                0x000025a0                unregister_weak_mods
 .text.clear_keyboard_but_mods_and_keys
                0x000025ae       0x1a .build/obj_xwhatsit_ibm_beamal_test_universal_alec/quantum/action.o
                0x000025ae                clear_keyboard_but_mods_and_keys
 .text.clear_keyboard_but_mods
                0x000025c8        0xa .build/obj_xwhatsit_ibm_beamal_test_universal_alec/quantum/action.o
                0x000025c8                clear_keyboard_but_mods
 .text.clear_keyboard
                0x000025d2        0xa .build/obj_xwhatsit_ibm_beamal_test_universal_alec/quantum/action.o
                0x000025d2                clear_keyboard
 .text.is_tap_action
                0x000025dc       0x36 .build/obj_xwhatsit_ibm_beamal_test_universal_alec/quantum/action.o
                0x000025dc                is_tap_action
 .text.is_tap_record
                0x00002612       0x26 .build/obj_xwhatsit_ibm_beamal_test_universal_alec/quantum/action.o
                0x00002612                is_tap_record
 .text.debug_event
                0x00002638       0x14 .build/obj_xwhatsit_ibm_beamal_test_universal_alec/quantum/action.o
                0x00002638                debug_event
 .text.debug_record
                0x0000264c       0x14 .build/obj_xwhatsit_ibm_beamal_test_universal_alec/quantum/action.o
                0x0000264c                debug_record
 .text.default_layer_state_set_user
                0x00002660        0x2 .build/obj_xwhatsit_ibm_beamal_test_universal_alec/quantum/action_layer.o
                0x00002660                default_layer_state_set_user
 .text.default_layer_state_set_kb
                0x00002662        0x6 .build/obj_xwhatsit_ibm_beamal_test_universal_alec/quantum/action_layer.o
                0x00002662                default_layer_state_set_kb
 .text.default_layer_state_set
                0x00002668       0x12 .build/obj_xwhatsit_ibm_beamal_test_universal_alec/quantum/action_layer.o
 .text.default_layer_debug
                0x0000267a        0x2 .build/obj_xwhatsit_ibm_beamal_test_universal_alec/quantum/action_layer.o
                0x0000267a                default_layer_debug
 .text.default_layer_set
                0x0000267c        0x6 .build/obj_xwhatsit_ibm_beamal_test_universal_alec/quantum/action_layer.o
                0x0000267c                default_layer_set
 .text.default_layer_or
                0x00002682       0x12 .build/obj_xwhatsit_ibm_beamal_test_universal_alec/quantum/action_layer.o
                0x00002682                default_layer_or
 .text.default_layer_and
                0x00002694       0x12 .build/obj_xwhatsit_ibm_beamal_test_universal_alec/quantum/action_layer.o
                0x00002694                default_layer_and
 .text.default_layer_xor
                0x000026a6       0x12 .build/obj_xwhatsit_ibm_beamal_test_universal_alec/quantum/action_layer.o
                0x000026a6                default_layer_xor
 .text.layer_state_set_user
                0x000026b8        0x6 .build/obj_xwhatsit_ibm_beamal_test_universal_alec/quantum/action_layer.o
                0x000026b8                layer_state_set_user
 .text.layer_state_set_kb
                0x000026be        0x6 .build/obj_xwhatsit_ibm_beamal_test_universal_alec/quantum/action_layer.o
                0x000026be                layer_state_set_kb
 .text.layer_state_set
                0x000026c4       0x12 .build/obj_xwhatsit_ibm_beamal_test_universal_alec/quantum/action_layer.o
                0x000026c4                layer_state_set
 .text.layer_clear
                0x000026d6        0xa .build/obj_xwhatsit_ibm_beamal_test_universal_alec/quantum/action_layer.o
                0x000026d6                layer_clear
 .text.layer_move
                0x000026e0       0x18 .build/obj_xwhatsit_ibm_beamal_test_universal_alec/quantum/action_layer.o
                0x000026e0                layer_move
 .text.layer_on
                0x000026f8       0x20 .build/obj_xwhatsit_ibm_beamal_test_universal_alec/quantum/action_layer.o
                0x000026f8                layer_on
 .text.layer_off
                0x00002718       0x24 .build/obj_xwhatsit_ibm_beamal_test_universal_alec/quantum/action_layer.o
                0x00002718                layer_off
 .text.layer_invert
                0x0000273c       0x20 .build/obj_xwhatsit_ibm_beamal_test_universal_alec/quantum/action_layer.o
                0x0000273c                layer_invert
 .text.layer_or
                0x0000275c       0x12 .build/obj_xwhatsit_ibm_beamal_test_universal_alec/quantum/action_layer.o
                0x0000275c                layer_or
 .text.layer_and
                0x0000276e       0x12 .build/obj_xwhatsit_ibm_beamal_test_universal_alec/quantum/action_layer.o
                0x0000276e                layer_and
 .text.layer_xor
                0x00002780       0x12 .build/obj_xwhatsit_ibm_beamal_test_universal_alec/quantum/action_layer.o
                0x00002780                layer_xor
 .text.layer_debug
                0x00002792        0x2 .build/obj_xwhatsit_ibm_beamal_test_universal_alec/quantum/action_layer.o
                0x00002792                layer_debug
 .text.update_source_layers_cache_impl
                0x00002794       0x5a .build/obj_xwhatsit_ibm_beamal_test_universal_alec/quantum/action_layer.o
                0x00002794                update_source_layers_cache_impl
 .text.read_source_layers_cache_impl
                0x000027ee       0x4e .build/obj_xwhatsit_ibm_beamal_test_universal_alec/quantum/action_layer.o
                0x000027ee                read_source_layers_cache_impl
 .text.update_source_layers_cache
                0x0000283c       0x24 .build/obj_xwhatsit_ibm_beamal_test_universal_alec/quantum/action_layer.o
                0x0000283c                update_source_layers_cache
 .text.read_source_layers_cache
                0x00002860       0x24 .build/obj_xwhatsit_ibm_beamal_test_universal_alec/quantum/action_layer.o
                0x00002860                read_source_layers_cache
 .text.layer_switch_get_layer
                0x00002884       0x64 .build/obj_xwhatsit_ibm_beamal_test_universal_alec/quantum/action_layer.o
                0x00002884                layer_switch_get_layer
 .text.layer_switch_get_action
                0x000028e8       0x16 .build/obj_xwhatsit_ibm_beamal_test_universal_alec/quantum/action_layer.o
                0x000028e8                layer_switch_get_action
 .text.store_or_get_action
                0x000028fe       0x46 .build/obj_xwhatsit_ibm_beamal_test_universal_alec/quantum/action_layer.o
                0x000028fe                store_or_get_action
 .text.debug_waiting_buffer
                0x00002944       0x42 .build/obj_xwhatsit_ibm_beamal_test_universal_alec/quantum/action_tapping.o
 .text.debug_tapping_key
                0x00002986       0x1e .build/obj_xwhatsit_ibm_beamal_test_universal_alec/quantum/action_tapping.o
 .text.waiting_buffer_scan_tap
                0x000029a4       0xaa .build/obj_xwhatsit_ibm_beamal_test_universal_alec/quantum/action_tapping.o
 .text.process_tapping
                0x00002a4e      0x30e .build/obj_xwhatsit_ibm_beamal_test_universal_alec/quantum/action_tapping.o
 .text.action_tapping_process
                0x00002d5c      0x11e .build/obj_xwhatsit_ibm_beamal_test_universal_alec/quantum/action_tapping.o
                0x00002d5c                action_tapping_process
 .text.add_key  0x00002e7a       0x10 .build/obj_xwhatsit_ibm_beamal_test_universal_alec/quantum/action_util.o
                0x00002e7a                add_key
 .text.del_key  0x00002e8a       0x10 .build/obj_xwhatsit_ibm_beamal_test_universal_alec/quantum/action_util.o
                0x00002e8a                del_key
 .text.clear_keys
                0x00002e9a        0xe .build/obj_xwhatsit_ibm_beamal_test_universal_alec/quantum/action_util.o
                0x00002e9a                clear_keys
 .text.get_oneshot_locked_mods
                0x00002ea8        0x6 .build/obj_xwhatsit_ibm_beamal_test_universal_alec/quantum/action_util.o
                0x00002ea8                get_oneshot_locked_mods
 .text.has_oneshot_mods_timed_out
                0x00002eae       0x1e .build/obj_xwhatsit_ibm_beamal_test_universal_alec/quantum/action_util.o
                0x00002eae                has_oneshot_mods_timed_out
 .text.get_oneshot_layer
                0x00002ecc        0xc .build/obj_xwhatsit_ibm_beamal_test_universal_alec/quantum/action_util.o
                0x00002ecc                get_oneshot_layer
 .text.get_oneshot_layer_state
                0x00002ed8        0x8 .build/obj_xwhatsit_ibm_beamal_test_universal_alec/quantum/action_util.o
                0x00002ed8                get_oneshot_layer_state
 .text.has_oneshot_layer_timed_out
                0x00002ee0       0x2c .build/obj_xwhatsit_ibm_beamal_test_universal_alec/quantum/action_util.o
                0x00002ee0                has_oneshot_layer_timed_out
 .text.is_oneshot_layer_active
                0x00002f0c        0xe .build/obj_xwhatsit_ibm_beamal_test_universal_alec/quantum/action_util.o
                0x00002f0c                is_oneshot_layer_active
 .text.get_mods
                0x00002f1a        0x6 .build/obj_xwhatsit_ibm_beamal_test_universal_alec/quantum/action_util.o
                0x00002f1a                get_mods
 .text.add_mods
                0x00002f20        0xc .build/obj_xwhatsit_ibm_beamal_test_universal_alec/quantum/action_util.o
                0x00002f20                add_mods
 .text.del_mods
                0x00002f2c        0xe .build/obj_xwhatsit_ibm_beamal_test_universal_alec/quantum/action_util.o
                0x00002f2c                del_mods
 .text.set_mods
                0x00002f3a        0x6 .build/obj_xwhatsit_ibm_beamal_test_universal_alec/quantum/action_util.o
                0x00002f3a                set_mods
 .text.clear_mods
                0x00002f40        0x6 .build/obj_xwhatsit_ibm_beamal_test_universal_alec/quantum/action_util.o
                0x00002f40                clear_mods
 .text.add_weak_mods
                0x00002f46        0xc .build/obj_xwhatsit_ibm_beamal_test_universal_alec/quantum/action_util.o
                0x00002f46                add_weak_mods
 .text.del_weak_mods
                0x00002f52        0xe .build/obj_xwhatsit_ibm_beamal_test_universal_alec/quantum/action_util.o
                0x00002f52                del_weak_mods
 .text.clear_weak_mods
                0x00002f60        0x6 .build/obj_xwhatsit_ibm_beamal_test_universal_alec/quantum/action_util.o
                0x00002f60                clear_weak_mods
 .text.get_oneshot_mods
                0x00002f66        0x6 .build/obj_xwhatsit_ibm_beamal_test_universal_alec/quantum/action_util.o
                0x00002f66                get_oneshot_mods
 .text.oneshot_locked_mods_changed_user
                0x00002f6c        0x2 .build/obj_xwhatsit_ibm_beamal_test_universal_alec/quantum/action_util.o
                0x00002f6c                oneshot_locked_mods_changed_user
 .text.oneshot_locked_mods_changed_kb
                0x00002f6e        0x6 .build/obj_xwhatsit_ibm_beamal_test_universal_alec/quantum/action_util.o
                0x00002f6e                oneshot_locked_mods_changed_kb
 .text.set_oneshot_locked_mods
                0x00002f74       0x12 .build/obj_xwhatsit_ibm_beamal_test_universal_alec/quantum/action_util.o
                0x00002f74                set_oneshot_locked_mods
 .text.oneshot_mods_changed_user
                0x00002f86        0x2 .build/obj_xwhatsit_ibm_beamal_test_universal_alec/quantum/action_util.o
                0x00002f86                oneshot_mods_changed_user
 .text.oneshot_mods_changed_kb
                0x00002f88        0x6 .build/obj_xwhatsit_ibm_beamal_test_universal_alec/quantum/action_util.o
                0x00002f88                oneshot_mods_changed_kb
 .text.set_oneshot_mods
                0x00002f8e       0x2e .build/obj_xwhatsit_ibm_beamal_test_universal_alec/quantum/action_util.o
                0x00002f8e                set_oneshot_mods
 .text.clear_oneshot_mods
                0x00002fbc       0x1c .build/obj_xwhatsit_ibm_beamal_test_universal_alec/quantum/action_util.o
                0x00002fbc                clear_oneshot_mods
 .text.send_keyboard_report
                0x00002fd8       0xaa .build/obj_xwhatsit_ibm_beamal_test_universal_alec/quantum/action_util.o
                0x00002fd8                send_keyboard_report
 .text.oneshot_layer_changed_user
                0x00003082        0x2 .build/obj_xwhatsit_ibm_beamal_test_universal_alec/quantum/action_util.o
                0x00003082                oneshot_layer_changed_user
 .text.oneshot_layer_changed_kb
                0x00003084        0x6 .build/obj_xwhatsit_ibm_beamal_test_universal_alec/quantum/action_util.o
                0x00003084                oneshot_layer_changed_kb
 .text.set_oneshot_layer
                0x0000308a       0x3c .build/obj_xwhatsit_ibm_beamal_test_universal_alec/quantum/action_util.o
                0x0000308a                set_oneshot_layer
 .text.reset_oneshot_layer
                0x000030c6       0x14 .build/obj_xwhatsit_ibm_beamal_test_universal_alec/quantum/action_util.o
                0x000030c6                reset_oneshot_layer
 .text.clear_oneshot_layer_state
                0x000030da       0x38 .build/obj_xwhatsit_ibm_beamal_test_universal_alec/quantum/action_util.o
                0x000030da                clear_oneshot_layer_state
 .text.oneshot_set
                0x00003112       0x50 .build/obj_xwhatsit_ibm_beamal_test_universal_alec/quantum/action_util.o
                0x00003112                oneshot_set
 .text.oneshot_toggle
                0x00003162       0x14 .build/obj_xwhatsit_ibm_beamal_test_universal_alec/quantum/action_util.o
                0x00003162                oneshot_toggle
 .text.oneshot_enable
                0x00003176        0x8 .build/obj_xwhatsit_ibm_beamal_test_universal_alec/quantum/action_util.o
                0x00003176                oneshot_enable
 .text.oneshot_disable
                0x0000317e        0x8 .build/obj_xwhatsit_ibm_beamal_test_universal_alec/quantum/action_util.o
                0x0000317e                oneshot_disable
 .text.eeconfig_disable
                0x00003186        0xe .build/obj_xwhatsit_ibm_beamal_test_universal_alec/quantum/eeconfig.o
                0x00003186                eeconfig_disable
 .text.eeconfig_is_enabled
                0x00003194       0x16 .build/obj_xwhatsit_ibm_beamal_test_universal_alec/quantum/eeconfig.o
                0x00003194                eeconfig_is_enabled
 .text.eeconfig_read_debug
                0x000031aa        0xa .build/obj_xwhatsit_ibm_beamal_test_universal_alec/quantum/eeconfig.o
                0x000031aa                eeconfig_read_debug
 .text.eeconfig_read_default_layer
                0x000031b4        0xa .build/obj_xwhatsit_ibm_beamal_test_universal_alec/quantum/eeconfig.o
                0x000031b4                eeconfig_read_default_layer
 .text.eeconfig_read_keymap
                0x000031be       0x1c .build/obj_xwhatsit_ibm_beamal_test_universal_alec/quantum/eeconfig.o
                0x000031be                eeconfig_read_keymap
 .text.eeconfig_update_keymap
                0x000031da       0x1c .build/obj_xwhatsit_ibm_beamal_test_universal_alec/quantum/eeconfig.o
                0x000031da                eeconfig_update_keymap
 .text.eeconfig_update_kb
                0x000031f6        0xe .build/obj_xwhatsit_ibm_beamal_test_universal_alec/quantum/eeconfig.o
                0x000031f6                eeconfig_update_kb
 .text.eeconfig_update_user
                0x00003204        0xe .build/obj_xwhatsit_ibm_beamal_test_universal_alec/quantum/eeconfig.o
                0x00003204                eeconfig_update_user
 .text.eeconfig_init_user
                0x00003212        0xc .build/obj_xwhatsit_ibm_beamal_test_universal_alec/quantum/eeconfig.o
                0x00003212                eeconfig_init_user
 .text.eeconfig_init_kb
                0x0000321e       0x10 .build/obj_xwhatsit_ibm_beamal_test_universal_alec/quantum/eeconfig.o
                0x0000321e                eeconfig_init_kb
 .text.eeconfig_init_quantum
                0x0000322e       0xae .build/obj_xwhatsit_ibm_beamal_test_universal_alec/quantum/eeconfig.o
                0x0000322e                eeconfig_init_quantum
 .text.eeconfig_init
                0x000032dc        0x6 .build/obj_xwhatsit_ibm_beamal_test_universal_alec/quantum/eeconfig.o
                0x000032dc                eeconfig_init
 .text.eeconfig_read_haptic
                0x000032e2        0xa .build/obj_xwhatsit_ibm_beamal_test_universal_alec/quantum/eeconfig.o
                0x000032e2                eeconfig_read_haptic
 .text.eeconfig_update_haptic
                0x000032ec        0xe .build/obj_xwhatsit_ibm_beamal_test_universal_alec/quantum/eeconfig.o
                0x000032ec                eeconfig_update_haptic
 .text.eeconfig_update_handedness
                0x000032fa        0xc .build/obj_xwhatsit_ibm_beamal_test_universal_alec/quantum/eeconfig.o
                0x000032fa                eeconfig_update_handedness
 .text.last_matrix_activity_trigger
                0x00003306       0x26 .build/obj_xwhatsit_ibm_beamal_test_universal_alec/quantum/keyboard.o
                0x00003306                last_matrix_activity_trigger
 .text.matrix_setup
                0x0000332c        0x2 .build/obj_xwhatsit_ibm_beamal_test_universal_alec/quantum/keyboard.o
                0x0000332c                matrix_setup
 .text.keyboard_pre_init_user
                0x0000332e        0x2 .build/obj_xwhatsit_ibm_beamal_test_universal_alec/quantum/keyboard.o
                0x0000332e                keyboard_pre_init_user
 .text.keyboard_pre_init_kb
                0x00003330        0x6 .build/obj_xwhatsit_ibm_beamal_test_universal_alec/quantum/keyboard.o
                0x00003330                keyboard_pre_init_kb
 .text.keyboard_setup
                0x00003336       0x12 .build/obj_xwhatsit_ibm_beamal_test_universal_alec/quantum/keyboard.o
                0x00003336                keyboard_setup
 .text.is_keyboard_master
                0x00003348        0x4 .build/obj_xwhatsit_ibm_beamal_test_universal_alec/quantum/keyboard.o
                0x00003348                is_keyboard_master
 .text.should_process_keypress
                0x0000334c        0x6 .build/obj_xwhatsit_ibm_beamal_test_universal_alec/quantum/keyboard.o
                0x0000334c                should_process_keypress
 .text.housekeeping_task_kb
                0x00003352        0x2 .build/obj_xwhatsit_ibm_beamal_test_universal_alec/quantum/keyboard.o
                0x00003352                housekeeping_task_kb
 .text.housekeeping_task_user
                0x00003354        0x2 .build/obj_xwhatsit_ibm_beamal_test_universal_alec/quantum/keyboard.o
                0x00003354                housekeeping_task_user
 .text.housekeeping_task
                0x00003356        0xa .build/obj_xwhatsit_ibm_beamal_test_universal_alec/quantum/keyboard.o
                0x00003356                housekeeping_task
 .text.quantum_init
                0x00003360       0x12 .build/obj_xwhatsit_ibm_beamal_test_universal_alec/quantum/keyboard.o
                0x00003360                quantum_init
 .text.keyboard_init
                0x00003372       0x12 .build/obj_xwhatsit_ibm_beamal_test_universal_alec/quantum/keyboard.o
                0x00003372                keyboard_init
 .text.keyboard_task
                0x00003384      0x118 .build/obj_xwhatsit_ibm_beamal_test_universal_alec/quantum/keyboard.o
                0x00003384                keyboard_task
 .text.action_for_keycode
                0x0000349c      0x1c8 .build/obj_xwhatsit_ibm_beamal_test_universal_alec/quantum/keymap_common.o
                0x0000349c                action_for_keycode
 .text.keymap_key_to_keycode
                0x00003664       0x36 .build/obj_xwhatsit_ibm_beamal_test_universal_alec/quantum/keymap_common.o
                0x00003664                keymap_key_to_keycode
 .text.action_for_key
                0x0000369a        0xa .build/obj_xwhatsit_ibm_beamal_test_universal_alec/quantum/keymap_common.o
                0x0000369a                action_for_key
 .text.keycode_config
                0x000036a4      0x144 .build/obj_xwhatsit_ibm_beamal_test_universal_alec/quantum/keycode_config.o
                0x000036a4                keycode_config
 .text.mod_config
                0x000037e8       0x86 .build/obj_xwhatsit_ibm_beamal_test_universal_alec/quantum/keycode_config.o
                0x000037e8                mod_config
 .text.bootmagic_lite_reset_eeprom
                0x0000386e        0x6 .build/obj_xwhatsit_ibm_beamal_test_universal_alec/quantum/bootmagic/bootmagic_lite.o
                0x0000386e                bootmagic_lite_reset_eeprom
 .text.bootmagic_lite
                0x00003874       0x2e .build/obj_xwhatsit_ibm_beamal_test_universal_alec/quantum/bootmagic/bootmagic_lite.o
                0x00003874                bootmagic_lite
 .text.bootmagic
                0x000038a2        0x6 .build/obj_xwhatsit_ibm_beamal_test_universal_alec/quantum/bootmagic/bootmagic_lite.o
                0x000038a2                bootmagic
 .text.magic    0x000038a8       0x3c .build/obj_xwhatsit_ibm_beamal_test_universal_alec/quantum/bootmagic/magic.o
                0x000038a8                magic
 .text.matrix_init_user
                0x000038e4        0x2 .build/obj_xwhatsit_ibm_beamal_test_universal_alec/quantum/matrix_common.o
                0x000038e4                matrix_init_user
 .text.matrix_init_kb
                0x000038e6        0x6 .build/obj_xwhatsit_ibm_beamal_test_universal_alec/quantum/matrix_common.o
                0x000038e6                matrix_init_kb
 .text.matrix_scan_user
                0x000038ec        0x2 .build/obj_xwhatsit_ibm_beamal_test_universal_alec/quantum/matrix_common.o
                0x000038ec                matrix_scan_user
 .text.matrix_scan_kb
                0x000038ee        0x6 .build/obj_xwhatsit_ibm_beamal_test_universal_alec/quantum/matrix_common.o
                0x000038ee                matrix_scan_kb
 .text.matrix_get_row
                0x000038f4       0x12 .build/obj_xwhatsit_ibm_beamal_test_universal_alec/quantum/matrix_common.o
                0x000038f4                matrix_get_row
 .text.matrix_print
                0x00003906       0x82 .build/obj_xwhatsit_ibm_beamal_test_universal_alec/quantum/matrix_common.o
                0x00003906                matrix_print
 .text.matrix_init
                0x00003988       0x28 .build/obj_xwhatsit_ibm_beamal_test_universal_alec/quantum/matrix_common.o
                0x00003988                matrix_init
 .text.matrix_scan
                0x000039b0       0x26 .build/obj_xwhatsit_ibm_beamal_test_universal_alec/quantum/matrix_common.o
                0x000039b0                matrix_scan
 .text.debounce_init
                0x000039d6        0x2 .build/obj_xwhatsit_ibm_beamal_test_universal_alec/quantum/debounce/sym_defer_g.o
                0x000039d6                debounce_init
 .text.debounce
                0x000039d8       0x7e .build/obj_xwhatsit_ibm_beamal_test_universal_alec/quantum/debounce/sym_defer_g.o
                0x000039d8                debounce
 .text.protocol_init
                0x00003a56        0xe .build/obj_xwhatsit_ibm_beamal_test_universal_alec/quantum/main.o
                0x00003a56                protocol_init
 .text.protocol_task
                0x00003a64        0xe .build/obj_xwhatsit_ibm_beamal_test_universal_alec/quantum/main.o
                0x00003a64                protocol_task
 .text.startup.main
                0x00003a72       0x1a .build/obj_xwhatsit_ibm_beamal_test_universal_alec/quantum/main.o
                0x00003a72                main
 .text.solenoid_set_dwell
                0x00003a8c        0x6 .build/obj_xwhatsit_ibm_beamal_test_universal_alec/solenoid.o
                0x00003a8c                solenoid_set_dwell
 .text.solenoid_stop
                0x00003a92       0x26 .build/obj_xwhatsit_ibm_beamal_test_universal_alec/solenoid.o
                0x00003a92                solenoid_stop
 .text.solenoid_fire
                0x00003ab8       0x60 .build/obj_xwhatsit_ibm_beamal_test_universal_alec/solenoid.o
                0x00003ab8                solenoid_fire
 .text.solenoid_fire_handler
                0x00003b18        0x8 .build/obj_xwhatsit_ibm_beamal_test_universal_alec/solenoid.o
                0x00003b18                solenoid_fire_handler
 .text.solenoid_check
                0x00003b20       0x60 .build/obj_xwhatsit_ibm_beamal_test_universal_alec/solenoid.o
                0x00003b20                solenoid_check
 .text.solenoid_setup
                0x00003b80       0x1a .build/obj_xwhatsit_ibm_beamal_test_universal_alec/solenoid.o
                0x00003b80                solenoid_setup
 .text.solenoid_shutdown
                0x00003b9a       0x10 .build/obj_xwhatsit_ibm_beamal_test_universal_alec/solenoid.o
                0x00003b9a                solenoid_shutdown
 .text.process_unicode
                0x00003baa       0x2a .build/obj_xwhatsit_ibm_beamal_test_universal_alec/quantum/process_keycode/process_unicode.o
                0x00003baa                process_unicode
 .text.send_nibble_wrapper
                0x00003bd4       0x2a .build/obj_xwhatsit_ibm_beamal_test_universal_alec/quantum/process_keycode/process_unicode_common.o
 .text.unicode_input_mode_init
                0x00003bfe       0x42 .build/obj_xwhatsit_ibm_beamal_test_universal_alec/quantum/process_keycode/process_unicode_common.o
                0x00003bfe                unicode_input_mode_init
 .text.persist_unicode_input_mode
                0x00003c40        0xe .build/obj_xwhatsit_ibm_beamal_test_universal_alec/quantum/process_keycode/process_unicode_common.o
                0x00003c40                persist_unicode_input_mode
 .text.set_unicode_input_mode
                0x00003c4e       0x2e .build/obj_xwhatsit_ibm_beamal_test_universal_alec/quantum/process_keycode/process_unicode_common.o
                0x00003c4e                set_unicode_input_mode
 .text.unicode_input_start
                0x00003c7c       0xbe .build/obj_xwhatsit_ibm_beamal_test_universal_alec/quantum/process_keycode/process_unicode_common.o
                0x00003c7c                unicode_input_start
 .text.unicode_input_finish
                0x00003d3a       0x62 .build/obj_xwhatsit_ibm_beamal_test_universal_alec/quantum/process_keycode/process_unicode_common.o
                0x00003d3a                unicode_input_finish
 .text.register_hex
                0x00003d9c       0x36 .build/obj_xwhatsit_ibm_beamal_test_universal_alec/quantum/process_keycode/process_unicode_common.o
                0x00003d9c                register_hex
 .text.process_unicode_common
                0x00003dd2       0x70 .build/obj_xwhatsit_ibm_beamal_test_universal_alec/quantum/process_keycode/process_unicode_common.o
                0x00003dd2                process_unicode_common
 .text.process_magic
                0x00003e42      0x2dc .build/obj_xwhatsit_ibm_beamal_test_universal_alec/quantum/process_keycode/process_magic.o
                0x00003e42                process_magic
 .text.send_char
                0x0000411e       0xba .build/obj_xwhatsit_ibm_beamal_test_universal_alec/quantum/send_string/send_string.o
                0x0000411e                send_char
 .text.send_nibble
                0x000041d8       0x16 .build/obj_xwhatsit_ibm_beamal_test_universal_alec/quantum/send_string/send_string.o
                0x000041d8                send_nibble
 .text.send_string_with_delay_P
                0x000041ee       0xd0 .build/obj_xwhatsit_ibm_beamal_test_universal_alec/quantum/send_string/send_string.o
                0x000041ee                send_string_with_delay_P
 .text.dynamic_macro_record_start_user
                0x000042be        0x2 .build/obj_xwhatsit_ibm_beamal_test_universal_alec/quantum/process_keycode/process_dynamic_macro.o
                0x000042be                dynamic_macro_record_start_user
 .text.dynamic_macro_play_user
                0x000042c0        0x2 .build/obj_xwhatsit_ibm_beamal_test_universal_alec/quantum/process_keycode/process_dynamic_macro.o
                0x000042c0                dynamic_macro_play_user
 .text.dynamic_macro_record_key_user
                0x000042c2        0x2 .build/obj_xwhatsit_ibm_beamal_test_universal_alec/quantum/process_keycode/process_dynamic_macro.o
                0x000042c2                dynamic_macro_record_key_user
 .text.dynamic_macro_record_end_user
                0x000042c4        0x2 .build/obj_xwhatsit_ibm_beamal_test_universal_alec/quantum/process_keycode/process_dynamic_macro.o
                0x000042c4                dynamic_macro_record_end_user
 .text.dynamic_macro_record_start
                0x000042c6       0x36 .build/obj_xwhatsit_ibm_beamal_test_universal_alec/quantum/process_keycode/process_dynamic_macro.o
                0x000042c6                dynamic_macro_record_start
 .text.dynamic_macro_play
                0x000042fc       0x8e .build/obj_xwhatsit_ibm_beamal_test_universal_alec/quantum/process_keycode/process_dynamic_macro.o
                0x000042fc                dynamic_macro_play
 .text.dynamic_macro_record_key
                0x0000438a      0x12e .build/obj_xwhatsit_ibm_beamal_test_universal_alec/quantum/process_keycode/process_dynamic_macro.o
                0x0000438a                dynamic_macro_record_key
 .text.dynamic_macro_record_end
                0x000044b8       0xc6 .build/obj_xwhatsit_ibm_beamal_test_universal_alec/quantum/process_keycode/process_dynamic_macro.o
                0x000044b8                dynamic_macro_record_end
 .text.process_dynamic_macro
                0x0000457e      0x11a .build/obj_xwhatsit_ibm_beamal_test_universal_alec/quantum/process_keycode/process_dynamic_macro.o
                0x0000457e                process_dynamic_macro
 .text.process_grave_esc
                0x00004698       0x54 .build/obj_xwhatsit_ibm_beamal_test_universal_alec/quantum/process_keycode/process_grave_esc.o
                0x00004698                process_grave_esc
 .text.get_haptic_enabled_key
                0x000046ec       0x62 .build/obj_xwhatsit_ibm_beamal_test_universal_alec/quantum/process_keycode/process_haptic.o
                0x000046ec                get_haptic_enabled_key
 .text.process_haptic
                0x0000474e       0xb4 .build/obj_xwhatsit_ibm_beamal_test_universal_alec/quantum/process_keycode/process_haptic.o
                0x0000474e                process_haptic
 .text.update_haptic_enable_gpios
                0x00004802       0x18 .build/obj_xwhatsit_ibm_beamal_test_universal_alec/quantum/haptic.o
 .text.haptic_task
                0x0000481a        0x6 .build/obj_xwhatsit_ibm_beamal_test_universal_alec/quantum/haptic.o
                0x0000481a                haptic_task
 .text.eeconfig_debug_haptic
                0x00004820       0x7a .build/obj_xwhatsit_ibm_beamal_test_universal_alec/quantum/haptic.o
                0x00004820                eeconfig_debug_haptic
 .text.haptic_enable
                0x0000489a       0x48 .build/obj_xwhatsit_ibm_beamal_test_universal_alec/quantum/haptic.o
                0x0000489a                haptic_enable
 .text.haptic_disable
                0x000048e2       0x48 .build/obj_xwhatsit_ibm_beamal_test_universal_alec/quantum/haptic.o
                0x000048e2                haptic_disable
 .text.haptic_toggle
                0x0000492a       0x28 .build/obj_xwhatsit_ibm_beamal_test_universal_alec/quantum/haptic.o
                0x0000492a                haptic_toggle
 .text.haptic_feedback_toggle
                0x00004952       0x5e .build/obj_xwhatsit_ibm_beamal_test_universal_alec/quantum/haptic.o
                0x00004952                haptic_feedback_toggle
 .text.haptic_reset
                0x000049b0       0xaa .build/obj_xwhatsit_ibm_beamal_test_universal_alec/quantum/haptic.o
                0x000049b0                haptic_reset
 .text.haptic_init
                0x00004a5a       0x9e .build/obj_xwhatsit_ibm_beamal_test_universal_alec/quantum/haptic.o
                0x00004a5a                haptic_init
 .text.haptic_set_mode
                0x00004af8       0x7e .build/obj_xwhatsit_ibm_beamal_test_universal_alec/quantum/haptic.o
                0x00004af8                haptic_set_mode
 .text.haptic_mode_increase
                0x00004b76       0x22 .build/obj_xwhatsit_ibm_beamal_test_universal_alec/quantum/haptic.o
                0x00004b76                haptic_mode_increase
 .text.haptic_mode_decrease
                0x00004b98       0x22 .build/obj_xwhatsit_ibm_beamal_test_universal_alec/quantum/haptic.o
                0x00004b98                haptic_mode_decrease
 .text.haptic_set_amplitude
                0x00004bba       0x7e .build/obj_xwhatsit_ibm_beamal_test_universal_alec/quantum/haptic.o
                0x00004bba                haptic_set_amplitude
 .text.haptic_set_buzz
                0x00004c38       0x4c .build/obj_xwhatsit_ibm_beamal_test_universal_alec/quantum/haptic.o
                0x00004c38                haptic_set_buzz
 .text.haptic_buzz_toggle
                0x00004c84       0x1c .build/obj_xwhatsit_ibm_beamal_test_universal_alec/quantum/haptic.o
                0x00004c84                haptic_buzz_toggle
 .text.haptic_set_dwell
                0x00004ca0       0x7e .build/obj_xwhatsit_ibm_beamal_test_universal_alec/quantum/haptic.o
                0x00004ca0                haptic_set_dwell
 .text.haptic_dwell_increase
                0x00004d1e       0x3e .build/obj_xwhatsit_ibm_beamal_test_universal_alec/quantum/haptic.o
                0x00004d1e                haptic_dwell_increase
 .text.haptic_dwell_decrease
                0x00004d5c       0x3e .build/obj_xwhatsit_ibm_beamal_test_universal_alec/quantum/haptic.o
                0x00004d5c                haptic_dwell_decrease
 .text.haptic_get_enable
                0x00004d9a        0x8 .build/obj_xwhatsit_ibm_beamal_test_universal_alec/quantum/haptic.o
                0x00004d9a                haptic_get_enable
 .text.haptic_get_feedback
                0x00004da2       0x12 .build/obj_xwhatsit_ibm_beamal_test_universal_alec/quantum/haptic.o
                0x00004da2                haptic_get_feedback
 .text.haptic_enable_continuous
                0x00004db4       0x3a .build/obj_xwhatsit_ibm_beamal_test_universal_alec/quantum/haptic.o
                0x00004db4                haptic_enable_continuous
 .text.haptic_disable_continuous
                0x00004dee       0x38 .build/obj_xwhatsit_ibm_beamal_test_universal_alec/quantum/haptic.o
                0x00004dee                haptic_disable_continuous
 .text.haptic_toggle_continuous
                0x00004e26       0x14 .build/obj_xwhatsit_ibm_beamal_test_universal_alec/quantum/haptic.o
                0x00004e26                haptic_toggle_continuous
 .text.haptic_cont_increase
                0x00004e3a       0x28 .build/obj_xwhatsit_ibm_beamal_test_universal_alec/quantum/haptic.o
                0x00004e3a                haptic_cont_increase
 .text.haptic_cont_decrease
                0x00004e62       0x28 .build/obj_xwhatsit_ibm_beamal_test_universal_alec/quantum/haptic.o
                0x00004e62                haptic_cont_decrease
 .text.haptic_play
                0x00004e8a        0x6 .build/obj_xwhatsit_ibm_beamal_test_universal_alec/quantum/haptic.o
                0x00004e8a                haptic_play
 .text.haptic_shutdown
                0x00004e90        0x6 .build/obj_xwhatsit_ibm_beamal_test_universal_alec/quantum/haptic.o
                0x00004e90                haptic_shutdown
 .text.haptic_notify_usb_device_state_change
                0x00004e96        0x8 .build/obj_xwhatsit_ibm_beamal_test_universal_alec/quantum/haptic.o
                0x00004e96                haptic_notify_usb_device_state_change
 .text.perform_space_cadet
                0x00004e9e       0xc8 .build/obj_xwhatsit_ibm_beamal_test_universal_alec/quantum/process_keycode/process_space_cadet.o
                0x00004e9e                perform_space_cadet
 .text.process_space_cadet
                0x00004f66       0xa4 .build/obj_xwhatsit_ibm_beamal_test_universal_alec/quantum/process_keycode/process_space_cadet.o
                0x00004f66                process_space_cadet
 .text.print_set_sendchar
                0x0000500a        0xa .build/obj_xwhatsit_ibm_beamal_test_universal_alec/platforms/avr/printf.o
                0x0000500a                print_set_sendchar
 .text.host_set_driver
                0x00005014        0xa .build/obj_xwhatsit_ibm_beamal_test_universal_alec/protocol/host.o
                0x00005014                host_set_driver
 .text.host_keyboard_leds
                0x0000501e       0x1a .build/obj_xwhatsit_ibm_beamal_test_universal_alec/protocol/host.o
                0x0000501e                host_keyboard_leds
 .text.host_keyboard_led_state
                0x00005038        0x6 .build/obj_xwhatsit_ibm_beamal_test_universal_alec/protocol/host.o
                0x00005038                host_keyboard_led_state
 .text.host_keyboard_send
                0x0000503e       0xa6 .build/obj_xwhatsit_ibm_beamal_test_universal_alec/protocol/host.o
                0x0000503e                host_keyboard_send
 .text.host_system_send
                0x000050e4       0x2c .build/obj_xwhatsit_ibm_beamal_test_universal_alec/protocol/host.o
                0x000050e4                host_system_send
 .text.host_consumer_send
                0x00005110       0x2c .build/obj_xwhatsit_ibm_beamal_test_universal_alec/protocol/host.o
                0x00005110                host_consumer_send
 .text.has_anykey
                0x0000513c       0x28 .build/obj_xwhatsit_ibm_beamal_test_universal_alec/protocol/report.o
                0x0000513c                has_anykey
 .text.is_key_pressed
                0x00005164       0x60 .build/obj_xwhatsit_ibm_beamal_test_universal_alec/protocol/report.o
                0x00005164                is_key_pressed
 .text.add_key_byte
                0x000051c4       0x34 .build/obj_xwhatsit_ibm_beamal_test_universal_alec/protocol/report.o
                0x000051c4                add_key_byte
 .text.del_key_byte
                0x000051f8       0x1a .build/obj_xwhatsit_ibm_beamal_test_universal_alec/protocol/report.o
                0x000051f8                del_key_byte
 .text.add_key_bit
                0x00005212       0x4a .build/obj_xwhatsit_ibm_beamal_test_universal_alec/protocol/report.o
                0x00005212                add_key_bit
 .text.del_key_bit
                0x0000525c       0x4c .build/obj_xwhatsit_ibm_beamal_test_universal_alec/protocol/report.o
                0x0000525c                del_key_bit
 .text.add_key_to_report
                0x000052a8       0x1c .build/obj_xwhatsit_ibm_beamal_test_universal_alec/protocol/report.o
                0x000052a8                add_key_to_report
 .text.del_key_from_report
                0x000052c4       0x1c .build/obj_xwhatsit_ibm_beamal_test_universal_alec/protocol/report.o
                0x000052c4                del_key_from_report
 .text.clear_keys_from_report
                0x000052e0       0x24 .build/obj_xwhatsit_ibm_beamal_test_universal_alec/protocol/report.o
                0x000052e0                clear_keys_from_report
 .text.notify_usb_device_state_change_user
                0x00005304        0x2 .build/obj_xwhatsit_ibm_beamal_test_universal_alec/protocol/usb_device_state.o
                0x00005304                notify_usb_device_state_change_user
 .text.notify_usb_device_state_change_kb
                0x00005306        0x6 .build/obj_xwhatsit_ibm_beamal_test_universal_alec/protocol/usb_device_state.o
                0x00005306                notify_usb_device_state_change_kb
 .text.usb_device_state_set_configuration
                0x0000530c       0x1a .build/obj_xwhatsit_ibm_beamal_test_universal_alec/protocol/usb_device_state.o
                0x0000530c                usb_device_state_set_configuration
 .text.usb_device_state_set_suspend
                0x00005326       0x12 .build/obj_xwhatsit_ibm_beamal_test_universal_alec/protocol/usb_device_state.o
                0x00005326                usb_device_state_set_suspend
 .text.usb_device_state_set_resume
                0x00005338        0x6 .build/obj_xwhatsit_ibm_beamal_test_universal_alec/protocol/usb_device_state.o
                0x00005338                usb_device_state_set_resume
 .text.usb_device_state_set_reset
                0x0000533e       0x12 .build/obj_xwhatsit_ibm_beamal_test_universal_alec/protocol/usb_device_state.o
                0x0000533e                usb_device_state_set_reset
 .text.usb_device_state_init
                0x00005350        0x6 .build/obj_xwhatsit_ibm_beamal_test_universal_alec/protocol/usb_device_state.o
                0x00005350                usb_device_state_init
 .text.suspend_wakeup_init_user
                0x00005356        0x2 .build/obj_xwhatsit_ibm_beamal_test_universal_alec/platforms/suspend.o
                0x00005356                suspend_wakeup_init_user
 .text.suspend_power_down_user
                0x00005358        0x2 .build/obj_xwhatsit_ibm_beamal_test_universal_alec/platforms/suspend.o
                0x00005358                suspend_power_down_user
 .text.suspend_power_down_kb
                0x0000535a        0x6 .build/obj_xwhatsit_ibm_beamal_test_universal_alec/platforms/suspend.o
                0x0000535a                suspend_power_down_kb
 .text.matrix_power_up
                0x00005360        0x2 .build/obj_xwhatsit_ibm_beamal_test_universal_alec/platforms/suspend.o
                0x00005360                matrix_power_up
 .text.matrix_power_down
                0x00005362        0x2 .build/obj_xwhatsit_ibm_beamal_test_universal_alec/platforms/suspend.o
                0x00005362                matrix_power_down
 .text.suspend_wakeup_init_kb
                0x00005364        0x6 .build/obj_xwhatsit_ibm_beamal_test_universal_alec/platforms/suspend.o
                0x00005364                suspend_wakeup_init_kb
 .text.suspend_wakeup_condition
                0x0000536a       0x2a .build/obj_xwhatsit_ibm_beamal_test_universal_alec/platforms/suspend.o
                0x0000536a                suspend_wakeup_condition
 .text.platform_setup
                0x00005394        0xe .build/obj_xwhatsit_ibm_beamal_test_universal_alec/platforms/avr/platform.o
                0x00005394                platform_setup
 .text.__vector_12
                0x000053a2       0x4e .build/obj_xwhatsit_ibm_beamal_test_universal_alec/platforms/avr/suspend.o
                0x000053a2                __vector_12
 .text.suspend_power_down
                0x000053f0       0x56 .build/obj_xwhatsit_ibm_beamal_test_universal_alec/platforms/avr/suspend.o
                0x000053f0                suspend_power_down
 .text.suspend_wakeup_init
                0x00005446        0xa .build/obj_xwhatsit_ibm_beamal_test_universal_alec/platforms/avr/suspend.o
                0x00005446                suspend_wakeup_init
 .text.timer_init
                0x00005450       0x12 .build/obj_xwhatsit_ibm_beamal_test_universal_alec/platforms/avr/timer.o
                0x00005450                timer_init
 .text.timer_read
                0x00005462       0x18 .build/obj_xwhatsit_ibm_beamal_test_universal_alec/platforms/avr/timer.o
                0x00005462                timer_read
 .text.timer_read32
                0x0000547a       0x18 .build/obj_xwhatsit_ibm_beamal_test_universal_alec/platforms/avr/timer.o
                0x0000547a                timer_read32
 .text.timer_elapsed
                0x00005492       0x1e .build/obj_xwhatsit_ibm_beamal_test_universal_alec/platforms/avr/timer.o
                0x00005492                timer_elapsed
 .text.__vector_21
                0x000054b0       0x48 .build/obj_xwhatsit_ibm_beamal_test_universal_alec/platforms/avr/timer.o
                0x000054b0                __vector_21
 .text.bootloader_jump
                0x000054f8       0x22 .build/obj_xwhatsit_ibm_beamal_test_universal_alec/platforms/avr/bootloaders/caterina.o
                0x000054f8                bootloader_jump
 .text.mcu_reset
                0x0000551a       0x16 .build/obj_xwhatsit_ibm_beamal_test_universal_alec/platforms/avr/bootloaders/caterina.o
                0x0000551a                mcu_reset
 .text.keyboard_leds
                0x00005530        0x6 .build/obj_xwhatsit_ibm_beamal_test_universal_alec/lufa.o
 .text.send_programmable_button
                0x00005536        0x2 .build/obj_xwhatsit_ibm_beamal_test_universal_alec/lufa.o
 .text.send_keyboard
                0x00005538       0x80 .build/obj_xwhatsit_ibm_beamal_test_universal_alec/lufa.o
 .text.send_extra
                0x000055b8       0x54 .build/obj_xwhatsit_ibm_beamal_test_universal_alec/lufa.o
 .text.send_consumer
                0x0000560c        0xa .build/obj_xwhatsit_ibm_beamal_test_universal_alec/lufa.o
 .text.send_system
                0x00005616        0xa .build/obj_xwhatsit_ibm_beamal_test_universal_alec/lufa.o
 .text.send_mouse
                0x00005620        0x2 .build/obj_xwhatsit_ibm_beamal_test_universal_alec/lufa.o
 .text.raw_hid_send
                0x00005622       0x54 .build/obj_xwhatsit_ibm_beamal_test_universal_alec/lufa.o
                0x00005622                raw_hid_send
 .text.EVENT_USB_Device_Connect
                0x00005676       0x24 .build/obj_xwhatsit_ibm_beamal_test_universal_alec/lufa.o
                0x00005676                EVENT_USB_Device_Connect
 .text.EVENT_USB_Device_Disconnect
                0x0000569a        0xe .build/obj_xwhatsit_ibm_beamal_test_universal_alec/lufa.o
                0x0000569a                EVENT_USB_Device_Disconnect
 .text.EVENT_USB_Device_Reset
                0x000056a8        0xe .build/obj_xwhatsit_ibm_beamal_test_universal_alec/lufa.o
                0x000056a8                EVENT_USB_Device_Reset
 .text.EVENT_USB_Device_Suspend
                0x000056b6       0x1a .build/obj_xwhatsit_ibm_beamal_test_universal_alec/lufa.o
                0x000056b6                EVENT_USB_Device_Suspend
 .text.EVENT_USB_Device_WakeUp
                0x000056d0       0x1e .build/obj_xwhatsit_ibm_beamal_test_universal_alec/lufa.o
                0x000056d0                EVENT_USB_Device_WakeUp
 .text.EVENT_USB_Device_StartOfFrame
                0x000056ee       0x82 .build/obj_xwhatsit_ibm_beamal_test_universal_alec/lufa.o
                0x000056ee                EVENT_USB_Device_StartOfFrame
 .text.EVENT_USB_Device_ConfigurationChanged
                0x00005770       0x48 .build/obj_xwhatsit_ibm_beamal_test_universal_alec/lufa.o
                0x00005770                EVENT_USB_Device_ConfigurationChanged
 .text.EVENT_USB_Device_ControlRequest
                0x000057b8      0x178 .build/obj_xwhatsit_ibm_beamal_test_universal_alec/lufa.o
                0x000057b8                EVENT_USB_Device_ControlRequest
 .text.sendchar
                0x00005930       0xc4 .build/obj_xwhatsit_ibm_beamal_test_universal_alec/lufa.o
                0x00005930                sendchar
 .text.protocol_setup
                0x000059f4       0x34 .build/obj_xwhatsit_ibm_beamal_test_universal_alec/lufa.o
                0x000059f4                protocol_setup
 .text.protocol_pre_init
                0x00005a28       0x1a .build/obj_xwhatsit_ibm_beamal_test_universal_alec/lufa.o
                0x00005a28                protocol_pre_init
 .text.protocol_post_init
                0x00005a42        0xa .build/obj_xwhatsit_ibm_beamal_test_universal_alec/lufa.o
                0x00005a42                protocol_post_init
 .text.protocol_pre_task
                0x00005a4c       0x3c .build/obj_xwhatsit_ibm_beamal_test_universal_alec/lufa.o
                0x00005a4c                protocol_pre_task
 .text.protocol_post_task
                0x00005a88       0x5e .build/obj_xwhatsit_ibm_beamal_test_universal_alec/lufa.o
                0x00005a88                protocol_post_task
 .text.CALLBACK_USB_GetDescriptor
                0x00005ae6        0x6 .build/obj_xwhatsit_ibm_beamal_test_universal_alec/lufa.o
                0x00005ae6                CALLBACK_USB_GetDescriptor
 .text.get_usb_descriptor
                0x00005aec       0xba .build/obj_xwhatsit_ibm_beamal_test_universal_alec/usb_descriptor.o
                0x00005aec                get_usb_descriptor
 .text.USB_Device_SendRemoteWakeup
                0x00005ba6       0x2c .build/obj_xwhatsit_ibm_beamal_test_universal_alec/lib/lufa/LUFA/Drivers/USB/Core/AVR8/Device_AVR8.o
                0x00005ba6                USB_Device_SendRemoteWakeup
 .text.Endpoint_Write_Stream_LE
                0x00005bd2       0x9e .build/obj_xwhatsit_ibm_beamal_test_universal_alec/lib/lufa/LUFA/Drivers/USB/Core/AVR8/EndpointStream_AVR8.o
                0x00005bd2                Endpoint_Write_Stream_LE
 .text.Endpoint_Read_Stream_LE
                0x00005c70       0x9e .build/obj_xwhatsit_ibm_beamal_test_universal_alec/lib/lufa/LUFA/Drivers/USB/Core/AVR8/EndpointStream_AVR8.o
                0x00005c70                Endpoint_Read_Stream_LE
 .text.Endpoint_Write_Control_Stream_LE
                0x00005d0e       0xbc .build/obj_xwhatsit_ibm_beamal_test_universal_alec/lib/lufa/LUFA/Drivers/USB/Core/AVR8/EndpointStream_AVR8.o
                0x00005d0e                Endpoint_Write_Control_Stream_LE
 .text.Endpoint_Write_Control_PStream_LE
                0x00005dca       0xbe .build/obj_xwhatsit_ibm_beamal_test_universal_alec/lib/lufa/LUFA/Drivers/USB/Core/AVR8/EndpointStream_AVR8.o
                0x00005dca                Endpoint_Write_Control_PStream_LE
 .text.Endpoint_ConfigureEndpoint_Prv
                0x00005e88       0x68 .build/obj_xwhatsit_ibm_beamal_test_universal_alec/lib/lufa/LUFA/Drivers/USB/Core/AVR8/Endpoint_AVR8.o
                0x00005e88                Endpoint_ConfigureEndpoint_Prv
 .text.Endpoint_ClearStatusStage
                0x00005ef0       0x3e .build/obj_xwhatsit_ibm_beamal_test_universal_alec/lib/lufa/LUFA/Drivers/USB/Core/AVR8/Endpoint_AVR8.o
                0x00005ef0                Endpoint_ClearStatusStage
 .text.Endpoint_WaitUntilReady
                0x00005f2e       0x62 .build/obj_xwhatsit_ibm_beamal_test_universal_alec/lib/lufa/LUFA/Drivers/USB/Core/AVR8/Endpoint_AVR8.o
                0x00005f2e                Endpoint_WaitUntilReady
 .text.USB_Disable
                0x00005f90       0x34 .build/obj_xwhatsit_ibm_beamal_test_universal_alec/lib/lufa/LUFA/Drivers/USB/Core/AVR8/USBController_AVR8.o
                0x00005f90                USB_Disable
 .text.USB_ResetInterface
                0x00005fc4       0x86 .build/obj_xwhatsit_ibm_beamal_test_universal_alec/lib/lufa/LUFA/Drivers/USB/Core/AVR8/USBController_AVR8.o
                0x00005fc4                USB_ResetInterface
 .text.USB_Init
                0x0000604a       0x24 .build/obj_xwhatsit_ibm_beamal_test_universal_alec/lib/lufa/LUFA/Drivers/USB/Core/AVR8/USBController_AVR8.o
                0x0000604a                USB_Init
 .text.USB_INT_DisableAllInterrupts
                0x0000606e       0x10 .build/obj_xwhatsit_ibm_beamal_test_universal_alec/lib/lufa/LUFA/Drivers/USB/Core/AVR8/USBInterrupt_AVR8.o
                0x0000606e                USB_INT_DisableAllInterrupts
 .text.USB_INT_ClearAllInterrupts
                0x0000607e        0xa .build/obj_xwhatsit_ibm_beamal_test_universal_alec/lib/lufa/LUFA/Drivers/USB/Core/AVR8/USBInterrupt_AVR8.o
                0x0000607e                USB_INT_ClearAllInterrupts
 .text.__vector_10
                0x00006088      0x1a8 .build/obj_xwhatsit_ibm_beamal_test_universal_alec/lib/lufa/LUFA/Drivers/USB/Core/AVR8/USBInterrupt_AVR8.o
                0x00006088                __vector_10
 .text.__vector_11
                0x00006230       0x88 .build/obj_xwhatsit_ibm_beamal_test_universal_alec/lib/lufa/LUFA/Drivers/USB/Core/AVR8/USBInterrupt_AVR8.o
                0x00006230                __vector_11
 .text.USB_Device_ProcessControlRequest
                0x000062b8      0x28e .build/obj_xwhatsit_ibm_beamal_test_universal_alec/lib/lufa/LUFA/Drivers/USB/Core/DeviceStandardReq.o
                0x000062b8                USB_Device_ProcessControlRequest
 .text.USB_USBTask
                0x00006546       0x36 .build/obj_xwhatsit_ibm_beamal_test_universal_alec/lib/lufa/LUFA/Drivers/USB/Core/USBTask.o
                0x00006546                USB_USBTask
 .text.libgcc.div
                0x0000657c       0x18 /usr/local/Cellar/avr-gcc@8/8.5.0/lib/avr-gcc/8/gcc/avr/8.5.0/avr5/libgcc.a(_udivmodqi4.o)
                0x0000657c                __udivmodqi4
 .text.libgcc.div
                0x00006594       0x28 /usr/local/Cellar/avr-gcc@8/8.5.0/lib/avr-gcc/8/gcc/avr/8.5.0/avr5/libgcc.a(_udivmodhi4.o)
                0x00006594                __udivmodhi4
 .text.libgcc.div
                0x000065bc       0x28 /usr/local/Cellar/avr-gcc@8/8.5.0/lib/avr-gcc/8/gcc/avr/8.5.0/avr5/libgcc.a(_divmodhi4.o)
                0x000065bc                __divmodhi4
                0x000065bc                _div
 .text.libgcc   0x000065e4        0xc /usr/local/Cellar/avr-gcc@8/8.5.0/lib/avr-gcc/8/gcc/avr/8.5.0/avr5/libgcc.a(_tablejump2.o)
                0x000065e4                __tablejump2__
 .text.libgcc.prologue
                0x000065f0       0x38 /usr/local/Cellar/avr-gcc@8/8.5.0/lib/avr-gcc/8/gcc/avr/8.5.0/avr5/libgcc.a(_prologue.o)
                0x000065f0                __prologue_saves__
 .text.libgcc.prologue
                0x00006628       0x36 /usr/local/Cellar/avr-gcc@8/8.5.0/lib/avr-gcc/8/gcc/avr/8.5.0/avr5/libgcc.a(_epilogue.o)
                0x00006628                __epilogue_restores__
 .text.avr-libc
                0x0000665e       0x1a /usr/local/Cellar/avr-gcc@8/8.5.0/lib/avr-gcc/8/gcc/avr/8.5.0/../../../../../../avr/lib/avr5/libc.a(memcmp.o)
                0x0000665e                memcmp
 .text.avr-libc
                0x00006678       0x12 /usr/local/Cellar/avr-gcc@8/8.5.0/lib/avr-gcc/8/gcc/avr/8.5.0/../../../../../../avr/lib/avr5/libc.a(memcpy.o)
                0x00006678                memcpy
 .text.avr-libc
                0x0000668a        0xe /usr/local/Cellar/avr-gcc@8/8.5.0/lib/avr-gcc/8/gcc/avr/8.5.0/../../../../../../avr/lib/avr5/libc.a(memset.o)
                0x0000668a                memset
 .text.avr-libc
                0x00006698       0x10 /usr/local/Cellar/avr-gcc@8/8.5.0/lib/avr-gcc/8/gcc/avr/8.5.0/../../../../../../avr/lib/avr5/libatmega32u4.a(eerd_byte.o)
                0x00006698                eeprom_read_byte
 .text.avr-libc
                0x000066a8        0xc /usr/local/Cellar/avr-gcc@8/8.5.0/lib/avr-gcc/8/gcc/avr/8.5.0/../../../../../../avr/lib/avr5/libatmega32u4.a(eerd_dword.o)
                0x000066a8                eeprom_read_dword
                0x000066a8                eeprom_read_float
 .text.avr-libc
                0x000066b4        0xc /usr/local/Cellar/avr-gcc@8/8.5.0/lib/avr-gcc/8/gcc/avr/8.5.0/../../../../../../avr/lib/avr5/libatmega32u4.a(eerd_word.o)
                0x000066b4                eeprom_read_word
 .text.avr-libc
                0x000066c0       0x24 /usr/local/Cellar/avr-gcc@8/8.5.0/lib/avr-gcc/8/gcc/avr/8.5.0/../../../../../../avr/lib/avr5/libatmega32u4.a(eeupd_byte.o)
                0x000066c0                eeprom_update_byte
                0x000066c2                eeprom_update_r18
 .text.avr-libc
                0x000066e4       0x18 /usr/local/Cellar/avr-gcc@8/8.5.0/lib/avr-gcc/8/gcc/avr/8.5.0/../../../../../../avr/lib/avr5/libatmega32u4.a(eeupd_dword.o)
                0x000066e4                eeprom_update_dword
                0x000066e4                eeprom_update_float
 .text.avr-libc
                0x000066fc        0xc /usr/local/Cellar/avr-gcc@8/8.5.0/lib/avr-gcc/8/gcc/avr/8.5.0/../../../../../../avr/lib/avr5/libatmega32u4.a(eeupd_word.o)
                0x000066fc                eeprom_update_word
 .text.avr-libc
                0x00006708       0x20 /usr/local/Cellar/avr-gcc@8/8.5.0/lib/avr-gcc/8/gcc/avr/8.5.0/../../../../../../avr/lib/avr5/libatmega32u4.a(eerd_block.o)
                0x00006708                eeprom_read_block
                0x0000670c                eeprom_read_blraw
                0x00006728                        . = ALIGN (0x2)
 *(.fini9)
 .fini9         0x00006728        0x0 /usr/local/Cellar/avr-gcc@8/8.5.0/lib/avr-gcc/8/gcc/avr/8.5.0/avr5/libgcc.a(_exit.o)
                0x00006728                exit
                0x00006728                _exit
 *(.fini9)
 *(.fini8)
 *(.fini8)
 *(.fini7)
 *(.fini7)
 *(.fini6)
 *(.fini6)
 *(.fini5)
 *(.fini5)
 *(.fini4)
 *(.fini4)
 *(.fini3)
 *(.fini3)
 *(.fini2)
 *(.fini2)
 *(.fini1)
 *(.fini1)
 *(.fini0)
 .fini0         0x00006728        0x4 /usr/local/Cellar/avr-gcc@8/8.5.0/lib/avr-gcc/8/gcc/avr/8.5.0/avr5/libgcc.a(_exit.o)
 *(.fini0)
 *(.hightext)
 *(.hightext*)
 *(.progmemx.*)
                0x0000672c                        . = ALIGN (0x2)
 *(.jumptables)
 *(.jumptables*)
 .jumptables.gcc.raw_hid_receive
                0x0000672c       0x1c .build/obj_xwhatsit_ibm_beamal_test_universal_alec/keyboards/xwhatsit/util_comm.o
 .jumptables.gcc.process_record_user
                0x00006748       0x4e .build/obj_xwhatsit_ibm_beamal_test_universal_alec/quantum/keymap_introspection.o
 .jumptables.gcc.process_action
                0x00006796       0x18 .build/obj_xwhatsit_ibm_beamal_test_universal_alec/quantum/action.o
 .jumptables.gcc.process_haptic
                0x000067ae       0x1a .build/obj_xwhatsit_ibm_beamal_test_universal_alec/quantum/process_keycode/process_haptic.o
 .jumptables.gcc.USB_Device_ProcessControlRequest
                0x000067c8       0x14 .build/obj_xwhatsit_ibm_beamal_test_universal_alec/lib/lufa/LUFA/Drivers/USB/Core/DeviceStandardReq.o
                0x000067dc                        _etext = .

.data           0x00800100       0x8e load address 0x000067dc
                0x00800100                        PROVIDE (__data_start = .)
 *(.data)
 *(.data*)
 .data.keyboard_scan_enabled
                0x00800100        0x1 .build/obj_xwhatsit_ibm_beamal_test_universal_alec/keyboards/xwhatsit/matrix.o
                0x00800100                keyboard_scan_enabled
 .data.keyboard_report
                0x00800101        0x2 .build/obj_xwhatsit_ibm_beamal_test_universal_alec/quantum/action_util.o
                0x00800101                keyboard_report
 .data.solenoid_dwell
                0x00800103        0x1 .build/obj_xwhatsit_ibm_beamal_test_universal_alec/solenoid.o
                0x00800103                solenoid_dwell
 .data.r_macro_end.6609
                0x00800104        0x2 .build/obj_xwhatsit_ibm_beamal_test_universal_alec/quantum/process_keycode/process_dynamic_macro.o
 .data.macro_end.6607
                0x00800106        0x2 .build/obj_xwhatsit_ibm_beamal_test_universal_alec/quantum/process_keycode/process_dynamic_macro.o
 .data.lufa_driver
                0x00800108        0xc .build/obj_xwhatsit_ibm_beamal_test_universal_alec/lufa.o
                0x00800108                lufa_driver
 .data.keyboard_protocol
                0x00800114        0x1 .build/obj_xwhatsit_ibm_beamal_test_universal_alec/lufa.o
                0x00800114                keyboard_protocol
 *(.gnu.linkonce.d*)
 *(.rodata)
 *(.rodata*)
 .rodata.magic  0x00800115        0x2 .build/obj_xwhatsit_ibm_beamal_test_universal_alec/keyboards/xwhatsit/util_comm.o
 .rodata.CSWTCH.13
                0x00800117       0x2e .build/obj_xwhatsit_ibm_beamal_test_universal_alec/quantum/action.o
 .rodata.CSWTCH.12
                0x00800145        0x3 .build/obj_xwhatsit_ibm_beamal_test_universal_alec/quantum/action.o
 .rodata.CSWTCH.1
                0x00800148       0x2e .build/obj_xwhatsit_ibm_beamal_test_universal_alec/quantum/keymap_common.o
 .rodata.CSWTCH.0
                0x00800176        0x3 .build/obj_xwhatsit_ibm_beamal_test_universal_alec/quantum/keymap_common.o
 .rodata.CSWTCH.2
                0x00800179        0x4 .build/obj_xwhatsit_ibm_beamal_test_universal_alec/usb_descriptor.o
 .rodata.CSWTCH.1
                0x0080017d        0x8 .build/obj_xwhatsit_ibm_beamal_test_universal_alec/usb_descriptor.o
 .rodata.CSWTCH.0
                0x00800185        0x8 .build/obj_xwhatsit_ibm_beamal_test_universal_alec/usb_descriptor.o
 *(.gnu.linkonce.r*)
                0x0080018e                        . = ALIGN (0x2)
 *fill*         0x0080018d        0x1 
                0x0080018e                        _edata = .
                0x0080018e                        PROVIDE (__data_end = .)

.bss            0x0080018e      0x57c
                0x0080018e                        PROVIDE (__bss_start = .)
 *(.bss)
 .bss           0x0080018e        0x2 .build/obj_xwhatsit_ibm_beamal_test_universal_alec/platforms/avr/xprintf.o
                0x0080018e                xfunc_out
 *(.bss*)
 .bss.cal_stats_printed
                0x00800190        0x1 .build/obj_xwhatsit_ibm_beamal_test_universal_alec/keyboards/xwhatsit/matrix.o
                0x00800190                cal_stats_printed
 .bss.last_led_status.5025
                0x00800191        0x1 .build/obj_xwhatsit_ibm_beamal_test_universal_alec/quantum/led.o
 .bss.last_led_modification_time
                0x00800192        0x4 .build/obj_xwhatsit_ibm_beamal_test_universal_alec/quantum/led.o
 .bss.disable_action_cache
                0x00800196        0x1 .build/obj_xwhatsit_ibm_beamal_test_universal_alec/quantum/action.o
                0x00800196                disable_action_cache
 .bss.source_layers_cache
                0x00800197       0x30 .build/obj_xwhatsit_ibm_beamal_test_universal_alec/quantum/action_layer.o
                0x00800197                source_layers_cache
 .bss.layer_state
                0x008001c7        0x2 .build/obj_xwhatsit_ibm_beamal_test_universal_alec/quantum/action_layer.o
                0x008001c7                layer_state
 .bss.default_layer_state
                0x008001c9        0x2 .build/obj_xwhatsit_ibm_beamal_test_universal_alec/quantum/action_layer.o
                0x008001c9                default_layer_state
 .bss.waiting_buffer_tail
                0x008001cb        0x1 .build/obj_xwhatsit_ibm_beamal_test_universal_alec/quantum/action_tapping.o
 .bss.waiting_buffer_head
                0x008001cc        0x1 .build/obj_xwhatsit_ibm_beamal_test_universal_alec/quantum/action_tapping.o
 .bss.waiting_buffer
                0x008001cd       0x30 .build/obj_xwhatsit_ibm_beamal_test_universal_alec/quantum/action_tapping.o
 .bss.tapping_key
                0x008001fd        0x6 .build/obj_xwhatsit_ibm_beamal_test_universal_alec/quantum/action_tapping.o
 .bss.last_report.5516
                0x00800203       0x20 .build/obj_xwhatsit_ibm_beamal_test_universal_alec/quantum/action_util.o
 .bss.oneshot_layer_time
                0x00800223        0x2 .build/obj_xwhatsit_ibm_beamal_test_universal_alec/quantum/action_util.o
 .bss.oneshot_layer_data
                0x00800225        0x1 .build/obj_xwhatsit_ibm_beamal_test_universal_alec/quantum/action_util.o
 .bss.oneshot_time
                0x00800226        0x2 .build/obj_xwhatsit_ibm_beamal_test_universal_alec/quantum/action_util.o
 .bss.oneshot_locked_mods
                0x00800228        0x1 .build/obj_xwhatsit_ibm_beamal_test_universal_alec/quantum/action_util.o
 .bss.oneshot_mods
                0x00800229        0x1 .build/obj_xwhatsit_ibm_beamal_test_universal_alec/quantum/action_util.o
 .bss.__compound_literal.0
                0x0080022a       0x20 .build/obj_xwhatsit_ibm_beamal_test_universal_alec/quantum/action_util.o
 .bss.weak_mods
                0x0080024a        0x1 .build/obj_xwhatsit_ibm_beamal_test_universal_alec/quantum/action_util.o
 .bss.real_mods
                0x0080024b        0x1 .build/obj_xwhatsit_ibm_beamal_test_universal_alec/quantum/action_util.o
 .bss.last_tick.6637
                0x0080024c        0x2 .build/obj_xwhatsit_ibm_beamal_test_universal_alec/quantum/keyboard.o
 .bss.matrix_previous.6644
                0x0080024e       0x10 .build/obj_xwhatsit_ibm_beamal_test_universal_alec/quantum/keyboard.o
 .bss.last_matrix_modification_time
                0x0080025e        0x4 .build/obj_xwhatsit_ibm_beamal_test_universal_alec/quantum/keyboard.o
 .bss.last_input_modification_time
                0x00800262        0x4 .build/obj_xwhatsit_ibm_beamal_test_universal_alec/quantum/keyboard.o
 .bss.debug_config
                0x00800266        0x1 .build/obj_xwhatsit_ibm_beamal_test_universal_alec/quantum/logging/debug.o
                0x00800266                debug_config
 .bss.debouncing_time
                0x00800267        0x2 .build/obj_xwhatsit_ibm_beamal_test_universal_alec/quantum/debounce/sym_defer_g.o
 .bss.debouncing
                0x00800269        0x1 .build/obj_xwhatsit_ibm_beamal_test_universal_alec/quantum/debounce/sym_defer_g.o
 .bss.solenoid_active_state
                0x0080026a        0x1 .build/obj_xwhatsit_ibm_beamal_test_universal_alec/solenoid.o
 .bss.solenoid_start
                0x0080026b        0x2 .build/obj_xwhatsit_ibm_beamal_test_universal_alec/solenoid.o
                0x0080026b                solenoid_start
 .bss.solenoid_buzzing
                0x0080026d        0x1 .build/obj_xwhatsit_ibm_beamal_test_universal_alec/solenoid.o
                0x0080026d                solenoid_buzzing
 .bss.solenoid_on
                0x0080026e        0x1 .build/obj_xwhatsit_ibm_beamal_test_universal_alec/solenoid.o
                0x0080026e                solenoid_on
 .bss.macro_buffer.6606
                0x0080026f      0x300 .build/obj_xwhatsit_ibm_beamal_test_universal_alec/quantum/process_keycode/process_dynamic_macro.o
 .bss.macro_pointer.6610
                0x0080056f        0x2 .build/obj_xwhatsit_ibm_beamal_test_universal_alec/quantum/process_keycode/process_dynamic_macro.o
 .bss.macro_id.6611
                0x00800571        0x1 .build/obj_xwhatsit_ibm_beamal_test_universal_alec/quantum/process_keycode/process_dynamic_macro.o
 .bss.grave_esc_was_shifted
                0x00800572        0x1 .build/obj_xwhatsit_ibm_beamal_test_universal_alec/quantum/process_keycode/process_grave_esc.o
 .bss.sc_timer  0x00800573        0x2 .build/obj_xwhatsit_ibm_beamal_test_universal_alec/quantum/process_keycode/process_space_cadet.o
 .bss.sc_last   0x00800575        0x1 .build/obj_xwhatsit_ibm_beamal_test_universal_alec/quantum/process_keycode/process_space_cadet.o
 .bss.last_consumer_report
                0x00800576        0x2 .build/obj_xwhatsit_ibm_beamal_test_universal_alec/protocol/host.o
 .bss.last_system_report
                0x00800578        0x2 .build/obj_xwhatsit_ibm_beamal_test_universal_alec/protocol/host.o
 .bss.driver    0x0080057a        0x2 .build/obj_xwhatsit_ibm_beamal_test_universal_alec/protocol/host.o
 .bss.usb_device_state
                0x0080057c        0x1 .build/obj_xwhatsit_ibm_beamal_test_universal_alec/protocol/usb_device_state.o
                0x0080057c                usb_device_state
 .bss.wdt_timeout
                0x0080057d        0x1 .build/obj_xwhatsit_ibm_beamal_test_universal_alec/platforms/avr/suspend.o
 .bss.timed_out.6743
                0x0080057e        0x1 .build/obj_xwhatsit_ibm_beamal_test_universal_alec/lufa.o
 .bss.count.6670
                0x0080057f        0x1 .build/obj_xwhatsit_ibm_beamal_test_universal_alec/lufa.o
 .bss.r.6729    0x00800580        0x3 .build/obj_xwhatsit_ibm_beamal_test_universal_alec/lufa.o
 .bss.console_flush
                0x00800583        0x1 .build/obj_xwhatsit_ibm_beamal_test_universal_alec/lufa.o
 .bss.keyboard_report_sent
                0x00800584       0x20 .build/obj_xwhatsit_ibm_beamal_test_universal_alec/lufa.o
 .bss.keyboard_led_state
                0x008005a4        0x1 .build/obj_xwhatsit_ibm_beamal_test_universal_alec/lufa.o
 .bss.keyboard_idle
                0x008005a5        0x1 .build/obj_xwhatsit_ibm_beamal_test_universal_alec/lufa.o
                0x008005a5                keyboard_idle
 *(COMMON)
 COMMON         0x008005a6      0x124 .build/obj_xwhatsit_ibm_beamal_test_universal_alec/keyboards/xwhatsit/matrix.o
                0x008005a6                cal_thresholds
                0x008005c4                cal_tr_allone
                0x008005c6                previous_matrix
                0x008005d6                cal_tr_allzero
                0x008005d8                assigned_to_threshold
                0x008006c8                cal_time
 COMMON         0x008006ca        0x2 .build/obj_xwhatsit_ibm_beamal_test_universal_alec/keyboards/xwhatsit/xwhatsit.o
                0x008006ca                initial_fp
 COMMON         0x008006cc        0x2 .build/obj_xwhatsit_ibm_beamal_test_universal_alec/quantum/bootmagic/magic.o
                0x008006cc                keymap_config
 COMMON         0x008006ce       0x20 .build/obj_xwhatsit_ibm_beamal_test_universal_alec/quantum/matrix_common.o
                0x008006ce                raw_matrix
                0x008006de                matrix
 COMMON         0x008006ee        0x7 .build/obj_xwhatsit_ibm_beamal_test_universal_alec/quantum/process_keycode/process_unicode_common.o
                0x008006ee                unicode_saved_num_lock
                0x008006ef                unicode_config
                0x008006f3                unicode_saved_mods
                0x008006f4                unicode_saved_caps_lock
 COMMON         0x008006f5        0x4 .build/obj_xwhatsit_ibm_beamal_test_universal_alec/quantum/haptic.o
                0x008006f5                haptic_config
 COMMON         0x008006f9        0x4 .build/obj_xwhatsit_ibm_beamal_test_universal_alec/platforms/avr/timer.o
                0x008006f9                timer_count
 COMMON         0x008006fd        0x3 .build/obj_xwhatsit_ibm_beamal_test_universal_alec/lib/lufa/LUFA/Drivers/USB/Core/DeviceStandardReq.o
                0x008006fd                USB_Device_ConfigurationNumber
                0x008006fe                USB_Device_CurrentlySelfPowered
                0x008006ff                USB_Device_RemoteWakeupEnabled
 COMMON         0x00800700        0xa .build/obj_xwhatsit_ibm_beamal_test_universal_alec/lib/lufa/LUFA/Drivers/USB/Core/USBTask.o
                0x00800700                USB_IsInitialized
                0x00800701                USB_DeviceState
                0x00800702                USB_ControlRequest
                0x0080070a                        PROVIDE (__bss_end = .)
                0x000067dc                        __data_load_start = LOADADDR (.data)
                0x0000686a                        __data_load_end = (__data_load_start + SIZEOF (.data))

.noinit         0x0080070a        0x0
                [!provide]                        PROVIDE (__noinit_start = .)
 *(.noinit .noinit.* .gnu.linkonce.n.*)
                [!provide]                        PROVIDE (__noinit_end = .)
                0x0080070a                        _end = .
                [!provide]                        PROVIDE (__heap_start = .)

.eeprom         0x00810000        0x0
 *(.eeprom*)
                0x00810000                        __eeprom_end = .

.fuse
 *(.fuse)
 *(.lfuse)
 *(.hfuse)
 *(.efuse)

.lock
 *(.lock*)

.signature
 *(.signature*)

.stab
 *(.stab)

.stabstr
 *(.stabstr)

.stab.excl
 *(.stab.excl)

.stab.exclstr
 *(.stab.exclstr)

.stab.index
 *(.stab.index)

.stab.indexstr
 *(.stab.indexstr)

.comment        0x00000000       0x24
 *(.comment)
 .comment       0x00000000       0x24 .build/obj_xwhatsit_ibm_beamal_test_universal_alec/keyboards/xwhatsit/matrix.o
                                 0x25 (size before relaxing)
 .comment       0x00000024       0x25 .build/obj_xwhatsit_ibm_beamal_test_universal_alec/keyboards/xwhatsit/util_comm.o
 .comment       0x00000024       0x25 .build/obj_xwhatsit_ibm_beamal_test_universal_alec/keyboards/xwhatsit/xwhatsit.o
 .comment       0x00000024       0x25 .build/obj_xwhatsit_ibm_beamal_test_universal_alec/keyboards/xwhatsit/ibm/beamal_test/universal/universal.o
 .comment       0x00000024       0x25 .build/obj_xwhatsit_ibm_beamal_test_universal_alec/quantum/keymap_introspection.o
 .comment       0x00000024       0x25 .build/obj_xwhatsit_ibm_beamal_test_universal_alec/quantum/quantum.o
 .comment       0x00000024       0x25 .build/obj_xwhatsit_ibm_beamal_test_universal_alec/quantum/bitwise.o
 .comment       0x00000024       0x25 .build/obj_xwhatsit_ibm_beamal_test_universal_alec/quantum/led.o
 .comment       0x00000024       0x25 .build/obj_xwhatsit_ibm_beamal_test_universal_alec/quantum/action.o
 .comment       0x00000024       0x25 .build/obj_xwhatsit_ibm_beamal_test_universal_alec/quantum/action_layer.o
 .comment       0x00000024       0x25 .build/obj_xwhatsit_ibm_beamal_test_universal_alec/quantum/action_tapping.o
 .comment       0x00000024       0x25 .build/obj_xwhatsit_ibm_beamal_test_universal_alec/quantum/action_util.o
 .comment       0x00000024       0x25 .build/obj_xwhatsit_ibm_beamal_test_universal_alec/quantum/eeconfig.o
 .comment       0x00000024       0x25 .build/obj_xwhatsit_ibm_beamal_test_universal_alec/quantum/keyboard.o
 .comment       0x00000024       0x25 .build/obj_xwhatsit_ibm_beamal_test_universal_alec/quantum/keymap_common.o
 .comment       0x00000024       0x25 .build/obj_xwhatsit_ibm_beamal_test_universal_alec/quantum/keycode_config.o
 .comment       0x00000024       0x25 .build/obj_xwhatsit_ibm_beamal_test_universal_alec/quantum/logging/debug.o
 .comment       0x00000024       0x25 .build/obj_xwhatsit_ibm_beamal_test_universal_alec/quantum/bootmagic/bootmagic_lite.o
 .comment       0x00000024       0x25 .build/obj_xwhatsit_ibm_beamal_test_universal_alec/quantum/bootmagic/magic.o
 .comment       0x00000024       0x25 .build/obj_xwhatsit_ibm_beamal_test_universal_alec/quantum/matrix_common.o
 .comment       0x00000024       0x25 .build/obj_xwhatsit_ibm_beamal_test_universal_alec/quantum/debounce/sym_defer_g.o
 .comment       0x00000024       0x25 .build/obj_xwhatsit_ibm_beamal_test_universal_alec/quantum/main.o
 .comment       0x00000024       0x25 .build/obj_xwhatsit_ibm_beamal_test_universal_alec/solenoid.o
 .comment       0x00000024       0x25 .build/obj_xwhatsit_ibm_beamal_test_universal_alec/quantum/process_keycode/process_unicode.o
 .comment       0x00000024       0x25 .build/obj_xwhatsit_ibm_beamal_test_universal_alec/quantum/process_keycode/process_unicode_common.o
 .comment       0x00000024       0x25 .build/obj_xwhatsit_ibm_beamal_test_universal_alec/quantum/process_keycode/process_magic.o
 .comment       0x00000024       0x25 .build/obj_xwhatsit_ibm_beamal_test_universal_alec/quantum/send_string/send_string.o
 .comment       0x00000024       0x25 .build/obj_xwhatsit_ibm_beamal_test_universal_alec/quantum/process_keycode/process_dynamic_macro.o
 .comment       0x00000024       0x25 .build/obj_xwhatsit_ibm_beamal_test_universal_alec/quantum/process_keycode/process_grave_esc.o
 .comment       0x00000024       0x25 .build/obj_xwhatsit_ibm_beamal_test_universal_alec/quantum/process_keycode/process_haptic.o
 .comment       0x00000024       0x25 .build/obj_xwhatsit_ibm_beamal_test_universal_alec/quantum/haptic.o
 .comment       0x00000024       0x25 .build/obj_xwhatsit_ibm_beamal_test_universal_alec/quantum/process_keycode/process_space_cadet.o
 .comment       0x00000024       0x25 .build/obj_xwhatsit_ibm_beamal_test_universal_alec/platforms/avr/printf.o
 .comment       0x00000024       0x25 .build/obj_xwhatsit_ibm_beamal_test_universal_alec/protocol/host.o
 .comment       0x00000024       0x25 .build/obj_xwhatsit_ibm_beamal_test_universal_alec/protocol/report.o
 .comment       0x00000024       0x25 .build/obj_xwhatsit_ibm_beamal_test_universal_alec/protocol/usb_device_state.o
 .comment       0x00000024       0x25 .build/obj_xwhatsit_ibm_beamal_test_universal_alec/platforms/suspend.o
 .comment       0x00000024       0x25 .build/obj_xwhatsit_ibm_beamal_test_universal_alec/platforms/avr/platform.o
 .comment       0x00000024       0x25 .build/obj_xwhatsit_ibm_beamal_test_universal_alec/platforms/avr/suspend.o
 .comment       0x00000024       0x25 .build/obj_xwhatsit_ibm_beamal_test_universal_alec/platforms/avr/timer.o
 .comment       0x00000024       0x25 .build/obj_xwhatsit_ibm_beamal_test_universal_alec/platforms/avr/bootloaders/caterina.o
 .comment       0x00000024       0x25 .build/obj_xwhatsit_ibm_beamal_test_universal_alec/lufa.o
 .comment       0x00000024       0x25 .build/obj_xwhatsit_ibm_beamal_test_universal_alec/usb_descriptor.o
 .comment       0x00000024       0x25 .build/obj_xwhatsit_ibm_beamal_test_universal_alec/lib/lufa/LUFA/Drivers/USB/Core/AVR8/Device_AVR8.o
 .comment       0x00000024       0x25 .build/obj_xwhatsit_ibm_beamal_test_universal_alec/lib/lufa/LUFA/Drivers/USB/Core/AVR8/EndpointStream_AVR8.o
 .comment       0x00000024       0x25 .build/obj_xwhatsit_ibm_beamal_test_universal_alec/lib/lufa/LUFA/Drivers/USB/Core/AVR8/Endpoint_AVR8.o
 .comment       0x00000024       0x25 .build/obj_xwhatsit_ibm_beamal_test_universal_alec/lib/lufa/LUFA/Drivers/USB/Core/AVR8/USBController_AVR8.o
 .comment       0x00000024       0x25 .build/obj_xwhatsit_ibm_beamal_test_universal_alec/lib/lufa/LUFA/Drivers/USB/Core/AVR8/USBInterrupt_AVR8.o
 .comment       0x00000024       0x25 .build/obj_xwhatsit_ibm_beamal_test_universal_alec/lib/lufa/LUFA/Drivers/USB/Core/DeviceStandardReq.o
 .comment       0x00000024       0x25 .build/obj_xwhatsit_ibm_beamal_test_universal_alec/lib/lufa/LUFA/Drivers/USB/Core/USBTask.o

.note.gnu.avr.deviceinfo
                0x00000000       0x40
 .note.gnu.avr.deviceinfo
                0x00000000       0x40 /usr/local/Cellar/avr-gcc@8/8.5.0/lib/avr-gcc/8/gcc/avr/8.5.0/../../../../../../avr/lib/avr5/crtatmega32u4.o

.note.gnu.build-id
 *(.note.gnu.build-id)

.debug
 *(.debug)

.line
 *(.line)

.debug_srcinfo
 *(.debug_srcinfo)

.debug_sfnames
 *(.debug_sfnames)

.debug_aranges  0x00000000     0x13e0
 *(.debug_aranges)
 .debug_aranges
                0x00000000       0xe0 .build/obj_xwhatsit_ibm_beamal_test_universal_alec/keyboards/xwhatsit/matrix.o
 .debug_aranges
                0x000000e0       0x20 .build/obj_xwhatsit_ibm_beamal_test_universal_alec/keyboards/xwhatsit/util_comm.o
 .debug_aranges
                0x00000100       0x28 .build/obj_xwhatsit_ibm_beamal_test_universal_alec/keyboards/xwhatsit/xwhatsit.o
 .debug_aranges
                0x00000128       0x20 .build/obj_xwhatsit_ibm_beamal_test_universal_alec/keyboards/xwhatsit/ibm/beamal_test/universal/universal.o
 .debug_aranges
                0x00000148       0x40 .build/obj_xwhatsit_ibm_beamal_test_universal_alec/quantum/keymap_introspection.o
 .debug_aranges
                0x00000188      0x110 .build/obj_xwhatsit_ibm_beamal_test_universal_alec/quantum/quantum.o
 .debug_aranges
                0x00000298       0x60 .build/obj_xwhatsit_ibm_beamal_test_universal_alec/quantum/bitwise.o
 .debug_aranges
                0x000002f8       0x70 .build/obj_xwhatsit_ibm_beamal_test_universal_alec/quantum/led.o
 .debug_aranges
                0x00000368       0xd8 .build/obj_xwhatsit_ibm_beamal_test_universal_alec/quantum/action.o
 .debug_aranges
                0x00000440       0xf0 .build/obj_xwhatsit_ibm_beamal_test_universal_alec/quantum/action_layer.o
 .debug_aranges
                0x00000530       0x40 .build/obj_xwhatsit_ibm_beamal_test_universal_alec/quantum/action_tapping.o
 .debug_aranges
                0x00000570      0x158 .build/obj_xwhatsit_ibm_beamal_test_universal_alec/quantum/action_util.o
 .debug_aranges
                0x000006c8       0xd8 .build/obj_xwhatsit_ibm_beamal_test_universal_alec/quantum/eeconfig.o
 .debug_aranges
                0x000007a0       0xb8 .build/obj_xwhatsit_ibm_beamal_test_universal_alec/quantum/keyboard.o
 .debug_aranges
                0x00000858       0x30 .build/obj_xwhatsit_ibm_beamal_test_universal_alec/quantum/keymap_common.o
 .debug_aranges
                0x00000888       0x28 .build/obj_xwhatsit_ibm_beamal_test_universal_alec/quantum/keycode_config.o
 .debug_aranges
                0x000008b0       0x18 .build/obj_xwhatsit_ibm_beamal_test_universal_alec/quantum/logging/debug.o
 .debug_aranges
                0x000008c8       0x30 .build/obj_xwhatsit_ibm_beamal_test_universal_alec/quantum/bootmagic/bootmagic_lite.o
 .debug_aranges
                0x000008f8       0x28 .build/obj_xwhatsit_ibm_beamal_test_universal_alec/quantum/bootmagic/magic.o
 .debug_aranges
                0x00000920       0x90 .build/obj_xwhatsit_ibm_beamal_test_universal_alec/quantum/matrix_common.o
 .debug_aranges
                0x000009b0       0x30 .build/obj_xwhatsit_ibm_beamal_test_universal_alec/quantum/debounce/sym_defer_g.o
 .debug_aranges
                0x000009e0       0x30 .build/obj_xwhatsit_ibm_beamal_test_universal_alec/quantum/main.o
 .debug_aranges
                0x00000a10       0x68 .build/obj_xwhatsit_ibm_beamal_test_universal_alec/solenoid.o
 .debug_aranges
                0x00000a78       0x20 .build/obj_xwhatsit_ibm_beamal_test_universal_alec/quantum/process_keycode/process_unicode.o
 .debug_aranges
                0x00000a98       0x88 .build/obj_xwhatsit_ibm_beamal_test_universal_alec/quantum/process_keycode/process_unicode_common.o
 .debug_aranges
                0x00000b20       0x20 .build/obj_xwhatsit_ibm_beamal_test_universal_alec/quantum/process_keycode/process_magic.o
 .debug_aranges
                0x00000b40       0x68 .build/obj_xwhatsit_ibm_beamal_test_universal_alec/quantum/send_string/send_string.o
 .debug_aranges
                0x00000ba8       0x60 .build/obj_xwhatsit_ibm_beamal_test_universal_alec/quantum/process_keycode/process_dynamic_macro.o
 .debug_aranges
                0x00000c08       0x20 .build/obj_xwhatsit_ibm_beamal_test_universal_alec/quantum/process_keycode/process_grave_esc.o
 .debug_aranges
                0x00000c28       0x28 .build/obj_xwhatsit_ibm_beamal_test_universal_alec/quantum/process_keycode/process_haptic.o
 .debug_aranges
                0x00000c50      0x110 .build/obj_xwhatsit_ibm_beamal_test_universal_alec/quantum/haptic.o
 .debug_aranges
                0x00000d60       0x28 .build/obj_xwhatsit_ibm_beamal_test_universal_alec/quantum/process_keycode/process_space_cadet.o
 .debug_aranges
                0x00000d88       0x20 .build/obj_xwhatsit_ibm_beamal_test_universal_alec/platforms/avr/printf.o
 .debug_aranges
                0x00000da8       0x88 .build/obj_xwhatsit_ibm_beamal_test_universal_alec/protocol/host.o
 .debug_aranges
                0x00000e30       0x68 .build/obj_xwhatsit_ibm_beamal_test_universal_alec/protocol/report.o
 .debug_aranges
                0x00000e98       0x40 .build/obj_xwhatsit_ibm_beamal_test_universal_alec/protocol/usb_device_state.o
 .debug_aranges
                0x00000ed8       0x38 .build/obj_xwhatsit_ibm_beamal_test_universal_alec/platforms/suspend.o
 .debug_aranges
                0x00000f10       0x20 .build/obj_xwhatsit_ibm_beamal_test_universal_alec/platforms/avr/platform.o
 .debug_aranges
                0x00000f30       0x30 .build/obj_xwhatsit_ibm_beamal_test_universal_alec/platforms/avr/suspend.o
 .debug_aranges
                0x00000f60       0x50 .build/obj_xwhatsit_ibm_beamal_test_universal_alec/platforms/avr/timer.o
 .debug_aranges
                0x00000fb0       0x28 .build/obj_xwhatsit_ibm_beamal_test_universal_alec/platforms/avr/bootloaders/caterina.o
 .debug_aranges
                0x00000fd8       0xd8 .build/obj_xwhatsit_ibm_beamal_test_universal_alec/lufa.o
 .debug_aranges
                0x000010b0       0x20 .build/obj_xwhatsit_ibm_beamal_test_universal_alec/usb_descriptor.o
 .debug_aranges
                0x000010d0       0x20 .build/obj_xwhatsit_ibm_beamal_test_universal_alec/lib/lufa/LUFA/Drivers/USB/Core/AVR8/Device_AVR8.o
 .debug_aranges
                0x000010f0       0xc8 .build/obj_xwhatsit_ibm_beamal_test_universal_alec/lib/lufa/LUFA/Drivers/USB/Core/AVR8/EndpointStream_AVR8.o
 .debug_aranges
                0x000011b8       0x40 .build/obj_xwhatsit_ibm_beamal_test_universal_alec/lib/lufa/LUFA/Drivers/USB/Core/AVR8/Endpoint_AVR8.o
 .debug_aranges
                0x000011f8       0x30 .build/obj_xwhatsit_ibm_beamal_test_universal_alec/lib/lufa/LUFA/Drivers/USB/Core/AVR8/USBController_AVR8.o
 .debug_aranges
                0x00001228       0x38 .build/obj_xwhatsit_ibm_beamal_test_universal_alec/lib/lufa/LUFA/Drivers/USB/Core/AVR8/USBInterrupt_AVR8.o
 .debug_aranges
                0x00001260       0x20 .build/obj_xwhatsit_ibm_beamal_test_universal_alec/lib/lufa/LUFA/Drivers/USB/Core/DeviceStandardReq.o
 .debug_aranges
                0x00001280       0x20 .build/obj_xwhatsit_ibm_beamal_test_universal_alec/lib/lufa/LUFA/Drivers/USB/Core/USBTask.o
 .debug_aranges
                0x000012a0       0x20 /usr/local/Cellar/avr-gcc@8/8.5.0/lib/avr-gcc/8/gcc/avr/8.5.0/avr5/libgcc.a(_udivmodqi4.o)
 .debug_aranges
                0x000012c0       0x20 /usr/local/Cellar/avr-gcc@8/8.5.0/lib/avr-gcc/8/gcc/avr/8.5.0/avr5/libgcc.a(_udivmodhi4.o)
 .debug_aranges
                0x000012e0       0x20 /usr/local/Cellar/avr-gcc@8/8.5.0/lib/avr-gcc/8/gcc/avr/8.5.0/avr5/libgcc.a(_divmodhi4.o)
 .debug_aranges
                0x00001300       0x20 /usr/local/Cellar/avr-gcc@8/8.5.0/lib/avr-gcc/8/gcc/avr/8.5.0/avr5/libgcc.a(_exit.o)
 .debug_aranges
                0x00001320       0x20 /usr/local/Cellar/avr-gcc@8/8.5.0/lib/avr-gcc/8/gcc/avr/8.5.0/avr5/libgcc.a(_tablejump2.o)
 .debug_aranges
                0x00001340       0x20 /usr/local/Cellar/avr-gcc@8/8.5.0/lib/avr-gcc/8/gcc/avr/8.5.0/avr5/libgcc.a(_copy_data.o)
 .debug_aranges
                0x00001360       0x20 /usr/local/Cellar/avr-gcc@8/8.5.0/lib/avr-gcc/8/gcc/avr/8.5.0/avr5/libgcc.a(_clear_bss.o)
 .debug_aranges
                0x00001380       0x20 /usr/local/Cellar/avr-gcc@8/8.5.0/lib/avr-gcc/8/gcc/avr/8.5.0/avr5/libgcc.a(_ctors.o)
 .debug_aranges
                0x000013a0       0x20 /usr/local/Cellar/avr-gcc@8/8.5.0/lib/avr-gcc/8/gcc/avr/8.5.0/avr5/libgcc.a(_prologue.o)
 .debug_aranges
                0x000013c0       0x20 /usr/local/Cellar/avr-gcc@8/8.5.0/lib/avr-gcc/8/gcc/avr/8.5.0/avr5/libgcc.a(_epilogue.o)

.debug_pubnames
 *(.debug_pubnames)

.debug_info     0x00000000    0x2f0ac
 *(.debug_info .gnu.linkonce.wi.*)
 .debug_info    0x00000000      0x9f4 /usr/local/Cellar/avr-gcc@8/8.5.0/lib/avr-gcc/8/gcc/avr/8.5.0/../../../../../../avr/lib/avr5/crtatmega32u4.o
 .debug_info    0x000009f4     0x2809 .build/obj_xwhatsit_ibm_beamal_test_universal_alec/keyboards/xwhatsit/matrix.o
 .debug_info    0x000031fd      0xe3b .build/obj_xwhatsit_ibm_beamal_test_universal_alec/keyboards/xwhatsit/util_comm.o
 .debug_info    0x00004038       0xe0 .build/obj_xwhatsit_ibm_beamal_test_universal_alec/keyboards/xwhatsit/xwhatsit.o
 .debug_info    0x00004118      0x845 .build/obj_xwhatsit_ibm_beamal_test_universal_alec/keyboards/xwhatsit/ibm/beamal_test/universal/universal.o
 .debug_info    0x0000495d     0x24a1 .build/obj_xwhatsit_ibm_beamal_test_universal_alec/quantum/keymap_introspection.o
 .debug_info    0x00006dfe     0x2a47 .build/obj_xwhatsit_ibm_beamal_test_universal_alec/quantum/quantum.o
 .debug_info    0x00009845      0x309 .build/obj_xwhatsit_ibm_beamal_test_universal_alec/quantum/bitwise.o
 .debug_info    0x00009b4e      0x77e .build/obj_xwhatsit_ibm_beamal_test_universal_alec/quantum/led.o
 .debug_info    0x0000a2cc     0x2427 .build/obj_xwhatsit_ibm_beamal_test_universal_alec/quantum/action.o
 .debug_info    0x0000c6f3     0x1216 .build/obj_xwhatsit_ibm_beamal_test_universal_alec/quantum/action_layer.o
 .debug_info    0x0000d909      0xf11 .build/obj_xwhatsit_ibm_beamal_test_universal_alec/quantum/action_tapping.o
 .debug_info    0x0000e81a     0x1021 .build/obj_xwhatsit_ibm_beamal_test_universal_alec/quantum/action_util.o
 .debug_info    0x0000f83b      0x89d .build/obj_xwhatsit_ibm_beamal_test_universal_alec/quantum/eeconfig.o
 .debug_info    0x000100d8     0x102f .build/obj_xwhatsit_ibm_beamal_test_universal_alec/quantum/keyboard.o
 .debug_info    0x00011107     0x21c4 .build/obj_xwhatsit_ibm_beamal_test_universal_alec/quantum/keymap_common.o
 .debug_info    0x000132cb      0x660 .build/obj_xwhatsit_ibm_beamal_test_universal_alec/quantum/keycode_config.o
 .debug_info    0x0001392b      0x130 .build/obj_xwhatsit_ibm_beamal_test_universal_alec/quantum/logging/debug.o
 .debug_info    0x00013a5b      0x9bc .build/obj_xwhatsit_ibm_beamal_test_universal_alec/quantum/bootmagic/bootmagic_lite.o
 .debug_info    0x00014417      0x735 .build/obj_xwhatsit_ibm_beamal_test_universal_alec/quantum/bootmagic/magic.o
 .debug_info    0x00014b4c      0xdc1 .build/obj_xwhatsit_ibm_beamal_test_universal_alec/quantum/matrix_common.o
 .debug_info    0x0001590d      0xa2a .build/obj_xwhatsit_ibm_beamal_test_universal_alec/quantum/debounce/sym_defer_g.o
 .debug_info    0x00016337      0x1b9 .build/obj_xwhatsit_ibm_beamal_test_universal_alec/quantum/main.o
 .debug_info    0x000164f0      0x4ff .build/obj_xwhatsit_ibm_beamal_test_universal_alec/solenoid.o
 .debug_info    0x000169ef     0x171f .build/obj_xwhatsit_ibm_beamal_test_universal_alec/quantum/process_keycode/process_unicode.o
 .debug_info    0x0001810e     0x2369 .build/obj_xwhatsit_ibm_beamal_test_universal_alec/quantum/process_keycode/process_unicode_common.o
 .debug_info    0x0001a477     0x173d .build/obj_xwhatsit_ibm_beamal_test_universal_alec/quantum/process_keycode/process_magic.o
 .debug_info    0x0001bbb4     0x1611 .build/obj_xwhatsit_ibm_beamal_test_universal_alec/quantum/send_string/send_string.o
 .debug_info    0x0001d1c5     0x1c70 .build/obj_xwhatsit_ibm_beamal_test_universal_alec/quantum/process_keycode/process_dynamic_macro.o
 .debug_info    0x0001ee35     0x1b9d .build/obj_xwhatsit_ibm_beamal_test_universal_alec/quantum/process_keycode/process_grave_esc.o
 .debug_info    0x000209d2     0x17e8 .build/obj_xwhatsit_ibm_beamal_test_universal_alec/quantum/process_keycode/process_haptic.o
 .debug_info    0x000221ba      0xcdc .build/obj_xwhatsit_ibm_beamal_test_universal_alec/quantum/haptic.o
 .debug_info    0x00022e96     0x1c4d .build/obj_xwhatsit_ibm_beamal_test_universal_alec/quantum/process_keycode/process_space_cadet.o
 .debug_info    0x00024ae3       0xe7 .build/obj_xwhatsit_ibm_beamal_test_universal_alec/platforms/avr/printf.o
 .debug_info    0x00024bca      0xf3e .build/obj_xwhatsit_ibm_beamal_test_universal_alec/protocol/host.o
 .debug_info    0x00025b08      0xd43 .build/obj_xwhatsit_ibm_beamal_test_universal_alec/protocol/report.o
 .debug_info    0x0002684b      0x2d7 .build/obj_xwhatsit_ibm_beamal_test_universal_alec/protocol/usb_device_state.o
 .debug_info    0x00026b22      0x177 .build/obj_xwhatsit_ibm_beamal_test_universal_alec/platforms/suspend.o
 .debug_info    0x00026c99       0xa9 .build/obj_xwhatsit_ibm_beamal_test_universal_alec/platforms/avr/platform.o
 .debug_info    0x00026d42      0x61f .build/obj_xwhatsit_ibm_beamal_test_universal_alec/platforms/avr/suspend.o
 .debug_info    0x00027361      0x443 .build/obj_xwhatsit_ibm_beamal_test_universal_alec/platforms/avr/timer.o
 .debug_info    0x000277a4      0x12f .build/obj_xwhatsit_ibm_beamal_test_universal_alec/platforms/avr/bootloaders/caterina.o
 .debug_info    0x000278d3     0x24fa .build/obj_xwhatsit_ibm_beamal_test_universal_alec/lufa.o
 .debug_info    0x00029dcd      0xad5 .build/obj_xwhatsit_ibm_beamal_test_universal_alec/usb_descriptor.o
 .debug_info    0x0002a8a2      0x1c7 .build/obj_xwhatsit_ibm_beamal_test_universal_alec/lib/lufa/LUFA/Drivers/USB/Core/AVR8/Device_AVR8.o
 .debug_info    0x0002aa69     0x1dab .build/obj_xwhatsit_ibm_beamal_test_universal_alec/lib/lufa/LUFA/Drivers/USB/Core/AVR8/EndpointStream_AVR8.o
 .debug_info    0x0002c814      0x764 .build/obj_xwhatsit_ibm_beamal_test_universal_alec/lib/lufa/LUFA/Drivers/USB/Core/AVR8/Endpoint_AVR8.o
 .debug_info    0x0002cf78      0x60c .build/obj_xwhatsit_ibm_beamal_test_universal_alec/lib/lufa/LUFA/Drivers/USB/Core/AVR8/USBController_AVR8.o
 .debug_info    0x0002d584      0xa4a .build/obj_xwhatsit_ibm_beamal_test_universal_alec/lib/lufa/LUFA/Drivers/USB/Core/AVR8/USBInterrupt_AVR8.o
 .debug_info    0x0002dfce      0xc60 .build/obj_xwhatsit_ibm_beamal_test_universal_alec/lib/lufa/LUFA/Drivers/USB/Core/DeviceStandardReq.o
 .debug_info    0x0002ec2e      0x302 .build/obj_xwhatsit_ibm_beamal_test_universal_alec/lib/lufa/LUFA/Drivers/USB/Core/USBTask.o
 .debug_info    0x0002ef30       0x26 /usr/local/Cellar/avr-gcc@8/8.5.0/lib/avr-gcc/8/gcc/avr/8.5.0/avr5/libgcc.a(_udivmodqi4.o)
 .debug_info    0x0002ef56       0x26 /usr/local/Cellar/avr-gcc@8/8.5.0/lib/avr-gcc/8/gcc/avr/8.5.0/avr5/libgcc.a(_udivmodhi4.o)
 .debug_info    0x0002ef7c       0x26 /usr/local/Cellar/avr-gcc@8/8.5.0/lib/avr-gcc/8/gcc/avr/8.5.0/avr5/libgcc.a(_divmodhi4.o)
 .debug_info    0x0002efa2       0x26 /usr/local/Cellar/avr-gcc@8/8.5.0/lib/avr-gcc/8/gcc/avr/8.5.0/avr5/libgcc.a(_exit.o)
 .debug_info    0x0002efc8       0x26 /usr/local/Cellar/avr-gcc@8/8.5.0/lib/avr-gcc/8/gcc/avr/8.5.0/avr5/libgcc.a(_tablejump2.o)
 .debug_info    0x0002efee       0x26 /usr/local/Cellar/avr-gcc@8/8.5.0/lib/avr-gcc/8/gcc/avr/8.5.0/avr5/libgcc.a(_copy_data.o)
 .debug_info    0x0002f014       0x26 /usr/local/Cellar/avr-gcc@8/8.5.0/lib/avr-gcc/8/gcc/avr/8.5.0/avr5/libgcc.a(_clear_bss.o)
 .debug_info    0x0002f03a       0x26 /usr/local/Cellar/avr-gcc@8/8.5.0/lib/avr-gcc/8/gcc/avr/8.5.0/avr5/libgcc.a(_ctors.o)
 .debug_info    0x0002f060       0x26 /usr/local/Cellar/avr-gcc@8/8.5.0/lib/avr-gcc/8/gcc/avr/8.5.0/avr5/libgcc.a(_prologue.o)
 .debug_info    0x0002f086       0x26 /usr/local/Cellar/avr-gcc@8/8.5.0/lib/avr-gcc/8/gcc/avr/8.5.0/avr5/libgcc.a(_epilogue.o)

.debug_abbrev   0x00000000     0x8701
 *(.debug_abbrev)
 .debug_abbrev  0x00000000      0x96a /usr/local/Cellar/avr-gcc@8/8.5.0/lib/avr-gcc/8/gcc/avr/8.5.0/../../../../../../avr/lib/avr5/crtatmega32u4.o
 .debug_abbrev  0x0000096a      0x572 .build/obj_xwhatsit_ibm_beamal_test_universal_alec/keyboards/xwhatsit/matrix.o
 .debug_abbrev  0x00000edc      0x30d .build/obj_xwhatsit_ibm_beamal_test_universal_alec/keyboards/xwhatsit/util_comm.o
 .debug_abbrev  0x000011e9       0xa7 .build/obj_xwhatsit_ibm_beamal_test_universal_alec/keyboards/xwhatsit/xwhatsit.o
 .debug_abbrev  0x00001290      0x1be .build/obj_xwhatsit_ibm_beamal_test_universal_alec/keyboards/xwhatsit/ibm/beamal_test/universal/universal.o
 .debug_abbrev  0x0000144e      0x2e7 .build/obj_xwhatsit_ibm_beamal_test_universal_alec/quantum/keymap_introspection.o
 .debug_abbrev  0x00001735      0x4b3 .build/obj_xwhatsit_ibm_beamal_test_universal_alec/quantum/quantum.o
 .debug_abbrev  0x00001be8       0xea .build/obj_xwhatsit_ibm_beamal_test_universal_alec/quantum/bitwise.o
 .debug_abbrev  0x00001cd2      0x2c9 .build/obj_xwhatsit_ibm_beamal_test_universal_alec/quantum/led.o
 .debug_abbrev  0x00001f9b      0x4f7 .build/obj_xwhatsit_ibm_beamal_test_universal_alec/quantum/action.o
 .debug_abbrev  0x00002492      0x3aa .build/obj_xwhatsit_ibm_beamal_test_universal_alec/quantum/action_layer.o
 .debug_abbrev  0x0000283c      0x34c .build/obj_xwhatsit_ibm_beamal_test_universal_alec/quantum/action_tapping.o
 .debug_abbrev  0x00002b88      0x3dc .build/obj_xwhatsit_ibm_beamal_test_universal_alec/quantum/action_util.o
 .debug_abbrev  0x00002f64      0x15d .build/obj_xwhatsit_ibm_beamal_test_universal_alec/quantum/eeconfig.o
 .debug_abbrev  0x000030c1      0x439 .build/obj_xwhatsit_ibm_beamal_test_universal_alec/quantum/keyboard.o
 .debug_abbrev  0x000034fa      0x30a .build/obj_xwhatsit_ibm_beamal_test_universal_alec/quantum/keymap_common.o
 .debug_abbrev  0x00003804      0x119 .build/obj_xwhatsit_ibm_beamal_test_universal_alec/quantum/keycode_config.o
 .debug_abbrev  0x0000391d       0xbb .build/obj_xwhatsit_ibm_beamal_test_universal_alec/quantum/logging/debug.o
 .debug_abbrev  0x000039d8      0x2a9 .build/obj_xwhatsit_ibm_beamal_test_universal_alec/quantum/bootmagic/bootmagic_lite.o
 .debug_abbrev  0x00003c81      0x1fa .build/obj_xwhatsit_ibm_beamal_test_universal_alec/quantum/bootmagic/magic.o
 .debug_abbrev  0x00003e7b      0x41c .build/obj_xwhatsit_ibm_beamal_test_universal_alec/quantum/matrix_common.o
 .debug_abbrev  0x00004297      0x2f7 .build/obj_xwhatsit_ibm_beamal_test_universal_alec/quantum/debounce/sym_defer_g.o
 .debug_abbrev  0x0000458e       0x85 .build/obj_xwhatsit_ibm_beamal_test_universal_alec/quantum/main.o
 .debug_abbrev  0x00004613      0x221 .build/obj_xwhatsit_ibm_beamal_test_universal_alec/solenoid.o
 .debug_abbrev  0x00004834      0x204 .build/obj_xwhatsit_ibm_beamal_test_universal_alec/quantum/process_keycode/process_unicode.o
 .debug_abbrev  0x00004a38      0x424 .build/obj_xwhatsit_ibm_beamal_test_universal_alec/quantum/process_keycode/process_unicode_common.o
 .debug_abbrev  0x00004e5c      0x1eb .build/obj_xwhatsit_ibm_beamal_test_universal_alec/quantum/process_keycode/process_magic.o
 .debug_abbrev  0x00005047      0x3c2 .build/obj_xwhatsit_ibm_beamal_test_universal_alec/quantum/send_string/send_string.o
 .debug_abbrev  0x00005409      0x2fa .build/obj_xwhatsit_ibm_beamal_test_universal_alec/quantum/process_keycode/process_dynamic_macro.o
 .debug_abbrev  0x00005703      0x239 .build/obj_xwhatsit_ibm_beamal_test_universal_alec/quantum/process_keycode/process_grave_esc.o
 .debug_abbrev  0x0000593c      0x1c0 .build/obj_xwhatsit_ibm_beamal_test_universal_alec/quantum/process_keycode/process_haptic.o
 .debug_abbrev  0x00005afc      0x2f9 .build/obj_xwhatsit_ibm_beamal_test_universal_alec/quantum/haptic.o
 .debug_abbrev  0x00005df5      0x231 .build/obj_xwhatsit_ibm_beamal_test_universal_alec/quantum/process_keycode/process_space_cadet.o
 .debug_abbrev  0x00006026       0x9d .build/obj_xwhatsit_ibm_beamal_test_universal_alec/platforms/avr/printf.o
 .debug_abbrev  0x000060c3      0x329 .build/obj_xwhatsit_ibm_beamal_test_universal_alec/protocol/host.o
 .debug_abbrev  0x000063ec      0x2f4 .build/obj_xwhatsit_ibm_beamal_test_universal_alec/protocol/report.o
 .debug_abbrev  0x000066e0      0x176 .build/obj_xwhatsit_ibm_beamal_test_universal_alec/protocol/usb_device_state.o
 .debug_abbrev  0x00006856       0xf3 .build/obj_xwhatsit_ibm_beamal_test_universal_alec/platforms/suspend.o
 .debug_abbrev  0x00006949       0x7e .build/obj_xwhatsit_ibm_beamal_test_universal_alec/platforms/avr/platform.o
 .debug_abbrev  0x000069c7      0x267 .build/obj_xwhatsit_ibm_beamal_test_universal_alec/platforms/avr/suspend.o
 .debug_abbrev  0x00006c2e      0x1ba .build/obj_xwhatsit_ibm_beamal_test_universal_alec/platforms/avr/timer.o
 .debug_abbrev  0x00006de8       0xb7 .build/obj_xwhatsit_ibm_beamal_test_universal_alec/platforms/avr/bootloaders/caterina.o
 .debug_abbrev  0x00006e9f      0x66b .build/obj_xwhatsit_ibm_beamal_test_universal_alec/lufa.o
 .debug_abbrev  0x0000750a      0x207 .build/obj_xwhatsit_ibm_beamal_test_universal_alec/usb_descriptor.o
 .debug_abbrev  0x00007711       0xcb .build/obj_xwhatsit_ibm_beamal_test_universal_alec/lib/lufa/LUFA/Drivers/USB/Core/AVR8/Device_AVR8.o
 .debug_abbrev  0x000077dc      0x23b .build/obj_xwhatsit_ibm_beamal_test_universal_alec/lib/lufa/LUFA/Drivers/USB/Core/AVR8/EndpointStream_AVR8.o
 .debug_abbrev  0x00007a17      0x29d .build/obj_xwhatsit_ibm_beamal_test_universal_alec/lib/lufa/LUFA/Drivers/USB/Core/AVR8/Endpoint_AVR8.o
 .debug_abbrev  0x00007cb4      0x1e7 .build/obj_xwhatsit_ibm_beamal_test_universal_alec/lib/lufa/LUFA/Drivers/USB/Core/AVR8/USBController_AVR8.o
 .debug_abbrev  0x00007e9b      0x2a5 .build/obj_xwhatsit_ibm_beamal_test_universal_alec/lib/lufa/LUFA/Drivers/USB/Core/AVR8/USBInterrupt_AVR8.o
 .debug_abbrev  0x00008140      0x346 .build/obj_xwhatsit_ibm_beamal_test_universal_alec/lib/lufa/LUFA/Drivers/USB/Core/DeviceStandardReq.o
 .debug_abbrev  0x00008486      0x1b3 .build/obj_xwhatsit_ibm_beamal_test_universal_alec/lib/lufa/LUFA/Drivers/USB/Core/USBTask.o
 .debug_abbrev  0x00008639       0x14 /usr/local/Cellar/avr-gcc@8/8.5.0/lib/avr-gcc/8/gcc/avr/8.5.0/avr5/libgcc.a(_udivmodqi4.o)
 .debug_abbrev  0x0000864d       0x14 /usr/local/Cellar/avr-gcc@8/8.5.0/lib/avr-gcc/8/gcc/avr/8.5.0/avr5/libgcc.a(_udivmodhi4.o)
 .debug_abbrev  0x00008661       0x14 /usr/local/Cellar/avr-gcc@8/8.5.0/lib/avr-gcc/8/gcc/avr/8.5.0/avr5/libgcc.a(_divmodhi4.o)
 .debug_abbrev  0x00008675       0x14 /usr/local/Cellar/avr-gcc@8/8.5.0/lib/avr-gcc/8/gcc/avr/8.5.0/avr5/libgcc.a(_exit.o)
 .debug_abbrev  0x00008689       0x14 /usr/local/Cellar/avr-gcc@8/8.5.0/lib/avr-gcc/8/gcc/avr/8.5.0/avr5/libgcc.a(_tablejump2.o)
 .debug_abbrev  0x0000869d       0x14 /usr/local/Cellar/avr-gcc@8/8.5.0/lib/avr-gcc/8/gcc/avr/8.5.0/avr5/libgcc.a(_copy_data.o)
 .debug_abbrev  0x000086b1       0x14 /usr/local/Cellar/avr-gcc@8/8.5.0/lib/avr-gcc/8/gcc/avr/8.5.0/avr5/libgcc.a(_clear_bss.o)
 .debug_abbrev  0x000086c5       0x14 /usr/local/Cellar/avr-gcc@8/8.5.0/lib/avr-gcc/8/gcc/avr/8.5.0/avr5/libgcc.a(_ctors.o)
 .debug_abbrev  0x000086d9       0x14 /usr/local/Cellar/avr-gcc@8/8.5.0/lib/avr-gcc/8/gcc/avr/8.5.0/avr5/libgcc.a(_prologue.o)
 .debug_abbrev  0x000086ed       0x14 /usr/local/Cellar/avr-gcc@8/8.5.0/lib/avr-gcc/8/gcc/avr/8.5.0/avr5/libgcc.a(_epilogue.o)

.debug_line     0x00000000    0x1be77
 *(.debug_line .debug_line.* .debug_line_end)
 .debug_line    0x00000000       0x1d /usr/local/Cellar/avr-gcc@8/8.5.0/lib/avr-gcc/8/gcc/avr/8.5.0/../../../../../../avr/lib/avr5/crtatmega32u4.o
 .debug_line    0x0000001d     0x257b .build/obj_xwhatsit_ibm_beamal_test_universal_alec/keyboards/xwhatsit/matrix.o
 .debug_line    0x00002598      0xc0a .build/obj_xwhatsit_ibm_beamal_test_universal_alec/keyboards/xwhatsit/util_comm.o
 .debug_line    0x000031a2      0x12c .build/obj_xwhatsit_ibm_beamal_test_universal_alec/keyboards/xwhatsit/xwhatsit.o
 .debug_line    0x000032ce      0x2eb .build/obj_xwhatsit_ibm_beamal_test_universal_alec/keyboards/xwhatsit/ibm/beamal_test/universal/universal.o
 .debug_line    0x000035b9      0x90d .build/obj_xwhatsit_ibm_beamal_test_universal_alec/quantum/keymap_introspection.o
 .debug_line    0x00003ec6     0x1156 .build/obj_xwhatsit_ibm_beamal_test_universal_alec/quantum/quantum.o
 .debug_line    0x0000501c      0x69e .build/obj_xwhatsit_ibm_beamal_test_universal_alec/quantum/bitwise.o
 .debug_line    0x000056ba      0x51c .build/obj_xwhatsit_ibm_beamal_test_universal_alec/quantum/led.o
 .debug_line    0x00005bd6     0x16b1 .build/obj_xwhatsit_ibm_beamal_test_universal_alec/quantum/action.o
 .debug_line    0x00007287      0xaba .build/obj_xwhatsit_ibm_beamal_test_universal_alec/quantum/action_layer.o
 .debug_line    0x00007d41      0xd3b .build/obj_xwhatsit_ibm_beamal_test_universal_alec/quantum/action_tapping.o
 .debug_line    0x00008a7c      0xd46 .build/obj_xwhatsit_ibm_beamal_test_universal_alec/quantum/action_util.o
 .debug_line    0x000097c2      0x57a .build/obj_xwhatsit_ibm_beamal_test_universal_alec/quantum/eeconfig.o
 .debug_line    0x00009d3c      0x940 .build/obj_xwhatsit_ibm_beamal_test_universal_alec/quantum/keyboard.o
 .debug_line    0x0000a67c      0x6c1 .build/obj_xwhatsit_ibm_beamal_test_universal_alec/quantum/keymap_common.o
 .debug_line    0x0000ad3d      0x5be .build/obj_xwhatsit_ibm_beamal_test_universal_alec/quantum/keycode_config.o
 .debug_line    0x0000b2fb       0x98 .build/obj_xwhatsit_ibm_beamal_test_universal_alec/quantum/logging/debug.o
 .debug_line    0x0000b393      0x43e .build/obj_xwhatsit_ibm_beamal_test_universal_alec/quantum/bootmagic/bootmagic_lite.o
 .debug_line    0x0000b7d1      0x2a8 .build/obj_xwhatsit_ibm_beamal_test_universal_alec/quantum/bootmagic/magic.o
 .debug_line    0x0000ba79      0x807 .build/obj_xwhatsit_ibm_beamal_test_universal_alec/quantum/matrix_common.o
 .debug_line    0x0000c280      0x472 .build/obj_xwhatsit_ibm_beamal_test_universal_alec/quantum/debounce/sym_defer_g.o
 .debug_line    0x0000c6f2       0xf3 .build/obj_xwhatsit_ibm_beamal_test_universal_alec/quantum/main.o
 .debug_line    0x0000c7e5      0x55c .build/obj_xwhatsit_ibm_beamal_test_universal_alec/solenoid.o
 .debug_line    0x0000cd41      0x33d .build/obj_xwhatsit_ibm_beamal_test_universal_alec/quantum/process_keycode/process_unicode.o
 .debug_line    0x0000d07e      0xd0b .build/obj_xwhatsit_ibm_beamal_test_universal_alec/quantum/process_keycode/process_unicode_common.o
 .debug_line    0x0000dd89      0x643 .build/obj_xwhatsit_ibm_beamal_test_universal_alec/quantum/process_keycode/process_magic.o
 .debug_line    0x0000e3cc      0xdbd .build/obj_xwhatsit_ibm_beamal_test_universal_alec/quantum/send_string/send_string.o
 .debug_line    0x0000f189      0x8d6 .build/obj_xwhatsit_ibm_beamal_test_universal_alec/quantum/process_keycode/process_dynamic_macro.o
 .debug_line    0x0000fa5f      0x3ea .build/obj_xwhatsit_ibm_beamal_test_universal_alec/quantum/process_keycode/process_grave_esc.o
 .debug_line    0x0000fe49      0x375 .build/obj_xwhatsit_ibm_beamal_test_universal_alec/quantum/process_keycode/process_haptic.o
 .debug_line    0x000101be      0xc13 .build/obj_xwhatsit_ibm_beamal_test_universal_alec/quantum/haptic.o
 .debug_line    0x00010dd1      0x58b .build/obj_xwhatsit_ibm_beamal_test_universal_alec/quantum/process_keycode/process_space_cadet.o
 .debug_line    0x0001135c       0xbf .build/obj_xwhatsit_ibm_beamal_test_universal_alec/platforms/avr/printf.o
 .debug_line    0x0001141b      0x7b4 .build/obj_xwhatsit_ibm_beamal_test_universal_alec/protocol/host.o
 .debug_line    0x00011bcf      0x7fa .build/obj_xwhatsit_ibm_beamal_test_universal_alec/protocol/report.o
 .debug_line    0x000123c9      0x214 .build/obj_xwhatsit_ibm_beamal_test_universal_alec/protocol/usb_device_state.o
 .debug_line    0x000125dd      0x19c .build/obj_xwhatsit_ibm_beamal_test_universal_alec/platforms/suspend.o
 .debug_line    0x00012779       0xc0 .build/obj_xwhatsit_ibm_beamal_test_universal_alec/platforms/avr/platform.o
 .debug_line    0x00012839      0x33d .build/obj_xwhatsit_ibm_beamal_test_universal_alec/platforms/avr/suspend.o
 .debug_line    0x00012b76      0x4c7 .build/obj_xwhatsit_ibm_beamal_test_universal_alec/platforms/avr/timer.o
 .debug_line    0x0001303d      0x18c .build/obj_xwhatsit_ibm_beamal_test_universal_alec/platforms/avr/bootloaders/caterina.o
 .debug_line    0x000131c9     0x1e53 .build/obj_xwhatsit_ibm_beamal_test_universal_alec/lufa.o
 .debug_line    0x0001501c      0x39e .build/obj_xwhatsit_ibm_beamal_test_universal_alec/usb_descriptor.o
 .debug_line    0x000153ba      0x25a .build/obj_xwhatsit_ibm_beamal_test_universal_alec/lib/lufa/LUFA/Drivers/USB/Core/AVR8/Device_AVR8.o
 .debug_line    0x00015614     0x33bd .build/obj_xwhatsit_ibm_beamal_test_universal_alec/lib/lufa/LUFA/Drivers/USB/Core/AVR8/EndpointStream_AVR8.o
 .debug_line    0x000189d1      0x9f8 .build/obj_xwhatsit_ibm_beamal_test_universal_alec/lib/lufa/LUFA/Drivers/USB/Core/AVR8/Endpoint_AVR8.o
 .debug_line    0x000193c9      0x6a6 .build/obj_xwhatsit_ibm_beamal_test_universal_alec/lib/lufa/LUFA/Drivers/USB/Core/AVR8/USBController_AVR8.o
 .debug_line    0x00019a6f      0xd57 .build/obj_xwhatsit_ibm_beamal_test_universal_alec/lib/lufa/LUFA/Drivers/USB/Core/AVR8/USBInterrupt_AVR8.o
 .debug_line    0x0001a7c6      0xd99 .build/obj_xwhatsit_ibm_beamal_test_universal_alec/lib/lufa/LUFA/Drivers/USB/Core/DeviceStandardReq.o
 .debug_line    0x0001b55f      0x26c .build/obj_xwhatsit_ibm_beamal_test_universal_alec/lib/lufa/LUFA/Drivers/USB/Core/USBTask.o
 .debug_line    0x0001b7cb       0x9d /usr/local/Cellar/avr-gcc@8/8.5.0/lib/avr-gcc/8/gcc/avr/8.5.0/avr5/libgcc.a(_udivmodqi4.o)
 .debug_line    0x0001b868       0xcd /usr/local/Cellar/avr-gcc@8/8.5.0/lib/avr-gcc/8/gcc/avr/8.5.0/avr5/libgcc.a(_udivmodhi4.o)
 .debug_line    0x0001b935       0xc7 /usr/local/Cellar/avr-gcc@8/8.5.0/lib/avr-gcc/8/gcc/avr/8.5.0/avr5/libgcc.a(_divmodhi4.o)
 .debug_line    0x0001b9fc       0x61 /usr/local/Cellar/avr-gcc@8/8.5.0/lib/avr-gcc/8/gcc/avr/8.5.0/avr5/libgcc.a(_exit.o)
 .debug_line    0x0001ba5d       0x79 /usr/local/Cellar/avr-gcc@8/8.5.0/lib/avr-gcc/8/gcc/avr/8.5.0/avr5/libgcc.a(_tablejump2.o)
 .debug_line    0x0001bad6       0x97 /usr/local/Cellar/avr-gcc@8/8.5.0/lib/avr-gcc/8/gcc/avr/8.5.0/avr5/libgcc.a(_copy_data.o)
 .debug_line    0x0001bb6d       0x85 /usr/local/Cellar/avr-gcc@8/8.5.0/lib/avr-gcc/8/gcc/avr/8.5.0/avr5/libgcc.a(_clear_bss.o)
 .debug_line    0x0001bbf2       0x91 /usr/local/Cellar/avr-gcc@8/8.5.0/lib/avr-gcc/8/gcc/avr/8.5.0/avr5/libgcc.a(_ctors.o)
 .debug_line    0x0001bc83       0xfd /usr/local/Cellar/avr-gcc@8/8.5.0/lib/avr-gcc/8/gcc/avr/8.5.0/avr5/libgcc.a(_prologue.o)
 .debug_line    0x0001bd80       0xf7 /usr/local/Cellar/avr-gcc@8/8.5.0/lib/avr-gcc/8/gcc/avr/8.5.0/avr5/libgcc.a(_epilogue.o)

.debug_frame    0x00000000     0x2f2c
 *(.debug_frame)
 .debug_frame   0x00000000      0x470 .build/obj_xwhatsit_ibm_beamal_test_universal_alec/keyboards/xwhatsit/matrix.o
 .debug_frame   0x00000470       0x3c .build/obj_xwhatsit_ibm_beamal_test_universal_alec/keyboards/xwhatsit/util_comm.o
 .debug_frame   0x000004ac       0x34 .build/obj_xwhatsit_ibm_beamal_test_universal_alec/keyboards/xwhatsit/xwhatsit.o
 .debug_frame   0x000004e0       0x24 .build/obj_xwhatsit_ibm_beamal_test_universal_alec/keyboards/xwhatsit/ibm/beamal_test/universal/universal.o
 .debug_frame   0x00000504       0xac .build/obj_xwhatsit_ibm_beamal_test_universal_alec/quantum/keymap_introspection.o
 .debug_frame   0x000005b0      0x2f8 .build/obj_xwhatsit_ibm_beamal_test_universal_alec/quantum/quantum.o
 .debug_frame   0x000008a8       0xec .build/obj_xwhatsit_ibm_beamal_test_universal_alec/quantum/bitwise.o
 .debug_frame   0x00000994       0xe8 .build/obj_xwhatsit_ibm_beamal_test_universal_alec/quantum/led.o
 .debug_frame   0x00000a7c      0x20c .build/obj_xwhatsit_ibm_beamal_test_universal_alec/quantum/action.o
 .debug_frame   0x00000c88      0x218 .build/obj_xwhatsit_ibm_beamal_test_universal_alec/quantum/action_layer.o
 .debug_frame   0x00000ea0       0xa8 .build/obj_xwhatsit_ibm_beamal_test_universal_alec/quantum/action_tapping.o
 .debug_frame   0x00000f48      0x2ec .build/obj_xwhatsit_ibm_beamal_test_universal_alec/quantum/action_util.o
 .debug_frame   0x00001234      0x1a4 .build/obj_xwhatsit_ibm_beamal_test_universal_alec/quantum/eeconfig.o
 .debug_frame   0x000013d8      0x1c4 .build/obj_xwhatsit_ibm_beamal_test_universal_alec/quantum/keyboard.o
 .debug_frame   0x0000159c       0x50 .build/obj_xwhatsit_ibm_beamal_test_universal_alec/quantum/keymap_common.o
 .debug_frame   0x000015ec       0x34 .build/obj_xwhatsit_ibm_beamal_test_universal_alec/quantum/keycode_config.o
 .debug_frame   0x00001620       0x44 .build/obj_xwhatsit_ibm_beamal_test_universal_alec/quantum/bootmagic/bootmagic_lite.o
 .debug_frame   0x00001664       0x34 .build/obj_xwhatsit_ibm_beamal_test_universal_alec/quantum/bootmagic/magic.o
 .debug_frame   0x00001698      0x15c .build/obj_xwhatsit_ibm_beamal_test_universal_alec/quantum/matrix_common.o
 .debug_frame   0x000017f4       0x68 .build/obj_xwhatsit_ibm_beamal_test_universal_alec/quantum/debounce/sym_defer_g.o
 .debug_frame   0x0000185c       0x44 .build/obj_xwhatsit_ibm_beamal_test_universal_alec/quantum/main.o
 .debug_frame   0x000018a0       0xc0 .build/obj_xwhatsit_ibm_beamal_test_universal_alec/solenoid.o
 .debug_frame   0x00001960       0x30 .build/obj_xwhatsit_ibm_beamal_test_universal_alec/quantum/process_keycode/process_unicode.o
 .debug_frame   0x00001990      0x174 .build/obj_xwhatsit_ibm_beamal_test_universal_alec/quantum/process_keycode/process_unicode_common.o
 .debug_frame   0x00001b04       0x30 .build/obj_xwhatsit_ibm_beamal_test_universal_alec/quantum/process_keycode/process_magic.o
 .debug_frame   0x00001b34      0x12c .build/obj_xwhatsit_ibm_beamal_test_universal_alec/quantum/send_string/send_string.o
 .debug_frame   0x00001c60      0x1b4 .build/obj_xwhatsit_ibm_beamal_test_universal_alec/quantum/process_keycode/process_dynamic_macro.o
 .debug_frame   0x00001e14       0x30 .build/obj_xwhatsit_ibm_beamal_test_universal_alec/quantum/process_keycode/process_grave_esc.o
 .debug_frame   0x00001e44       0x48 .build/obj_xwhatsit_ibm_beamal_test_universal_alec/quantum/process_keycode/process_haptic.o
 .debug_frame   0x00001e8c      0x380 .build/obj_xwhatsit_ibm_beamal_test_universal_alec/quantum/haptic.o
 .debug_frame   0x0000220c       0x50 .build/obj_xwhatsit_ibm_beamal_test_universal_alec/quantum/process_keycode/process_space_cadet.o
 .debug_frame   0x0000225c       0x24 .build/obj_xwhatsit_ibm_beamal_test_universal_alec/platforms/avr/printf.o
 .debug_frame   0x00002280      0x13c .build/obj_xwhatsit_ibm_beamal_test_universal_alec/protocol/host.o
 .debug_frame   0x000023bc       0xe0 .build/obj_xwhatsit_ibm_beamal_test_universal_alec/protocol/report.o
 .debug_frame   0x0000249c       0x8c .build/obj_xwhatsit_ibm_beamal_test_universal_alec/protocol/usb_device_state.o
 .debug_frame   0x00002528       0x8c .build/obj_xwhatsit_ibm_beamal_test_universal_alec/platforms/suspend.o
 .debug_frame   0x000025b4       0x24 .build/obj_xwhatsit_ibm_beamal_test_universal_alec/platforms/avr/platform.o
 .debug_frame   0x000025d8       0x54 .build/obj_xwhatsit_ibm_beamal_test_universal_alec/platforms/avr/suspend.o
 .debug_frame   0x0000262c       0xa8 .build/obj_xwhatsit_ibm_beamal_test_universal_alec/platforms/avr/timer.o
 .debug_frame   0x000026d4       0x34 .build/obj_xwhatsit_ibm_beamal_test_universal_alec/platforms/avr/bootloaders/caterina.o
 .debug_frame   0x00002708      0x1c0 .build/obj_xwhatsit_ibm_beamal_test_universal_alec/lufa.o
 .debug_frame   0x000028c8       0x24 .build/obj_xwhatsit_ibm_beamal_test_universal_alec/usb_descriptor.o
 .debug_frame   0x000028ec       0x24 .build/obj_xwhatsit_ibm_beamal_test_universal_alec/lib/lufa/LUFA/Drivers/USB/Core/AVR8/Device_AVR8.o
 .debug_frame   0x00002910      0x404 .build/obj_xwhatsit_ibm_beamal_test_universal_alec/lib/lufa/LUFA/Drivers/USB/Core/AVR8/EndpointStream_AVR8.o
 .debug_frame   0x00002d14       0x78 .build/obj_xwhatsit_ibm_beamal_test_universal_alec/lib/lufa/LUFA/Drivers/USB/Core/AVR8/Endpoint_AVR8.o
 .debug_frame   0x00002d8c       0x58 .build/obj_xwhatsit_ibm_beamal_test_universal_alec/lib/lufa/LUFA/Drivers/USB/Core/AVR8/USBController_AVR8.o
 .debug_frame   0x00002de4       0xec .build/obj_xwhatsit_ibm_beamal_test_universal_alec/lib/lufa/LUFA/Drivers/USB/Core/AVR8/USBInterrupt_AVR8.o
 .debug_frame   0x00002ed0       0x30 .build/obj_xwhatsit_ibm_beamal_test_universal_alec/lib/lufa/LUFA/Drivers/USB/Core/DeviceStandardReq.o
 .debug_frame   0x00002f00       0x2c .build/obj_xwhatsit_ibm_beamal_test_universal_alec/lib/lufa/LUFA/Drivers/USB/Core/USBTask.o

.debug_str      0x00000000     0x7c11
 *(.debug_str)
 .debug_str     0x00000000      0x371 /usr/local/Cellar/avr-gcc@8/8.5.0/lib/avr-gcc/8/gcc/avr/8.5.0/../../../../../../avr/lib/avr5/crtatmega32u4.o
 .debug_str     0x00000371     0x122f .build/obj_xwhatsit_ibm_beamal_test_universal_alec/keyboards/xwhatsit/matrix.o
                               0x1318 (size before relaxing)
 .debug_str     0x000015a0      0x283 .build/obj_xwhatsit_ibm_beamal_test_universal_alec/keyboards/xwhatsit/util_comm.o
                                0xacd (size before relaxing)
 .debug_str     0x00001823       0x4a .build/obj_xwhatsit_ibm_beamal_test_universal_alec/keyboards/xwhatsit/xwhatsit.o
                                0x19f (size before relaxing)
 .debug_str     0x0000186d       0x4f .build/obj_xwhatsit_ibm_beamal_test_universal_alec/keyboards/xwhatsit/ibm/beamal_test/universal/universal.o
                                0x780 (size before relaxing)
 .debug_str     0x000018bc     0x1980 .build/obj_xwhatsit_ibm_beamal_test_universal_alec/quantum/keymap_introspection.o
                               0x27d7 (size before relaxing)
 .debug_str     0x0000323c      0x460 .build/obj_xwhatsit_ibm_beamal_test_universal_alec/quantum/quantum.o
                               0x29f1 (size before relaxing)
 .debug_str     0x0000369c       0x5a .build/obj_xwhatsit_ibm_beamal_test_universal_alec/quantum/bitwise.o
                                0x22b (size before relaxing)
 .debug_str     0x000036f6       0xe3 .build/obj_xwhatsit_ibm_beamal_test_universal_alec/quantum/led.o
                                0x4e0 (size before relaxing)
 .debug_str     0x000037d9      0xa23 .build/obj_xwhatsit_ibm_beamal_test_universal_alec/quantum/action.o
                               0x1b7c (size before relaxing)
 .debug_str     0x000041fc      0x11a .build/obj_xwhatsit_ibm_beamal_test_universal_alec/quantum/action_layer.o
                                0x9d1 (size before relaxing)
 .debug_str     0x00004316       0xde .build/obj_xwhatsit_ibm_beamal_test_universal_alec/quantum/action_tapping.o
                                0xcb3 (size before relaxing)
 .debug_str     0x000043f4      0x225 .build/obj_xwhatsit_ibm_beamal_test_universal_alec/quantum/action_util.o
                                0x97e (size before relaxing)
 .debug_str     0x00004619      0x255 .build/obj_xwhatsit_ibm_beamal_test_universal_alec/quantum/eeconfig.o
                                0x4cc (size before relaxing)
 .debug_str     0x0000486e      0x370 .build/obj_xwhatsit_ibm_beamal_test_universal_alec/quantum/keyboard.o
                                0xb79 (size before relaxing)
 .debug_str     0x00004bde       0x52 .build/obj_xwhatsit_ibm_beamal_test_universal_alec/quantum/keymap_common.o
                               0x2bd2 (size before relaxing)
 .debug_str     0x00004c30       0x6a .build/obj_xwhatsit_ibm_beamal_test_universal_alec/quantum/keycode_config.o
                                0x9f2 (size before relaxing)
 .debug_str     0x00004c9a       0x18 .build/obj_xwhatsit_ibm_beamal_test_universal_alec/quantum/logging/debug.o
                                0x224 (size before relaxing)
 .debug_str     0x00004cb2       0x58 .build/obj_xwhatsit_ibm_beamal_test_universal_alec/quantum/bootmagic/bootmagic_lite.o
                                0x7fa (size before relaxing)
 .debug_str     0x00004d0a       0x1a .build/obj_xwhatsit_ibm_beamal_test_universal_alec/quantum/bootmagic/magic.o
                                0x6e7 (size before relaxing)
 .debug_str     0x00004d24       0xee .build/obj_xwhatsit_ibm_beamal_test_universal_alec/quantum/matrix_common.o
                                0x924 (size before relaxing)
 .debug_str     0x00004e12       0xb6 .build/obj_xwhatsit_ibm_beamal_test_universal_alec/quantum/debounce/sym_defer_g.o
                                0x81f (size before relaxing)
 .debug_str     0x00004ec8       0x98 .build/obj_xwhatsit_ibm_beamal_test_universal_alec/quantum/main.o
                                0x28d (size before relaxing)
 .debug_str     0x00004f60      0x1d1 .build/obj_xwhatsit_ibm_beamal_test_universal_alec/solenoid.o
                                0x44b (size before relaxing)
 .debug_str     0x00005131       0x70 .build/obj_xwhatsit_ibm_beamal_test_universal_alec/quantum/process_keycode/process_unicode.o
                               0x1e44 (size before relaxing)
 .debug_str     0x000051a1      0x1d7 .build/obj_xwhatsit_ibm_beamal_test_universal_alec/quantum/process_keycode/process_unicode_common.o
                               0x27d8 (size before relaxing)
 .debug_str     0x00005378       0x28 .build/obj_xwhatsit_ibm_beamal_test_universal_alec/quantum/process_keycode/process_magic.o
                               0x1e60 (size before relaxing)
 .debug_str     0x000053a0       0xd0 .build/obj_xwhatsit_ibm_beamal_test_universal_alec/quantum/send_string/send_string.o
                                0xf5b (size before relaxing)
 .debug_str     0x00005470      0x175 .build/obj_xwhatsit_ibm_beamal_test_universal_alec/quantum/process_keycode/process_dynamic_macro.o
                               0x1fc7 (size before relaxing)
 .debug_str     0x000055e5       0x42 .build/obj_xwhatsit_ibm_beamal_test_universal_alec/quantum/process_keycode/process_grave_esc.o
                               0x251f (size before relaxing)
 .debug_str     0x00005627      0x160 .build/obj_xwhatsit_ibm_beamal_test_universal_alec/quantum/process_keycode/process_haptic.o
                               0x233d (size before relaxing)
 .debug_str     0x00005787      0x180 .build/obj_xwhatsit_ibm_beamal_test_universal_alec/quantum/haptic.o
                                0x67b (size before relaxing)
 .debug_str     0x00005907       0x6d .build/obj_xwhatsit_ibm_beamal_test_universal_alec/quantum/process_keycode/process_space_cadet.o
                               0x2556 (size before relaxing)
 .debug_str     0x00005974       0x2c .build/obj_xwhatsit_ibm_beamal_test_universal_alec/platforms/avr/printf.o
                                0x20a (size before relaxing)
 .debug_str     0x000059a0      0x236 .build/obj_xwhatsit_ibm_beamal_test_universal_alec/protocol/host.o
                                0xa89 (size before relaxing)
 .debug_str     0x00005bd6       0x61 .build/obj_xwhatsit_ibm_beamal_test_universal_alec/protocol/report.o
                                0xc14 (size before relaxing)
 .debug_str     0x00005c37      0x119 .build/obj_xwhatsit_ibm_beamal_test_universal_alec/protocol/usb_device_state.o
                                0x393 (size before relaxing)
 .debug_str     0x00005d50       0x80 .build/obj_xwhatsit_ibm_beamal_test_universal_alec/platforms/suspend.o
                                0x288 (size before relaxing)
 .debug_str     0x00005dd0       0x26 .build/obj_xwhatsit_ibm_beamal_test_universal_alec/platforms/avr/platform.o
                                0x1ef (size before relaxing)
 .debug_str     0x00005df6      0x119 .build/obj_xwhatsit_ibm_beamal_test_universal_alec/platforms/avr/suspend.o
                                0x581 (size before relaxing)
 .debug_str     0x00005f0f       0x61 .build/obj_xwhatsit_ibm_beamal_test_universal_alec/platforms/avr/timer.o
                                0x27f (size before relaxing)
 .debug_str     0x00005f70       0x43 .build/obj_xwhatsit_ibm_beamal_test_universal_alec/platforms/avr/bootloaders/caterina.o
                                0x226 (size before relaxing)
 .debug_str     0x00005fb3      0x6cb .build/obj_xwhatsit_ibm_beamal_test_universal_alec/lufa.o
                               0x12e5 (size before relaxing)
 .debug_str     0x0000667e      0x74e .build/obj_xwhatsit_ibm_beamal_test_universal_alec/usb_descriptor.o
                                0xc37 (size before relaxing)
 .debug_str     0x00006dcc       0x5e .build/obj_xwhatsit_ibm_beamal_test_universal_alec/lib/lufa/LUFA/Drivers/USB/Core/AVR8/Device_AVR8.o
                                0x324 (size before relaxing)
 .debug_str     0x00006e2a      0x48b .build/obj_xwhatsit_ibm_beamal_test_universal_alec/lib/lufa/LUFA/Drivers/USB/Core/AVR8/EndpointStream_AVR8.o
                                0x918 (size before relaxing)
 .debug_str     0x000072b5      0x20d .build/obj_xwhatsit_ibm_beamal_test_universal_alec/lib/lufa/LUFA/Drivers/USB/Core/AVR8/Endpoint_AVR8.o
                                0x6d8 (size before relaxing)
 .debug_str     0x000074c2      0x181 .build/obj_xwhatsit_ibm_beamal_test_universal_alec/lib/lufa/LUFA/Drivers/USB/Core/AVR8/USBController_AVR8.o
                                0x5fc (size before relaxing)
 .debug_str     0x00007643      0x10c .build/obj_xwhatsit_ibm_beamal_test_universal_alec/lib/lufa/LUFA/Drivers/USB/Core/AVR8/USBInterrupt_AVR8.o
                                0x6cc (size before relaxing)
 .debug_str     0x0000774f      0x3fa .build/obj_xwhatsit_ibm_beamal_test_universal_alec/lib/lufa/LUFA/Drivers/USB/Core/DeviceStandardReq.o
                                0xa09 (size before relaxing)
 .debug_str     0x00007b49       0x45 .build/obj_xwhatsit_ibm_beamal_test_universal_alec/lib/lufa/LUFA/Drivers/USB/Core/USBTask.o
                                0x42b (size before relaxing)
 .debug_str     0x00007b8e       0x83 /usr/local/Cellar/avr-gcc@8/8.5.0/lib/avr-gcc/8/gcc/avr/8.5.0/avr5/libgcc.a(_udivmodqi4.o)
 .debug_str     0x00007c11       0x83 /usr/local/Cellar/avr-gcc@8/8.5.0/lib/avr-gcc/8/gcc/avr/8.5.0/avr5/libgcc.a(_udivmodhi4.o)
 .debug_str     0x00007c11       0x83 /usr/local/Cellar/avr-gcc@8/8.5.0/lib/avr-gcc/8/gcc/avr/8.5.0/avr5/libgcc.a(_divmodhi4.o)
 .debug_str     0x00007c11       0x83 /usr/local/Cellar/avr-gcc@8/8.5.0/lib/avr-gcc/8/gcc/avr/8.5.0/avr5/libgcc.a(_exit.o)
 .debug_str     0x00007c11       0x83 /usr/local/Cellar/avr-gcc@8/8.5.0/lib/avr-gcc/8/gcc/avr/8.5.0/avr5/libgcc.a(_tablejump2.o)
 .debug_str     0x00007c11       0x83 /usr/local/Cellar/avr-gcc@8/8.5.0/lib/avr-gcc/8/gcc/avr/8.5.0/avr5/libgcc.a(_copy_data.o)
 .debug_str     0x00007c11       0x83 /usr/local/Cellar/avr-gcc@8/8.5.0/lib/avr-gcc/8/gcc/avr/8.5.0/avr5/libgcc.a(_clear_bss.o)
 .debug_str     0x00007c11       0x83 /usr/local/Cellar/avr-gcc@8/8.5.0/lib/avr-gcc/8/gcc/avr/8.5.0/avr5/libgcc.a(_ctors.o)
 .debug_str     0x00007c11       0x83 /usr/local/Cellar/avr-gcc@8/8.5.0/lib/avr-gcc/8/gcc/avr/8.5.0/avr5/libgcc.a(_prologue.o)
 .debug_str     0x00007c11       0x83 /usr/local/Cellar/avr-gcc@8/8.5.0/lib/avr-gcc/8/gcc/avr/8.5.0/avr5/libgcc.a(_epilogue.o)

.debug_loc      0x00000000     0xe83e
 *(.debug_loc)
 .debug_loc     0x00000000     0x2004 .build/obj_xwhatsit_ibm_beamal_test_universal_alec/keyboards/xwhatsit/matrix.o
 .debug_loc     0x00002004      0x484 .build/obj_xwhatsit_ibm_beamal_test_universal_alec/keyboards/xwhatsit/util_comm.o
 .debug_loc     0x00002488       0x6f .build/obj_xwhatsit_ibm_beamal_test_universal_alec/keyboards/xwhatsit/xwhatsit.o
 .debug_loc     0x000024f7      0x23d .build/obj_xwhatsit_ibm_beamal_test_universal_alec/quantum/keymap_introspection.o
 .debug_loc     0x00002734      0xda3 .build/obj_xwhatsit_ibm_beamal_test_universal_alec/quantum/quantum.o
 .debug_loc     0x000034d7      0x532 .build/obj_xwhatsit_ibm_beamal_test_universal_alec/quantum/bitwise.o
 .debug_loc     0x00003a09      0x179 .build/obj_xwhatsit_ibm_beamal_test_universal_alec/quantum/led.o
 .debug_loc     0x00003b82      0x982 .build/obj_xwhatsit_ibm_beamal_test_universal_alec/quantum/action.o
 .debug_loc     0x00004504      0x81b .build/obj_xwhatsit_ibm_beamal_test_universal_alec/quantum/action_layer.o
 .debug_loc     0x00004d1f      0x5a7 .build/obj_xwhatsit_ibm_beamal_test_universal_alec/quantum/action_tapping.o
 .debug_loc     0x000052c6      0x422 .build/obj_xwhatsit_ibm_beamal_test_universal_alec/quantum/action_util.o
 .debug_loc     0x000056e8      0x203 .build/obj_xwhatsit_ibm_beamal_test_universal_alec/quantum/eeconfig.o
 .debug_loc     0x000058eb      0x17a .build/obj_xwhatsit_ibm_beamal_test_universal_alec/quantum/keyboard.o
 .debug_loc     0x00005a65      0x71d .build/obj_xwhatsit_ibm_beamal_test_universal_alec/quantum/keymap_common.o
 .debug_loc     0x00006182      0x203 .build/obj_xwhatsit_ibm_beamal_test_universal_alec/quantum/keycode_config.o
 .debug_loc     0x00006385       0x4e .build/obj_xwhatsit_ibm_beamal_test_universal_alec/quantum/bootmagic/bootmagic_lite.o
 .debug_loc     0x000063d3       0x1a .build/obj_xwhatsit_ibm_beamal_test_universal_alec/quantum/bootmagic/magic.o
 .debug_loc     0x000063ed      0x247 .build/obj_xwhatsit_ibm_beamal_test_universal_alec/quantum/matrix_common.o
 .debug_loc     0x00006634      0x1d8 .build/obj_xwhatsit_ibm_beamal_test_universal_alec/quantum/debounce/sym_defer_g.o
 .debug_loc     0x0000680c      0x16a .build/obj_xwhatsit_ibm_beamal_test_universal_alec/solenoid.o
 .debug_loc     0x00006976       0x95 .build/obj_xwhatsit_ibm_beamal_test_universal_alec/quantum/process_keycode/process_unicode.o
 .debug_loc     0x00006a0b      0x5b6 .build/obj_xwhatsit_ibm_beamal_test_universal_alec/quantum/process_keycode/process_unicode_common.o
 .debug_loc     0x00006fc1       0xfd .build/obj_xwhatsit_ibm_beamal_test_universal_alec/quantum/process_keycode/process_magic.o
 .debug_loc     0x000070be      0xdd7 .build/obj_xwhatsit_ibm_beamal_test_universal_alec/quantum/send_string/send_string.o
 .debug_loc     0x00007e95      0x765 .build/obj_xwhatsit_ibm_beamal_test_universal_alec/quantum/process_keycode/process_dynamic_macro.o
 .debug_loc     0x000085fa      0x143 .build/obj_xwhatsit_ibm_beamal_test_universal_alec/quantum/process_keycode/process_grave_esc.o
 .debug_loc     0x0000873d      0x313 .build/obj_xwhatsit_ibm_beamal_test_universal_alec/quantum/process_keycode/process_haptic.o
 .debug_loc     0x00008a50      0x90f .build/obj_xwhatsit_ibm_beamal_test_universal_alec/quantum/haptic.o
 .debug_loc     0x0000935f      0x469 .build/obj_xwhatsit_ibm_beamal_test_universal_alec/quantum/process_keycode/process_space_cadet.o
 .debug_loc     0x000097c8      0x23b .build/obj_xwhatsit_ibm_beamal_test_universal_alec/protocol/host.o
 .debug_loc     0x00009a03      0x63a .build/obj_xwhatsit_ibm_beamal_test_universal_alec/protocol/report.o
 .debug_loc     0x0000a03d      0x11c .build/obj_xwhatsit_ibm_beamal_test_universal_alec/protocol/usb_device_state.o
 .debug_loc     0x0000a159       0x52 .build/obj_xwhatsit_ibm_beamal_test_universal_alec/platforms/suspend.o
 .debug_loc     0x0000a1ab       0x52 .build/obj_xwhatsit_ibm_beamal_test_universal_alec/platforms/avr/suspend.o
 .debug_loc     0x0000a1fd      0x2c0 .build/obj_xwhatsit_ibm_beamal_test_universal_alec/platforms/avr/timer.o
 .debug_loc     0x0000a4bd      0xb14 .build/obj_xwhatsit_ibm_beamal_test_universal_alec/lufa.o
 .debug_loc     0x0000afd1      0x31d .build/obj_xwhatsit_ibm_beamal_test_universal_alec/usb_descriptor.o
 .debug_loc     0x0000b2ee     0x272e .build/obj_xwhatsit_ibm_beamal_test_universal_alec/lib/lufa/LUFA/Drivers/USB/Core/AVR8/EndpointStream_AVR8.o
 .debug_loc     0x0000da1c      0x4a0 .build/obj_xwhatsit_ibm_beamal_test_universal_alec/lib/lufa/LUFA/Drivers/USB/Core/AVR8/Endpoint_AVR8.o
 .debug_loc     0x0000debc       0xf9 .build/obj_xwhatsit_ibm_beamal_test_universal_alec/lib/lufa/LUFA/Drivers/USB/Core/AVR8/USBController_AVR8.o
 .debug_loc     0x0000dfb5      0x492 .build/obj_xwhatsit_ibm_beamal_test_universal_alec/lib/lufa/LUFA/Drivers/USB/Core/AVR8/USBInterrupt_AVR8.o
 .debug_loc     0x0000e447      0x395 .build/obj_xwhatsit_ibm_beamal_test_universal_alec/lib/lufa/LUFA/Drivers/USB/Core/DeviceStandardReq.o
 .debug_loc     0x0000e7dc       0x62 .build/obj_xwhatsit_ibm_beamal_test_universal_alec/lib/lufa/LUFA/Drivers/USB/Core/USBTask.o

.debug_macinfo
 *(.debug_macinfo)

.debug_weaknames
 *(.debug_weaknames)

.debug_funcnames
 *(.debug_funcnames)

.debug_typenames
 *(.debug_typenames)

.debug_varnames
 *(.debug_varnames)

.debug_pubtypes
 *(.debug_pubtypes)

.debug_ranges   0x00000000     0x1bb0
 *(.debug_ranges)
 .debug_ranges  0x00000000      0x280 .build/obj_xwhatsit_ibm_beamal_test_universal_alec/keyboards/xwhatsit/matrix.o
 .debug_ranges  0x00000280       0x58 .build/obj_xwhatsit_ibm_beamal_test_universal_alec/keyboards/xwhatsit/util_comm.o
 .debug_ranges  0x000002d8       0x18 .build/obj_xwhatsit_ibm_beamal_test_universal_alec/keyboards/xwhatsit/xwhatsit.o
 .debug_ranges  0x000002f0       0x10 .build/obj_xwhatsit_ibm_beamal_test_universal_alec/keyboards/xwhatsit/ibm/beamal_test/universal/universal.o
 .debug_ranges  0x00000300       0x30 .build/obj_xwhatsit_ibm_beamal_test_universal_alec/quantum/keymap_introspection.o
 .debug_ranges  0x00000330      0x198 .build/obj_xwhatsit_ibm_beamal_test_universal_alec/quantum/quantum.o
 .debug_ranges  0x000004c8       0x50 .build/obj_xwhatsit_ibm_beamal_test_universal_alec/quantum/bitwise.o
 .debug_ranges  0x00000518       0x60 .build/obj_xwhatsit_ibm_beamal_test_universal_alec/quantum/led.o
 .debug_ranges  0x00000578      0x1a8 .build/obj_xwhatsit_ibm_beamal_test_universal_alec/quantum/action.o
 .debug_ranges  0x00000720      0x140 .build/obj_xwhatsit_ibm_beamal_test_universal_alec/quantum/action_layer.o
 .debug_ranges  0x00000860       0xc8 .build/obj_xwhatsit_ibm_beamal_test_universal_alec/quantum/action_tapping.o
 .debug_ranges  0x00000928      0x148 .build/obj_xwhatsit_ibm_beamal_test_universal_alec/quantum/action_util.o
 .debug_ranges  0x00000a70       0xc8 .build/obj_xwhatsit_ibm_beamal_test_universal_alec/quantum/eeconfig.o
 .debug_ranges  0x00000b38       0xf0 .build/obj_xwhatsit_ibm_beamal_test_universal_alec/quantum/keyboard.o
 .debug_ranges  0x00000c28       0x20 .build/obj_xwhatsit_ibm_beamal_test_universal_alec/quantum/keymap_common.o
 .debug_ranges  0x00000c48       0x18 .build/obj_xwhatsit_ibm_beamal_test_universal_alec/quantum/keycode_config.o
 .debug_ranges  0x00000c60       0x38 .build/obj_xwhatsit_ibm_beamal_test_universal_alec/quantum/bootmagic/bootmagic_lite.o
 .debug_ranges  0x00000c98       0x18 .build/obj_xwhatsit_ibm_beamal_test_universal_alec/quantum/bootmagic/magic.o
 .debug_ranges  0x00000cb0       0xb0 .build/obj_xwhatsit_ibm_beamal_test_universal_alec/quantum/matrix_common.o
 .debug_ranges  0x00000d60       0x20 .build/obj_xwhatsit_ibm_beamal_test_universal_alec/quantum/debounce/sym_defer_g.o
 .debug_ranges  0x00000d80       0x20 .build/obj_xwhatsit_ibm_beamal_test_universal_alec/quantum/main.o
 .debug_ranges  0x00000da0       0x58 .build/obj_xwhatsit_ibm_beamal_test_universal_alec/solenoid.o
 .debug_ranges  0x00000df8       0x10 .build/obj_xwhatsit_ibm_beamal_test_universal_alec/quantum/process_keycode/process_unicode.o
 .debug_ranges  0x00000e08      0x118 .build/obj_xwhatsit_ibm_beamal_test_universal_alec/quantum/process_keycode/process_unicode_common.o
 .debug_ranges  0x00000f20       0x10 .build/obj_xwhatsit_ibm_beamal_test_universal_alec/quantum/process_keycode/process_magic.o
 .debug_ranges  0x00000f30      0x190 .build/obj_xwhatsit_ibm_beamal_test_universal_alec/quantum/send_string/send_string.o
 .debug_ranges  0x000010c0       0x50 .build/obj_xwhatsit_ibm_beamal_test_universal_alec/quantum/process_keycode/process_dynamic_macro.o
 .debug_ranges  0x00001110       0x28 .build/obj_xwhatsit_ibm_beamal_test_universal_alec/quantum/process_keycode/process_grave_esc.o
 .debug_ranges  0x00001138       0x18 .build/obj_xwhatsit_ibm_beamal_test_universal_alec/quantum/process_keycode/process_haptic.o
 .debug_ranges  0x00001150      0x100 .build/obj_xwhatsit_ibm_beamal_test_universal_alec/quantum/haptic.o
 .debug_ranges  0x00001250       0x18 .build/obj_xwhatsit_ibm_beamal_test_universal_alec/quantum/process_keycode/process_space_cadet.o
 .debug_ranges  0x00001268       0x10 .build/obj_xwhatsit_ibm_beamal_test_universal_alec/platforms/avr/printf.o
 .debug_ranges  0x00001278       0x78 .build/obj_xwhatsit_ibm_beamal_test_universal_alec/protocol/host.o
 .debug_ranges  0x000012f0       0x58 .build/obj_xwhatsit_ibm_beamal_test_universal_alec/protocol/report.o
 .debug_ranges  0x00001348       0x30 .build/obj_xwhatsit_ibm_beamal_test_universal_alec/protocol/usb_device_state.o
 .debug_ranges  0x00001378       0x40 .build/obj_xwhatsit_ibm_beamal_test_universal_alec/platforms/suspend.o
 .debug_ranges  0x000013b8       0x10 .build/obj_xwhatsit_ibm_beamal_test_universal_alec/platforms/avr/platform.o
 .debug_ranges  0x000013c8       0x50 .build/obj_xwhatsit_ibm_beamal_test_universal_alec/platforms/avr/suspend.o
 .debug_ranges  0x00001418       0x40 .build/obj_xwhatsit_ibm_beamal_test_universal_alec/platforms/avr/timer.o
 .debug_ranges  0x00001458       0x18 .build/obj_xwhatsit_ibm_beamal_test_universal_alec/platforms/avr/bootloaders/caterina.o
 .debug_ranges  0x00001470      0x278 .build/obj_xwhatsit_ibm_beamal_test_universal_alec/lufa.o
 .debug_ranges  0x000016e8       0x28 .build/obj_xwhatsit_ibm_beamal_test_universal_alec/usb_descriptor.o
 .debug_ranges  0x00001710       0x10 .build/obj_xwhatsit_ibm_beamal_test_universal_alec/lib/lufa/LUFA/Drivers/USB/Core/AVR8/Device_AVR8.o
 .debug_ranges  0x00001720      0x1f8 .build/obj_xwhatsit_ibm_beamal_test_universal_alec/lib/lufa/LUFA/Drivers/USB/Core/AVR8/EndpointStream_AVR8.o
 .debug_ranges  0x00001918       0xd8 .build/obj_xwhatsit_ibm_beamal_test_universal_alec/lib/lufa/LUFA/Drivers/USB/Core/AVR8/Endpoint_AVR8.o
 .debug_ranges  0x000019f0       0x50 .build/obj_xwhatsit_ibm_beamal_test_universal_alec/lib/lufa/LUFA/Drivers/USB/Core/AVR8/USBController_AVR8.o
 .debug_ranges  0x00001a40       0x70 .build/obj_xwhatsit_ibm_beamal_test_universal_alec/lib/lufa/LUFA/Drivers/USB/Core/AVR8/USBInterrupt_AVR8.o
 .debug_ranges  0x00001ab0       0xf0 .build/obj_xwhatsit_ibm_beamal_test_universal_alec/lib/lufa/LUFA/Drivers/USB/Core/DeviceStandardReq.o
 .debug_ranges  0x00001ba0       0x10 .build/obj_xwhatsit_ibm_beamal_test_universal_alec/lib/lufa/LUFA/Drivers/USB/Core/USBTask.o

.debug_addr
 *(.debug_addr)

.debug_line_str
 *(.debug_line_str)

.debug_loclists
 *(.debug_loclists)

.debug_macro
 *(.debug_macro)

.debug_names
 *(.debug_names)

.debug_rnglists
 *(.debug_rnglists)

.debug_str_offsets
 *(.debug_str_offsets)

.debug_sup
 *(.debug_sup)
OUTPUT(.build/xwhatsit_ibm_beamal_test_universal_alec.elf elf32-avr)
LOAD linker stubs

Cross Reference Table

Symbol                                            File
CALLBACK_HIDParser_FilterHIDReportItem            .build/obj_xwhatsit_ibm_beamal_test_universal_alec/lib/lufa/LUFA/Drivers/USB/Class/Common/HIDParser.o
CALLBACK_USB_GetDescriptor                        .build/obj_xwhatsit_ibm_beamal_test_universal_alec/lufa.o
                                                  .build/obj_xwhatsit_ibm_beamal_test_universal_alec/lib/lufa/LUFA/Drivers/USB/Core/DeviceStandardReq.o
ConfigurationDescriptor                           .build/obj_xwhatsit_ibm_beamal_test_universal_alec/usb_descriptor.o
ConsoleReport                                     .build/obj_xwhatsit_ibm_beamal_test_universal_alec/usb_descriptor.o
DeviceDescriptor                                  .build/obj_xwhatsit_ibm_beamal_test_universal_alec/usb_descriptor.o
EVENT_USB_Device_ConfigurationChanged             .build/obj_xwhatsit_ibm_beamal_test_universal_alec/lufa.o
                                                  .build/obj_xwhatsit_ibm_beamal_test_universal_alec/lib/lufa/LUFA/Drivers/USB/Core/DeviceStandardReq.o
EVENT_USB_Device_Connect                          .build/obj_xwhatsit_ibm_beamal_test_universal_alec/lufa.o
                                                  .build/obj_xwhatsit_ibm_beamal_test_universal_alec/lib/lufa/LUFA/Drivers/USB/Core/AVR8/USBInterrupt_AVR8.o
EVENT_USB_Device_ControlRequest                   .build/obj_xwhatsit_ibm_beamal_test_universal_alec/lufa.o
                                                  .build/obj_xwhatsit_ibm_beamal_test_universal_alec/lib/lufa/LUFA/Drivers/USB/Core/DeviceStandardReq.o
EVENT_USB_Device_Disconnect                       .build/obj_xwhatsit_ibm_beamal_test_universal_alec/lufa.o
                                                  .build/obj_xwhatsit_ibm_beamal_test_universal_alec/lib/lufa/LUFA/Drivers/USB/Core/AVR8/USBInterrupt_AVR8.o
EVENT_USB_Device_Reset                            .build/obj_xwhatsit_ibm_beamal_test_universal_alec/lufa.o
                                                  .build/obj_xwhatsit_ibm_beamal_test_universal_alec/lib/lufa/LUFA/Drivers/USB/Core/AVR8/USBInterrupt_AVR8.o
EVENT_USB_Device_StartOfFrame                     .build/obj_xwhatsit_ibm_beamal_test_universal_alec/lufa.o
                                                  .build/obj_xwhatsit_ibm_beamal_test_universal_alec/lib/lufa/LUFA/Drivers/USB/Core/AVR8/USBInterrupt_AVR8.o
EVENT_USB_Device_Suspend                          .build/obj_xwhatsit_ibm_beamal_test_universal_alec/lufa.o
                                                  .build/obj_xwhatsit_ibm_beamal_test_universal_alec/lib/lufa/LUFA/Drivers/USB/Core/AVR8/USBInterrupt_AVR8.o
EVENT_USB_Device_WakeUp                           .build/obj_xwhatsit_ibm_beamal_test_universal_alec/lufa.o
                                                  .build/obj_xwhatsit_ibm_beamal_test_universal_alec/lib/lufa/LUFA/Drivers/USB/Core/AVR8/USBInterrupt_AVR8.o
Endpoint_ClearEndpoints                           .build/obj_xwhatsit_ibm_beamal_test_universal_alec/lib/lufa/LUFA/Drivers/USB/Core/AVR8/Endpoint_AVR8.o
Endpoint_ClearStatusStage                         .build/obj_xwhatsit_ibm_beamal_test_universal_alec/lib/lufa/LUFA/Drivers/USB/Core/AVR8/Endpoint_AVR8.o
                                                  .build/obj_xwhatsit_ibm_beamal_test_universal_alec/lib/lufa/LUFA/Drivers/USB/Core/DeviceStandardReq.o
                                                  .build/obj_xwhatsit_ibm_beamal_test_universal_alec/lufa.o
Endpoint_ConfigureEndpointTable                   .build/obj_xwhatsit_ibm_beamal_test_universal_alec/lib/lufa/LUFA/Drivers/USB/Core/AVR8/Endpoint_AVR8.o
Endpoint_ConfigureEndpoint_Prv                    .build/obj_xwhatsit_ibm_beamal_test_universal_alec/lib/lufa/LUFA/Drivers/USB/Core/AVR8/Endpoint_AVR8.o
                                                  .build/obj_xwhatsit_ibm_beamal_test_universal_alec/lib/lufa/LUFA/Drivers/USB/Core/AVR8/USBInterrupt_AVR8.o
                                                  .build/obj_xwhatsit_ibm_beamal_test_universal_alec/lib/lufa/LUFA/Drivers/USB/Core/AVR8/USBController_AVR8.o
                                                  .build/obj_xwhatsit_ibm_beamal_test_universal_alec/lufa.o
Endpoint_Discard_Stream                           .build/obj_xwhatsit_ibm_beamal_test_universal_alec/lib/lufa/LUFA/Drivers/USB/Core/AVR8/EndpointStream_AVR8.o
Endpoint_Null_Stream                              .build/obj_xwhatsit_ibm_beamal_test_universal_alec/lib/lufa/LUFA/Drivers/USB/Core/AVR8/EndpointStream_AVR8.o
Endpoint_Read_Control_EStream_BE                  .build/obj_xwhatsit_ibm_beamal_test_universal_alec/lib/lufa/LUFA/Drivers/USB/Core/AVR8/EndpointStream_AVR8.o
Endpoint_Read_Control_EStream_LE                  .build/obj_xwhatsit_ibm_beamal_test_universal_alec/lib/lufa/LUFA/Drivers/USB/Core/AVR8/EndpointStream_AVR8.o
Endpoint_Read_Control_Stream_BE                   .build/obj_xwhatsit_ibm_beamal_test_universal_alec/lib/lufa/LUFA/Drivers/USB/Core/AVR8/EndpointStream_AVR8.o
Endpoint_Read_Control_Stream_LE                   .build/obj_xwhatsit_ibm_beamal_test_universal_alec/lib/lufa/LUFA/Drivers/USB/Core/AVR8/EndpointStream_AVR8.o
Endpoint_Read_EStream_BE                          .build/obj_xwhatsit_ibm_beamal_test_universal_alec/lib/lufa/LUFA/Drivers/USB/Core/AVR8/EndpointStream_AVR8.o
Endpoint_Read_EStream_LE                          .build/obj_xwhatsit_ibm_beamal_test_universal_alec/lib/lufa/LUFA/Drivers/USB/Core/AVR8/EndpointStream_AVR8.o
Endpoint_Read_Stream_BE                           .build/obj_xwhatsit_ibm_beamal_test_universal_alec/lib/lufa/LUFA/Drivers/USB/Core/AVR8/EndpointStream_AVR8.o
Endpoint_Read_Stream_LE                           .build/obj_xwhatsit_ibm_beamal_test_universal_alec/lib/lufa/LUFA/Drivers/USB/Core/AVR8/EndpointStream_AVR8.o
                                                  .build/obj_xwhatsit_ibm_beamal_test_universal_alec/lufa.o
Endpoint_WaitUntilReady                           .build/obj_xwhatsit_ibm_beamal_test_universal_alec/lib/lufa/LUFA/Drivers/USB/Core/AVR8/Endpoint_AVR8.o
                                                  .build/obj_xwhatsit_ibm_beamal_test_universal_alec/lib/lufa/LUFA/Drivers/USB/Core/AVR8/EndpointStream_AVR8.o
Endpoint_Write_Control_EStream_BE                 .build/obj_xwhatsit_ibm_beamal_test_universal_alec/lib/lufa/LUFA/Drivers/USB/Core/AVR8/EndpointStream_AVR8.o
Endpoint_Write_Control_EStream_LE                 .build/obj_xwhatsit_ibm_beamal_test_universal_alec/lib/lufa/LUFA/Drivers/USB/Core/AVR8/EndpointStream_AVR8.o
Endpoint_Write_Control_PStream_BE                 .build/obj_xwhatsit_ibm_beamal_test_universal_alec/lib/lufa/LUFA/Drivers/USB/Core/AVR8/EndpointStream_AVR8.o
Endpoint_Write_Control_PStream_LE                 .build/obj_xwhatsit_ibm_beamal_test_universal_alec/lib/lufa/LUFA/Drivers/USB/Core/AVR8/EndpointStream_AVR8.o
                                                  .build/obj_xwhatsit_ibm_beamal_test_universal_alec/lib/lufa/LUFA/Drivers/USB/Core/DeviceStandardReq.o
Endpoint_Write_Control_Stream_BE                  .build/obj_xwhatsit_ibm_beamal_test_universal_alec/lib/lufa/LUFA/Drivers/USB/Core/AVR8/EndpointStream_AVR8.o
Endpoint_Write_Control_Stream_LE                  .build/obj_xwhatsit_ibm_beamal_test_universal_alec/lib/lufa/LUFA/Drivers/USB/Core/AVR8/EndpointStream_AVR8.o
                                                  .build/obj_xwhatsit_ibm_beamal_test_universal_alec/lib/lufa/LUFA/Drivers/USB/Core/DeviceStandardReq.o
                                                  .build/obj_xwhatsit_ibm_beamal_test_universal_alec/lufa.o
Endpoint_Write_EStream_BE                         .build/obj_xwhatsit_ibm_beamal_test_universal_alec/lib/lufa/LUFA/Drivers/USB/Core/AVR8/EndpointStream_AVR8.o
Endpoint_Write_EStream_LE                         .build/obj_xwhatsit_ibm_beamal_test_universal_alec/lib/lufa/LUFA/Drivers/USB/Core/AVR8/EndpointStream_AVR8.o
Endpoint_Write_PStream_BE                         .build/obj_xwhatsit_ibm_beamal_test_universal_alec/lib/lufa/LUFA/Drivers/USB/Core/AVR8/EndpointStream_AVR8.o
Endpoint_Write_PStream_LE                         .build/obj_xwhatsit_ibm_beamal_test_universal_alec/lib/lufa/LUFA/Drivers/USB/Core/AVR8/EndpointStream_AVR8.o
Endpoint_Write_Stream_BE                          .build/obj_xwhatsit_ibm_beamal_test_universal_alec/lib/lufa/LUFA/Drivers/USB/Core/AVR8/EndpointStream_AVR8.o
Endpoint_Write_Stream_LE                          .build/obj_xwhatsit_ibm_beamal_test_universal_alec/lib/lufa/LUFA/Drivers/USB/Core/AVR8/EndpointStream_AVR8.o
                                                  .build/obj_xwhatsit_ibm_beamal_test_universal_alec/lufa.o
KEYBOARD_FILENAME                                 .build/obj_xwhatsit_ibm_beamal_test_universal_alec/keyboards/xwhatsit/ibm/beamal_test/universal/universal.o
KeyboardReport                                    .build/obj_xwhatsit_ibm_beamal_test_universal_alec/usb_descriptor.o
LanguageString                                    .build/obj_xwhatsit_ibm_beamal_test_universal_alec/usb_descriptor.o
ManufacturerString                                .build/obj_xwhatsit_ibm_beamal_test_universal_alec/usb_descriptor.o
ProductString                                     .build/obj_xwhatsit_ibm_beamal_test_universal_alec/usb_descriptor.o
RawReport                                         .build/obj_xwhatsit_ibm_beamal_test_universal_alec/usb_descriptor.o
SerialNumberString                                .build/obj_xwhatsit_ibm_beamal_test_universal_alec/usb_descriptor.o
SharedReport                                      .build/obj_xwhatsit_ibm_beamal_test_universal_alec/usb_descriptor.o
USB_ControlRequest                                .build/obj_xwhatsit_ibm_beamal_test_universal_alec/lib/lufa/LUFA/Drivers/USB/Core/USBTask.o
                                                  .build/obj_xwhatsit_ibm_beamal_test_universal_alec/lib/lufa/LUFA/Drivers/USB/Core/DeviceStandardReq.o
                                                  .build/obj_xwhatsit_ibm_beamal_test_universal_alec/lib/lufa/LUFA/Drivers/USB/Core/AVR8/Endpoint_AVR8.o
                                                  .build/obj_xwhatsit_ibm_beamal_test_universal_alec/lib/lufa/LUFA/Drivers/USB/Core/AVR8/EndpointStream_AVR8.o
                                                  .build/obj_xwhatsit_ibm_beamal_test_universal_alec/lufa.o
USB_DeviceState                                   .build/obj_xwhatsit_ibm_beamal_test_universal_alec/lib/lufa/LUFA/Drivers/USB/Core/USBTask.o
                                                  .build/obj_xwhatsit_ibm_beamal_test_universal_alec/protocol/lufa/usb_util.o
                                                  .build/obj_xwhatsit_ibm_beamal_test_universal_alec/lib/lufa/LUFA/Drivers/USB/Core/DeviceStandardReq.o
                                                  .build/obj_xwhatsit_ibm_beamal_test_universal_alec/lib/lufa/LUFA/Drivers/USB/Core/AVR8/USBInterrupt_AVR8.o
                                                  .build/obj_xwhatsit_ibm_beamal_test_universal_alec/lib/lufa/LUFA/Drivers/USB/Core/AVR8/USBController_AVR8.o
                                                  .build/obj_xwhatsit_ibm_beamal_test_universal_alec/lib/lufa/LUFA/Drivers/USB/Core/AVR8/Endpoint_AVR8.o
                                                  .build/obj_xwhatsit_ibm_beamal_test_universal_alec/lib/lufa/LUFA/Drivers/USB/Core/AVR8/EndpointStream_AVR8.o
                                                  .build/obj_xwhatsit_ibm_beamal_test_universal_alec/lufa.o
                                                  .build/obj_xwhatsit_ibm_beamal_test_universal_alec/platforms/avr/suspend.o
USB_Device_ConfigurationNumber                    .build/obj_xwhatsit_ibm_beamal_test_universal_alec/lib/lufa/LUFA/Drivers/USB/Core/DeviceStandardReq.o
                                                  .build/obj_xwhatsit_ibm_beamal_test_universal_alec/lib/lufa/LUFA/Drivers/USB/Core/AVR8/USBInterrupt_AVR8.o
                                                  .build/obj_xwhatsit_ibm_beamal_test_universal_alec/lib/lufa/LUFA/Drivers/USB/Core/AVR8/USBController_AVR8.o
                                                  .build/obj_xwhatsit_ibm_beamal_test_universal_alec/lufa.o
USB_Device_CurrentlySelfPowered                   .build/obj_xwhatsit_ibm_beamal_test_universal_alec/lib/lufa/LUFA/Drivers/USB/Core/DeviceStandardReq.o
                                                  .build/obj_xwhatsit_ibm_beamal_test_universal_alec/lib/lufa/LUFA/Drivers/USB/Core/AVR8/USBController_AVR8.o
USB_Device_ProcessControlRequest                  .build/obj_xwhatsit_ibm_beamal_test_universal_alec/lib/lufa/LUFA/Drivers/USB/Core/DeviceStandardReq.o
                                                  .build/obj_xwhatsit_ibm_beamal_test_universal_alec/lib/lufa/LUFA/Drivers/USB/Core/USBTask.o
                                                  .build/obj_xwhatsit_ibm_beamal_test_universal_alec/lib/lufa/LUFA/Drivers/USB/Core/AVR8/USBInterrupt_AVR8.o
USB_Device_RemoteWakeupEnabled                    .build/obj_xwhatsit_ibm_beamal_test_universal_alec/lib/lufa/LUFA/Drivers/USB/Core/DeviceStandardReq.o
                                                  .build/obj_xwhatsit_ibm_beamal_test_universal_alec/lib/lufa/LUFA/Drivers/USB/Core/AVR8/USBController_AVR8.o
                                                  .build/obj_xwhatsit_ibm_beamal_test_universal_alec/lufa.o
USB_Device_SendRemoteWakeup                       .build/obj_xwhatsit_ibm_beamal_test_universal_alec/lib/lufa/LUFA/Drivers/USB/Core/AVR8/Device_AVR8.o
                                                  .build/obj_xwhatsit_ibm_beamal_test_universal_alec/lufa.o
USB_Disable                                       .build/obj_xwhatsit_ibm_beamal_test_universal_alec/lib/lufa/LUFA/Drivers/USB/Core/AVR8/USBController_AVR8.o
                                                  .build/obj_xwhatsit_ibm_beamal_test_universal_alec/protocol/lufa/usb_util.o
                                                  .build/obj_xwhatsit_ibm_beamal_test_universal_alec/lufa.o
USB_Event_Stub                                    .build/obj_xwhatsit_ibm_beamal_test_universal_alec/lib/lufa/LUFA/Drivers/USB/Core/Events.o
USB_Event_Stub_2                                  .build/obj_xwhatsit_ibm_beamal_test_universal_alec/lib/lufa/LUFA/Drivers/USB/Core/Events.o
USB_Event_Stub_3                                  .build/obj_xwhatsit_ibm_beamal_test_universal_alec/lib/lufa/LUFA/Drivers/USB/Core/Events.o
USB_GetHIDReportItemInfo                          .build/obj_xwhatsit_ibm_beamal_test_universal_alec/lib/lufa/LUFA/Drivers/USB/Class/Common/HIDParser.o
USB_GetHIDReportSize                              .build/obj_xwhatsit_ibm_beamal_test_universal_alec/lib/lufa/LUFA/Drivers/USB/Class/Common/HIDParser.o
USB_GetNextDescriptorComp                         .build/obj_xwhatsit_ibm_beamal_test_universal_alec/lib/lufa/LUFA/Drivers/USB/Core/ConfigDescriptors.o
USB_GetNextDescriptorOfType                       .build/obj_xwhatsit_ibm_beamal_test_universal_alec/lib/lufa/LUFA/Drivers/USB/Core/ConfigDescriptors.o
USB_GetNextDescriptorOfTypeAfter                  .build/obj_xwhatsit_ibm_beamal_test_universal_alec/lib/lufa/LUFA/Drivers/USB/Core/ConfigDescriptors.o
USB_GetNextDescriptorOfTypeBefore                 .build/obj_xwhatsit_ibm_beamal_test_universal_alec/lib/lufa/LUFA/Drivers/USB/Core/ConfigDescriptors.o
USB_INT_ClearAllInterrupts                        .build/obj_xwhatsit_ibm_beamal_test_universal_alec/lib/lufa/LUFA/Drivers/USB/Core/AVR8/USBInterrupt_AVR8.o
                                                  .build/obj_xwhatsit_ibm_beamal_test_universal_alec/lib/lufa/LUFA/Drivers/USB/Core/AVR8/USBController_AVR8.o
USB_INT_DisableAllInterrupts                      .build/obj_xwhatsit_ibm_beamal_test_universal_alec/lib/lufa/LUFA/Drivers/USB/Core/AVR8/USBInterrupt_AVR8.o
                                                  .build/obj_xwhatsit_ibm_beamal_test_universal_alec/lib/lufa/LUFA/Drivers/USB/Core/AVR8/USBController_AVR8.o
USB_Init                                          .build/obj_xwhatsit_ibm_beamal_test_universal_alec/lib/lufa/LUFA/Drivers/USB/Core/AVR8/USBController_AVR8.o
                                                  .build/obj_xwhatsit_ibm_beamal_test_universal_alec/lufa.o
USB_IsInitialized                                 .build/obj_xwhatsit_ibm_beamal_test_universal_alec/lib/lufa/LUFA/Drivers/USB/Core/USBTask.o
                                                  .build/obj_xwhatsit_ibm_beamal_test_universal_alec/lib/lufa/LUFA/Drivers/USB/Core/AVR8/USBController_AVR8.o
                                                  .build/obj_xwhatsit_ibm_beamal_test_universal_alec/lufa.o
USB_ProcessHIDReport                              .build/obj_xwhatsit_ibm_beamal_test_universal_alec/lib/lufa/LUFA/Drivers/USB/Class/Common/HIDParser.o
USB_ResetInterface                                .build/obj_xwhatsit_ibm_beamal_test_universal_alec/lib/lufa/LUFA/Drivers/USB/Core/AVR8/USBController_AVR8.o
USB_SetHIDReportItemInfo                          .build/obj_xwhatsit_ibm_beamal_test_universal_alec/lib/lufa/LUFA/Drivers/USB/Class/Common/HIDParser.o
USB_USBTask                                       .build/obj_xwhatsit_ibm_beamal_test_universal_alec/lib/lufa/LUFA/Drivers/USB/Core/USBTask.o
                                                  .build/obj_xwhatsit_ibm_beamal_test_universal_alec/lufa.o
__FUSE_REGION_LENGTH__                            /usr/local/Cellar/avr-gcc@8/8.5.0/lib/avr-gcc/8/gcc/avr/8.5.0/../../../../../../avr/lib/avr5/crtatmega32u4.o
__bad_interrupt                                   /usr/local/Cellar/avr-gcc@8/8.5.0/lib/avr-gcc/8/gcc/avr/8.5.0/../../../../../../avr/lib/avr5/crtatmega32u4.o
__bss_end                                         /usr/local/Cellar/avr-gcc@8/8.5.0/lib/avr-gcc/8/gcc/avr/8.5.0/avr5/libgcc.a(_clear_bss.o)
__bss_start                                       /usr/local/Cellar/avr-gcc@8/8.5.0/lib/avr-gcc/8/gcc/avr/8.5.0/avr5/libgcc.a(_clear_bss.o)
__ctors_end                                       /usr/local/Cellar/avr-gcc@8/8.5.0/lib/avr-gcc/8/gcc/avr/8.5.0/avr5/libgcc.a(_ctors.o)
__ctors_start                                     /usr/local/Cellar/avr-gcc@8/8.5.0/lib/avr-gcc/8/gcc/avr/8.5.0/avr5/libgcc.a(_ctors.o)
__data_end                                        /usr/local/Cellar/avr-gcc@8/8.5.0/lib/avr-gcc/8/gcc/avr/8.5.0/avr5/libgcc.a(_copy_data.o)
__data_load_start                                 /usr/local/Cellar/avr-gcc@8/8.5.0/lib/avr-gcc/8/gcc/avr/8.5.0/avr5/libgcc.a(_copy_data.o)
__data_start                                      /usr/local/Cellar/avr-gcc@8/8.5.0/lib/avr-gcc/8/gcc/avr/8.5.0/avr5/libgcc.a(_copy_data.o)
__divmodhi4                                       /usr/local/Cellar/avr-gcc@8/8.5.0/lib/avr-gcc/8/gcc/avr/8.5.0/avr5/libgcc.a(_divmodhi4.o)
                                                  .build/obj_xwhatsit_ibm_beamal_test_universal_alec/quantum/process_keycode/process_unicode_common.o
__do_clear_bss                                    /usr/local/Cellar/avr-gcc@8/8.5.0/lib/avr-gcc/8/gcc/avr/8.5.0/avr5/libgcc.a(_clear_bss.o)
                                                  .build/obj_xwhatsit_ibm_beamal_test_universal_alec/lib/lufa/LUFA/Drivers/USB/Core/USBTask.o
                                                  .build/obj_xwhatsit_ibm_beamal_test_universal_alec/lib/lufa/LUFA/Drivers/USB/Core/DeviceStandardReq.o
                                                  .build/obj_xwhatsit_ibm_beamal_test_universal_alec/lufa.o
                                                  .build/obj_xwhatsit_ibm_beamal_test_universal_alec/platforms/avr/timer.o
                                                  .build/obj_xwhatsit_ibm_beamal_test_universal_alec/platforms/avr/suspend.o
                                                  .build/obj_xwhatsit_ibm_beamal_test_universal_alec/protocol/usb_device_state.o
                                                  .build/obj_xwhatsit_ibm_beamal_test_universal_alec/protocol/host.o
                                                  .build/obj_xwhatsit_ibm_beamal_test_universal_alec/quantum/process_keycode/process_space_cadet.o
                                                  .build/obj_xwhatsit_ibm_beamal_test_universal_alec/quantum/haptic.o
                                                  .build/obj_xwhatsit_ibm_beamal_test_universal_alec/quantum/process_keycode/process_grave_esc.o
                                                  .build/obj_xwhatsit_ibm_beamal_test_universal_alec/quantum/process_keycode/process_dynamic_macro.o
                                                  .build/obj_xwhatsit_ibm_beamal_test_universal_alec/quantum/process_keycode/process_unicode_common.o
                                                  .build/obj_xwhatsit_ibm_beamal_test_universal_alec/solenoid.o
                                                  .build/obj_xwhatsit_ibm_beamal_test_universal_alec/quantum/debounce/sym_defer_g.o
                                                  .build/obj_xwhatsit_ibm_beamal_test_universal_alec/quantum/matrix_common.o
                                                  .build/obj_xwhatsit_ibm_beamal_test_universal_alec/quantum/bootmagic/magic.o
                                                  .build/obj_xwhatsit_ibm_beamal_test_universal_alec/quantum/logging/debug.o
                                                  .build/obj_xwhatsit_ibm_beamal_test_universal_alec/quantum/keyboard.o
                                                  .build/obj_xwhatsit_ibm_beamal_test_universal_alec/quantum/action_util.o
                                                  .build/obj_xwhatsit_ibm_beamal_test_universal_alec/quantum/action_tapping.o
                                                  .build/obj_xwhatsit_ibm_beamal_test_universal_alec/quantum/action_layer.o
                                                  .build/obj_xwhatsit_ibm_beamal_test_universal_alec/quantum/action.o
                                                  .build/obj_xwhatsit_ibm_beamal_test_universal_alec/quantum/led.o
                                                  .build/obj_xwhatsit_ibm_beamal_test_universal_alec/quantum/quantum.o
                                                  .build/obj_xwhatsit_ibm_beamal_test_universal_alec/keyboards/xwhatsit/xwhatsit.o
                                                  .build/obj_xwhatsit_ibm_beamal_test_universal_alec/keyboards/xwhatsit/matrix.o
__do_copy_data                                    /usr/local/Cellar/avr-gcc@8/8.5.0/lib/avr-gcc/8/gcc/avr/8.5.0/avr5/libgcc.a(_copy_data.o)
                                                  .build/obj_xwhatsit_ibm_beamal_test_universal_alec/usb_descriptor.o
                                                  .build/obj_xwhatsit_ibm_beamal_test_universal_alec/lufa.o
                                                  .build/obj_xwhatsit_ibm_beamal_test_universal_alec/quantum/process_keycode/process_dynamic_macro.o
                                                  .build/obj_xwhatsit_ibm_beamal_test_universal_alec/solenoid.o
                                                  .build/obj_xwhatsit_ibm_beamal_test_universal_alec/quantum/keymap_common.o
                                                  .build/obj_xwhatsit_ibm_beamal_test_universal_alec/quantum/action_util.o
                                                  .build/obj_xwhatsit_ibm_beamal_test_universal_alec/quantum/action.o
                                                  .build/obj_xwhatsit_ibm_beamal_test_universal_alec/quantum/quantum.o
                                                  .build/obj_xwhatsit_ibm_beamal_test_universal_alec/keyboards/xwhatsit/ibm/beamal_test/universal/universal.o
                                                  .build/obj_xwhatsit_ibm_beamal_test_universal_alec/keyboards/xwhatsit/util_comm.o
                                                  .build/obj_xwhatsit_ibm_beamal_test_universal_alec/keyboards/xwhatsit/matrix.o
__do_global_ctors                                 /usr/local/Cellar/avr-gcc@8/8.5.0/lib/avr-gcc/8/gcc/avr/8.5.0/avr5/libgcc.a(_ctors.o)
                                                  .build/obj_xwhatsit_ibm_beamal_test_universal_alec/keyboards/xwhatsit/xwhatsit.o
__epilogue_restores__                             /usr/local/Cellar/avr-gcc@8/8.5.0/lib/avr-gcc/8/gcc/avr/8.5.0/avr5/libgcc.a(_epilogue.o)
                                                  .build/obj_xwhatsit_ibm_beamal_test_universal_alec/lib/lufa/LUFA/Drivers/USB/Core/DeviceStandardReq.o
                                                  .build/obj_xwhatsit_ibm_beamal_test_universal_alec/lib/lufa/LUFA/Drivers/USB/Core/ConfigDescriptors.o
                                                  .build/obj_xwhatsit_ibm_beamal_test_universal_alec/lib/lufa/LUFA/Drivers/USB/Core/AVR8/EndpointStream_AVR8.o
                                                  .build/obj_xwhatsit_ibm_beamal_test_universal_alec/lib/lufa/LUFA/Drivers/USB/Class/Common/HIDParser.o
                                                  .build/obj_xwhatsit_ibm_beamal_test_universal_alec/lufa.o
                                                  .build/obj_xwhatsit_ibm_beamal_test_universal_alec/platforms/avr/hardware_id.o
                                                  .build/obj_xwhatsit_ibm_beamal_test_universal_alec/protocol/host.o
                                                  .build/obj_xwhatsit_ibm_beamal_test_universal_alec/quantum/send_string/send_string.o
                                                  .build/obj_xwhatsit_ibm_beamal_test_universal_alec/quantum/process_keycode/process_unicode_common.o
                                                  .build/obj_xwhatsit_ibm_beamal_test_universal_alec/quantum/matrix_common.o
                                                  .build/obj_xwhatsit_ibm_beamal_test_universal_alec/quantum/keyboard.o
                                                  .build/obj_xwhatsit_ibm_beamal_test_universal_alec/quantum/action_tapping.o
                                                  .build/obj_xwhatsit_ibm_beamal_test_universal_alec/quantum/action_layer.o
                                                  .build/obj_xwhatsit_ibm_beamal_test_universal_alec/quantum/action.o
                                                  .build/obj_xwhatsit_ibm_beamal_test_universal_alec/quantum/bitwise.o
                                                  .build/obj_xwhatsit_ibm_beamal_test_universal_alec/quantum/quantum.o
                                                  .build/obj_xwhatsit_ibm_beamal_test_universal_alec/keyboards/xwhatsit/util_comm.o
                                                  .build/obj_xwhatsit_ibm_beamal_test_universal_alec/keyboards/xwhatsit/matrix.o
__fixunssfsi                                      /usr/local/Cellar/avr-gcc@8/8.5.0/lib/avr-gcc/8/gcc/avr/8.5.0/../../../../../../avr/lib/avr5/libm.a(fixunssfsi.o)
                                                  .build/obj_xwhatsit_ibm_beamal_test_universal_alec/protocol/host.o
__fp_inf                                          /usr/local/Cellar/avr-gcc@8/8.5.0/lib/avr-gcc/8/gcc/avr/8.5.0/../../../../../../avr/lib/avr5/libm.a(fp_inf.o)
                                                  /usr/local/Cellar/avr-gcc@8/8.5.0/lib/avr-gcc/8/gcc/avr/8.5.0/../../../../../../avr/lib/avr5/libm.a(mulsf3x.o)
__fp_nan                                          /usr/local/Cellar/avr-gcc@8/8.5.0/lib/avr-gcc/8/gcc/avr/8.5.0/../../../../../../avr/lib/avr5/libm.a(fp_nan.o)
                                                  /usr/local/Cellar/avr-gcc@8/8.5.0/lib/avr-gcc/8/gcc/avr/8.5.0/../../../../../../avr/lib/avr5/libm.a(mulsf3x.o)
__fp_pscA                                         /usr/local/Cellar/avr-gcc@8/8.5.0/lib/avr-gcc/8/gcc/avr/8.5.0/../../../../../../avr/lib/avr5/libm.a(fp_pscA.o)
                                                  /usr/local/Cellar/avr-gcc@8/8.5.0/lib/avr-gcc/8/gcc/avr/8.5.0/../../../../../../avr/lib/avr5/libm.a(mulsf3x.o)
__fp_pscB                                         /usr/local/Cellar/avr-gcc@8/8.5.0/lib/avr-gcc/8/gcc/avr/8.5.0/../../../../../../avr/lib/avr5/libm.a(fp_pscB.o)
                                                  /usr/local/Cellar/avr-gcc@8/8.5.0/lib/avr-gcc/8/gcc/avr/8.5.0/../../../../../../avr/lib/avr5/libm.a(mulsf3x.o)
__fp_round                                        /usr/local/Cellar/avr-gcc@8/8.5.0/lib/avr-gcc/8/gcc/avr/8.5.0/../../../../../../avr/lib/avr5/libm.a(fp_round.o)
                                                  /usr/local/Cellar/avr-gcc@8/8.5.0/lib/avr-gcc/8/gcc/avr/8.5.0/../../../../../../avr/lib/avr5/libm.a(mulsf3.o)
__fp_split3                                       /usr/local/Cellar/avr-gcc@8/8.5.0/lib/avr-gcc/8/gcc/avr/8.5.0/../../../../../../avr/lib/avr5/libm.a(fp_split3.o)
                                                  /usr/local/Cellar/avr-gcc@8/8.5.0/lib/avr-gcc/8/gcc/avr/8.5.0/../../../../../../avr/lib/avr5/libm.a(mulsf3x.o)
__fp_splitA                                       /usr/local/Cellar/avr-gcc@8/8.5.0/lib/avr-gcc/8/gcc/avr/8.5.0/../../../../../../avr/lib/avr5/libm.a(fp_split3.o)
                                                  /usr/local/Cellar/avr-gcc@8/8.5.0/lib/avr-gcc/8/gcc/avr/8.5.0/../../../../../../avr/lib/avr5/libm.a(fixunssfsi.o)
__fp_szero                                        /usr/local/Cellar/avr-gcc@8/8.5.0/lib/avr-gcc/8/gcc/avr/8.5.0/../../../../../../avr/lib/avr5/libm.a(fp_zero.o)
                                                  /usr/local/Cellar/avr-gcc@8/8.5.0/lib/avr-gcc/8/gcc/avr/8.5.0/../../../../../../avr/lib/avr5/libm.a(mulsf3x.o)
__fp_zero                                         /usr/local/Cellar/avr-gcc@8/8.5.0/lib/avr-gcc/8/gcc/avr/8.5.0/../../../../../../avr/lib/avr5/libm.a(fp_zero.o)
                                                  /usr/local/Cellar/avr-gcc@8/8.5.0/lib/avr-gcc/8/gcc/avr/8.5.0/../../../../../../avr/lib/avr5/libm.a(fixunssfsi.o)
__heap_end                                        /usr/local/Cellar/avr-gcc@8/8.5.0/lib/avr-gcc/8/gcc/avr/8.5.0/../../../../../../avr/lib/avr5/crtatmega32u4.o
__init                                            /usr/local/Cellar/avr-gcc@8/8.5.0/lib/avr-gcc/8/gcc/avr/8.5.0/../../../../../../avr/lib/avr5/crtatmega32u4.o
__mulsf3                                          /usr/local/Cellar/avr-gcc@8/8.5.0/lib/avr-gcc/8/gcc/avr/8.5.0/../../../../../../avr/lib/avr5/libm.a(mulsf3.o)
                                                  .build/obj_xwhatsit_ibm_beamal_test_universal_alec/protocol/host.o
__mulsf3_pse                                      /usr/local/Cellar/avr-gcc@8/8.5.0/lib/avr-gcc/8/gcc/avr/8.5.0/../../../../../../avr/lib/avr5/libm.a(mulsf3x.o)
__mulsf3x                                         /usr/local/Cellar/avr-gcc@8/8.5.0/lib/avr-gcc/8/gcc/avr/8.5.0/../../../../../../avr/lib/avr5/libm.a(mulsf3x.o)
                                                  /usr/local/Cellar/avr-gcc@8/8.5.0/lib/avr-gcc/8/gcc/avr/8.5.0/../../../../../../avr/lib/avr5/libm.a(mulsf3.o)
__prologue_saves__                                /usr/local/Cellar/avr-gcc@8/8.5.0/lib/avr-gcc/8/gcc/avr/8.5.0/avr5/libgcc.a(_prologue.o)
                                                  .build/obj_xwhatsit_ibm_beamal_test_universal_alec/lib/lufa/LUFA/Drivers/USB/Core/DeviceStandardReq.o
                                                  .build/obj_xwhatsit_ibm_beamal_test_universal_alec/lib/lufa/LUFA/Drivers/USB/Core/ConfigDescriptors.o
                                                  .build/obj_xwhatsit_ibm_beamal_test_universal_alec/lib/lufa/LUFA/Drivers/USB/Class/Common/HIDParser.o
                                                  .build/obj_xwhatsit_ibm_beamal_test_universal_alec/lufa.o
                                                  .build/obj_xwhatsit_ibm_beamal_test_universal_alec/platforms/avr/hardware_id.o
                                                  .build/obj_xwhatsit_ibm_beamal_test_universal_alec/protocol/host.o
                                                  .build/obj_xwhatsit_ibm_beamal_test_universal_alec/quantum/send_string/send_string.o
                                                  .build/obj_xwhatsit_ibm_beamal_test_universal_alec/quantum/process_keycode/process_unicode_common.o
                                                  .build/obj_xwhatsit_ibm_beamal_test_universal_alec/quantum/matrix_common.o
                                                  .build/obj_xwhatsit_ibm_beamal_test_universal_alec/quantum/keyboard.o
                                                  .build/obj_xwhatsit_ibm_beamal_test_universal_alec/quantum/action_tapping.o
                                                  .build/obj_xwhatsit_ibm_beamal_test_universal_alec/quantum/action_layer.o
                                                  .build/obj_xwhatsit_ibm_beamal_test_universal_alec/quantum/action.o
                                                  .build/obj_xwhatsit_ibm_beamal_test_universal_alec/quantum/bitwise.o
                                                  .build/obj_xwhatsit_ibm_beamal_test_universal_alec/quantum/quantum.o
                                                  .build/obj_xwhatsit_ibm_beamal_test_universal_alec/keyboards/xwhatsit/util_comm.o
                                                  .build/obj_xwhatsit_ibm_beamal_test_universal_alec/keyboards/xwhatsit/matrix.o
__stack                                           /usr/local/Cellar/avr-gcc@8/8.5.0/lib/avr-gcc/8/gcc/avr/8.5.0/../../../../../../avr/lib/avr5/crtatmega32u4.o
                                                  .build/obj_xwhatsit_ibm_beamal_test_universal_alec/keyboards/xwhatsit/xwhatsit.o
__tablejump2__                                    /usr/local/Cellar/avr-gcc@8/8.5.0/lib/avr-gcc/8/gcc/avr/8.5.0/avr5/libgcc.a(_tablejump2.o)
                                                  /usr/local/Cellar/avr-gcc@8/8.5.0/lib/avr-gcc/8/gcc/avr/8.5.0/avr5/libgcc.a(_ctors.o)
                                                  .build/obj_xwhatsit_ibm_beamal_test_universal_alec/lib/lufa/LUFA/Drivers/USB/Core/DeviceStandardReq.o
                                                  .build/obj_xwhatsit_ibm_beamal_test_universal_alec/quantum/process_keycode/process_haptic.o
                                                  .build/obj_xwhatsit_ibm_beamal_test_universal_alec/quantum/action.o
                                                  .build/obj_xwhatsit_ibm_beamal_test_universal_alec/quantum/keymap_introspection.o
                                                  .build/obj_xwhatsit_ibm_beamal_test_universal_alec/keyboards/xwhatsit/util_comm.o
__udivmodhi4                                      /usr/local/Cellar/avr-gcc@8/8.5.0/lib/avr-gcc/8/gcc/avr/8.5.0/avr5/libgcc.a(_udivmodhi4.o)
                                                  /usr/local/Cellar/avr-gcc@8/8.5.0/lib/avr-gcc/8/gcc/avr/8.5.0/avr5/libgcc.a(_divmodhi4.o)
                                                  .build/obj_xwhatsit_ibm_beamal_test_universal_alec/keyboards/xwhatsit/matrix.o
__udivmodqi4                                      /usr/local/Cellar/avr-gcc@8/8.5.0/lib/avr-gcc/8/gcc/avr/8.5.0/avr5/libgcc.a(_udivmodqi4.o)
                                                  .build/obj_xwhatsit_ibm_beamal_test_universal_alec/lufa.o
__udivmodsi4                                      /usr/local/Cellar/avr-gcc@8/8.5.0/lib/avr-gcc/8/gcc/avr/8.5.0/avr5/libgcc.a(_udivmodsi4.o)
                                                  .build/obj_xwhatsit_ibm_beamal_test_universal_alec/quantum/quantum.o
                                                  .build/obj_xwhatsit_ibm_beamal_test_universal_alec/keyboards/xwhatsit/matrix.o
__vector_1                                        /usr/local/Cellar/avr-gcc@8/8.5.0/lib/avr-gcc/8/gcc/avr/8.5.0/../../../../../../avr/lib/avr5/crtatmega32u4.o
__vector_10                                       .build/obj_xwhatsit_ibm_beamal_test_universal_alec/lib/lufa/LUFA/Drivers/USB/Core/AVR8/USBInterrupt_AVR8.o
                                                  /usr/local/Cellar/avr-gcc@8/8.5.0/lib/avr-gcc/8/gcc/avr/8.5.0/../../../../../../avr/lib/avr5/crtatmega32u4.o
__vector_11                                       .build/obj_xwhatsit_ibm_beamal_test_universal_alec/lib/lufa/LUFA/Drivers/USB/Core/AVR8/USBInterrupt_AVR8.o
                                                  /usr/local/Cellar/avr-gcc@8/8.5.0/lib/avr-gcc/8/gcc/avr/8.5.0/../../../../../../avr/lib/avr5/crtatmega32u4.o
__vector_12                                       .build/obj_xwhatsit_ibm_beamal_test_universal_alec/platforms/avr/suspend.o
                                                  /usr/local/Cellar/avr-gcc@8/8.5.0/lib/avr-gcc/8/gcc/avr/8.5.0/../../../../../../avr/lib/avr5/crtatmega32u4.o
__vector_13                                       /usr/local/Cellar/avr-gcc@8/8.5.0/lib/avr-gcc/8/gcc/avr/8.5.0/../../../../../../avr/lib/avr5/crtatmega32u4.o
__vector_14                                       /usr/local/Cellar/avr-gcc@8/8.5.0/lib/avr-gcc/8/gcc/avr/8.5.0/../../../../../../avr/lib/avr5/crtatmega32u4.o
__vector_15                                       /usr/local/Cellar/avr-gcc@8/8.5.0/lib/avr-gcc/8/gcc/avr/8.5.0/../../../../../../avr/lib/avr5/crtatmega32u4.o
__vector_16                                       /usr/local/Cellar/avr-gcc@8/8.5.0/lib/avr-gcc/8/gcc/avr/8.5.0/../../../../../../avr/lib/avr5/crtatmega32u4.o
__vector_17                                       /usr/local/Cellar/avr-gcc@8/8.5.0/lib/avr-gcc/8/gcc/avr/8.5.0/../../../../../../avr/lib/avr5/crtatmega32u4.o
__vector_18                                       /usr/local/Cellar/avr-gcc@8/8.5.0/lib/avr-gcc/8/gcc/avr/8.5.0/../../../../../../avr/lib/avr5/crtatmega32u4.o
__vector_19                                       /usr/local/Cellar/avr-gcc@8/8.5.0/lib/avr-gcc/8/gcc/avr/8.5.0/../../../../../../avr/lib/avr5/crtatmega32u4.o
__vector_2                                        /usr/local/Cellar/avr-gcc@8/8.5.0/lib/avr-gcc/8/gcc/avr/8.5.0/../../../../../../avr/lib/avr5/crtatmega32u4.o
__vector_20                                       /usr/local/Cellar/avr-gcc@8/8.5.0/lib/avr-gcc/8/gcc/avr/8.5.0/../../../../../../avr/lib/avr5/crtatmega32u4.o
__vector_21                                       .build/obj_xwhatsit_ibm_beamal_test_universal_alec/platforms/avr/timer.o
                                                  /usr/local/Cellar/avr-gcc@8/8.5.0/lib/avr-gcc/8/gcc/avr/8.5.0/../../../../../../avr/lib/avr5/crtatmega32u4.o
__vector_22                                       /usr/local/Cellar/avr-gcc@8/8.5.0/lib/avr-gcc/8/gcc/avr/8.5.0/../../../../../../avr/lib/avr5/crtatmega32u4.o
__vector_23                                       /usr/local/Cellar/avr-gcc@8/8.5.0/lib/avr-gcc/8/gcc/avr/8.5.0/../../../../../../avr/lib/avr5/crtatmega32u4.o
__vector_24                                       /usr/local/Cellar/avr-gcc@8/8.5.0/lib/avr-gcc/8/gcc/avr/8.5.0/../../../../../../avr/lib/avr5/crtatmega32u4.o
__vector_25                                       /usr/local/Cellar/avr-gcc@8/8.5.0/lib/avr-gcc/8/gcc/avr/8.5.0/../../../../../../avr/lib/avr5/crtatmega32u4.o
__vector_26                                       /usr/local/Cellar/avr-gcc@8/8.5.0/lib/avr-gcc/8/gcc/avr/8.5.0/../../../../../../avr/lib/avr5/crtatmega32u4.o
__vector_27                                       /usr/local/Cellar/avr-gcc@8/8.5.0/lib/avr-gcc/8/gcc/avr/8.5.0/../../../../../../avr/lib/avr5/crtatmega32u4.o
__vector_28                                       /usr/local/Cellar/avr-gcc@8/8.5.0/lib/avr-gcc/8/gcc/avr/8.5.0/../../../../../../avr/lib/avr5/crtatmega32u4.o
__vector_29                                       /usr/local/Cellar/avr-gcc@8/8.5.0/lib/avr-gcc/8/gcc/avr/8.5.0/../../../../../../avr/lib/avr5/crtatmega32u4.o
__vector_3                                        /usr/local/Cellar/avr-gcc@8/8.5.0/lib/avr-gcc/8/gcc/avr/8.5.0/../../../../../../avr/lib/avr5/crtatmega32u4.o
__vector_30                                       /usr/local/Cellar/avr-gcc@8/8.5.0/lib/avr-gcc/8/gcc/avr/8.5.0/../../../../../../avr/lib/avr5/crtatmega32u4.o
__vector_31                                       /usr/local/Cellar/avr-gcc@8/8.5.0/lib/avr-gcc/8/gcc/avr/8.5.0/../../../../../../avr/lib/avr5/crtatmega32u4.o
__vector_32                                       /usr/local/Cellar/avr-gcc@8/8.5.0/lib/avr-gcc/8/gcc/avr/8.5.0/../../../../../../avr/lib/avr5/crtatmega32u4.o
__vector_33                                       /usr/local/Cellar/avr-gcc@8/8.5.0/lib/avr-gcc/8/gcc/avr/8.5.0/../../../../../../avr/lib/avr5/crtatmega32u4.o
__vector_34                                       /usr/local/Cellar/avr-gcc@8/8.5.0/lib/avr-gcc/8/gcc/avr/8.5.0/../../../../../../avr/lib/avr5/crtatmega32u4.o
__vector_35                                       /usr/local/Cellar/avr-gcc@8/8.5.0/lib/avr-gcc/8/gcc/avr/8.5.0/../../../../../../avr/lib/avr5/crtatmega32u4.o
__vector_36                                       /usr/local/Cellar/avr-gcc@8/8.5.0/lib/avr-gcc/8/gcc/avr/8.5.0/../../../../../../avr/lib/avr5/crtatmega32u4.o
__vector_37                                       /usr/local/Cellar/avr-gcc@8/8.5.0/lib/avr-gcc/8/gcc/avr/8.5.0/../../../../../../avr/lib/avr5/crtatmega32u4.o
__vector_38                                       /usr/local/Cellar/avr-gcc@8/8.5.0/lib/avr-gcc/8/gcc/avr/8.5.0/../../../../../../avr/lib/avr5/crtatmega32u4.o
__vector_39                                       /usr/local/Cellar/avr-gcc@8/8.5.0/lib/avr-gcc/8/gcc/avr/8.5.0/../../../../../../avr/lib/avr5/crtatmega32u4.o
__vector_4                                        /usr/local/Cellar/avr-gcc@8/8.5.0/lib/avr-gcc/8/gcc/avr/8.5.0/../../../../../../avr/lib/avr5/crtatmega32u4.o
__vector_40                                       /usr/local/Cellar/avr-gcc@8/8.5.0/lib/avr-gcc/8/gcc/avr/8.5.0/../../../../../../avr/lib/avr5/crtatmega32u4.o
__vector_41                                       /usr/local/Cellar/avr-gcc@8/8.5.0/lib/avr-gcc/8/gcc/avr/8.5.0/../../../../../../avr/lib/avr5/crtatmega32u4.o
__vector_42                                       /usr/local/Cellar/avr-gcc@8/8.5.0/lib/avr-gcc/8/gcc/avr/8.5.0/../../../../../../avr/lib/avr5/crtatmega32u4.o
__vector_5                                        /usr/local/Cellar/avr-gcc@8/8.5.0/lib/avr-gcc/8/gcc/avr/8.5.0/../../../../../../avr/lib/avr5/crtatmega32u4.o
__vector_6                                        /usr/local/Cellar/avr-gcc@8/8.5.0/lib/avr-gcc/8/gcc/avr/8.5.0/../../../../../../avr/lib/avr5/crtatmega32u4.o
__vector_7                                        /usr/local/Cellar/avr-gcc@8/8.5.0/lib/avr-gcc/8/gcc/avr/8.5.0/../../../../../../avr/lib/avr5/crtatmega32u4.o
__vector_8                                        /usr/local/Cellar/avr-gcc@8/8.5.0/lib/avr-gcc/8/gcc/avr/8.5.0/../../../../../../avr/lib/avr5/crtatmega32u4.o
__vector_9                                        /usr/local/Cellar/avr-gcc@8/8.5.0/lib/avr-gcc/8/gcc/avr/8.5.0/../../../../../../avr/lib/avr5/crtatmega32u4.o
__vector_default                                  /usr/local/Cellar/avr-gcc@8/8.5.0/lib/avr-gcc/8/gcc/avr/8.5.0/../../../../../../avr/lib/avr5/crtatmega32u4.o
__vectors                                         /usr/local/Cellar/avr-gcc@8/8.5.0/lib/avr-gcc/8/gcc/avr/8.5.0/../../../../../../avr/lib/avr5/crtatmega32u4.o
__xprintf                                         .build/obj_xwhatsit_ibm_beamal_test_universal_alec/platforms/avr/xprintf.o
                                                  .build/obj_xwhatsit_ibm_beamal_test_universal_alec/protocol/report.o
                                                  .build/obj_xwhatsit_ibm_beamal_test_universal_alec/protocol/host.o
                                                  .build/obj_xwhatsit_ibm_beamal_test_universal_alec/quantum/haptic.o
                                                  .build/obj_xwhatsit_ibm_beamal_test_universal_alec/quantum/process_keycode/process_dynamic_macro.o
                                                  .build/obj_xwhatsit_ibm_beamal_test_universal_alec/quantum/process_keycode/process_unicode_common.o
                                                  .build/obj_xwhatsit_ibm_beamal_test_universal_alec/quantum/matrix_common.o
                                                  .build/obj_xwhatsit_ibm_beamal_test_universal_alec/quantum/action_util.o
                                                  .build/obj_xwhatsit_ibm_beamal_test_universal_alec/quantum/led.o
                                                  .build/obj_xwhatsit_ibm_beamal_test_universal_alec/quantum/keymap_introspection.o
                                                  .build/obj_xwhatsit_ibm_beamal_test_universal_alec/keyboards/xwhatsit/matrix.o
_div                                              /usr/local/Cellar/avr-gcc@8/8.5.0/lib/avr-gcc/8/gcc/avr/8.5.0/avr5/libgcc.a(_divmodhi4.o)
_end                                              .build/obj_xwhatsit_ibm_beamal_test_universal_alec/keyboards/xwhatsit/xwhatsit.o
_exit                                             /usr/local/Cellar/avr-gcc@8/8.5.0/lib/avr-gcc/8/gcc/avr/8.5.0/avr5/libgcc.a(_exit.o)
action_exec                                       .build/obj_xwhatsit_ibm_beamal_test_universal_alec/quantum/action.o
                                                  .build/obj_xwhatsit_ibm_beamal_test_universal_alec/quantum/keyboard.o
action_for_key                                    .build/obj_xwhatsit_ibm_beamal_test_universal_alec/quantum/keymap_common.o
                                                  .build/obj_xwhatsit_ibm_beamal_test_universal_alec/quantum/action_layer.o
action_for_keycode                                .build/obj_xwhatsit_ibm_beamal_test_universal_alec/quantum/keymap_common.o
action_tapping_process                            .build/obj_xwhatsit_ibm_beamal_test_universal_alec/quantum/action_tapping.o
                                                  .build/obj_xwhatsit_ibm_beamal_test_universal_alec/quantum/action.o
add_key                                           .build/obj_xwhatsit_ibm_beamal_test_universal_alec/quantum/action_util.o
                                                  .build/obj_xwhatsit_ibm_beamal_test_universal_alec/quantum/process_keycode/process_grave_esc.o
                                                  .build/obj_xwhatsit_ibm_beamal_test_universal_alec/quantum/action.o
add_key_bit                                       .build/obj_xwhatsit_ibm_beamal_test_universal_alec/protocol/report.o
add_key_byte                                      .build/obj_xwhatsit_ibm_beamal_test_universal_alec/protocol/report.o
add_key_to_report                                 .build/obj_xwhatsit_ibm_beamal_test_universal_alec/protocol/report.o
                                                  .build/obj_xwhatsit_ibm_beamal_test_universal_alec/quantum/action_util.o
add_mods                                          .build/obj_xwhatsit_ibm_beamal_test_universal_alec/quantum/action_util.o
                                                  .build/obj_xwhatsit_ibm_beamal_test_universal_alec/quantum/action.o
add_oneshot_mods                                  .build/obj_xwhatsit_ibm_beamal_test_universal_alec/quantum/action_util.o
add_weak_mods                                     .build/obj_xwhatsit_ibm_beamal_test_universal_alec/quantum/action_util.o
                                                  .build/obj_xwhatsit_ibm_beamal_test_universal_alec/quantum/action.o
ascii_to_altgr_lut                                .build/obj_xwhatsit_ibm_beamal_test_universal_alec/quantum/send_string/send_string.o
ascii_to_dead_lut                                 .build/obj_xwhatsit_ibm_beamal_test_universal_alec/quantum/send_string/send_string.o
ascii_to_keycode_lut                              .build/obj_xwhatsit_ibm_beamal_test_universal_alec/quantum/send_string/send_string.o
ascii_to_shift_lut                                .build/obj_xwhatsit_ibm_beamal_test_universal_alec/quantum/send_string/send_string.o
assigned_to_threshold                             .build/obj_xwhatsit_ibm_beamal_test_universal_alec/keyboards/xwhatsit/matrix.o
                                                  .build/obj_xwhatsit_ibm_beamal_test_universal_alec/keyboards/xwhatsit/util_comm.o
biton                                             .build/obj_xwhatsit_ibm_beamal_test_universal_alec/quantum/bitwise.o
                                                  .build/obj_xwhatsit_ibm_beamal_test_universal_alec/protocol/report.o
biton16                                           .build/obj_xwhatsit_ibm_beamal_test_universal_alec/quantum/bitwise.o
biton32                                           .build/obj_xwhatsit_ibm_beamal_test_universal_alec/quantum/bitwise.o
bitpop                                            .build/obj_xwhatsit_ibm_beamal_test_universal_alec/quantum/bitwise.o
                                                  .build/obj_xwhatsit_ibm_beamal_test_universal_alec/quantum/action_util.o
bitpop16                                          .build/obj_xwhatsit_ibm_beamal_test_universal_alec/quantum/bitwise.o
bitpop32                                          .build/obj_xwhatsit_ibm_beamal_test_universal_alec/quantum/bitwise.o
bitrev                                            .build/obj_xwhatsit_ibm_beamal_test_universal_alec/quantum/bitwise.o
bitrev16                                          .build/obj_xwhatsit_ibm_beamal_test_universal_alec/quantum/bitwise.o
                                                  .build/obj_xwhatsit_ibm_beamal_test_universal_alec/quantum/matrix_common.o
bitrev32                                          .build/obj_xwhatsit_ibm_beamal_test_universal_alec/quantum/bitwise.o
bootloader_jump                                   .build/obj_xwhatsit_ibm_beamal_test_universal_alec/platforms/avr/bootloaders/caterina.o
                                                  .build/obj_xwhatsit_ibm_beamal_test_universal_alec/quantum/bootmagic/bootmagic_lite.o
                                                  .build/obj_xwhatsit_ibm_beamal_test_universal_alec/quantum/quantum.o
                                                  .build/obj_xwhatsit_ibm_beamal_test_universal_alec/keyboards/xwhatsit/util_comm.o
bootmagic                                         .build/obj_xwhatsit_ibm_beamal_test_universal_alec/quantum/bootmagic/bootmagic_lite.o
bootmagic_lite                                    .build/obj_xwhatsit_ibm_beamal_test_universal_alec/quantum/bootmagic/bootmagic_lite.o
bootmagic_lite_reset_eeprom                       .build/obj_xwhatsit_ibm_beamal_test_universal_alec/quantum/bootmagic/bootmagic_lite.o
cal_stats_printed                                 .build/obj_xwhatsit_ibm_beamal_test_universal_alec/keyboards/xwhatsit/matrix.o
cal_thresholds                                    .build/obj_xwhatsit_ibm_beamal_test_universal_alec/keyboards/xwhatsit/matrix.o
                                                  .build/obj_xwhatsit_ibm_beamal_test_universal_alec/keyboards/xwhatsit/util_comm.o
cal_time                                          .build/obj_xwhatsit_ibm_beamal_test_universal_alec/keyboards/xwhatsit/matrix.o
cal_tr_allone                                     .build/obj_xwhatsit_ibm_beamal_test_universal_alec/keyboards/xwhatsit/matrix.o
cal_tr_allzero                                    .build/obj_xwhatsit_ibm_beamal_test_universal_alec/keyboards/xwhatsit/matrix.o
calibration                                       .build/obj_xwhatsit_ibm_beamal_test_universal_alec/keyboards/xwhatsit/matrix.o
calibration_measure_all_valid_keys                .build/obj_xwhatsit_ibm_beamal_test_universal_alec/keyboards/xwhatsit/matrix.o
clear_keyboard                                    .build/obj_xwhatsit_ibm_beamal_test_universal_alec/quantum/action.o
                                                  .build/obj_xwhatsit_ibm_beamal_test_universal_alec/lufa.o
                                                  .build/obj_xwhatsit_ibm_beamal_test_universal_alec/platforms/avr/suspend.o
                                                  .build/obj_xwhatsit_ibm_beamal_test_universal_alec/quantum/process_keycode/process_dynamic_macro.o
                                                  .build/obj_xwhatsit_ibm_beamal_test_universal_alec/quantum/process_keycode/process_magic.o
                                                  .build/obj_xwhatsit_ibm_beamal_test_universal_alec/quantum/action_tapping.o
                                                  .build/obj_xwhatsit_ibm_beamal_test_universal_alec/quantum/quantum.o
clear_keyboard_but_mods                           .build/obj_xwhatsit_ibm_beamal_test_universal_alec/quantum/action.o
clear_keyboard_but_mods_and_keys                  .build/obj_xwhatsit_ibm_beamal_test_universal_alec/quantum/action.o
                                                  .build/obj_xwhatsit_ibm_beamal_test_universal_alec/quantum/action_layer.o
clear_keys                                        .build/obj_xwhatsit_ibm_beamal_test_universal_alec/quantum/action_util.o
                                                  .build/obj_xwhatsit_ibm_beamal_test_universal_alec/quantum/action.o
clear_keys_from_report                            .build/obj_xwhatsit_ibm_beamal_test_universal_alec/protocol/report.o
                                                  .build/obj_xwhatsit_ibm_beamal_test_universal_alec/quantum/action_util.o
clear_mods                                        .build/obj_xwhatsit_ibm_beamal_test_universal_alec/quantum/action_util.o
                                                  .build/obj_xwhatsit_ibm_beamal_test_universal_alec/quantum/process_keycode/process_unicode_common.o
                                                  .build/obj_xwhatsit_ibm_beamal_test_universal_alec/quantum/action.o
clear_oneshot_layer_state                         .build/obj_xwhatsit_ibm_beamal_test_universal_alec/quantum/action_util.o
                                                  .build/obj_xwhatsit_ibm_beamal_test_universal_alec/quantum/action.o
clear_oneshot_locked_mods                         .build/obj_xwhatsit_ibm_beamal_test_universal_alec/quantum/action_util.o
clear_oneshot_mods                                .build/obj_xwhatsit_ibm_beamal_test_universal_alec/quantum/action_util.o
                                                  .build/obj_xwhatsit_ibm_beamal_test_universal_alec/quantum/action.o
clear_weak_mods                                   .build/obj_xwhatsit_ibm_beamal_test_universal_alec/quantum/action_util.o
                                                  .build/obj_xwhatsit_ibm_beamal_test_universal_alec/quantum/process_keycode/process_unicode_common.o
                                                  .build/obj_xwhatsit_ibm_beamal_test_universal_alec/quantum/action.o
cycle_unicode_input_mode                          .build/obj_xwhatsit_ibm_beamal_test_universal_alec/quantum/process_keycode/process_unicode_common.o
dac_init                                          .build/obj_xwhatsit_ibm_beamal_test_universal_alec/keyboards/xwhatsit/matrix.o
dac_write_threshold                               .build/obj_xwhatsit_ibm_beamal_test_universal_alec/keyboards/xwhatsit/matrix.o
                                                  .build/obj_xwhatsit_ibm_beamal_test_universal_alec/keyboards/xwhatsit/util_comm.o
debounce                                          .build/obj_xwhatsit_ibm_beamal_test_universal_alec/quantum/debounce/sym_defer_g.o
                                                  .build/obj_xwhatsit_ibm_beamal_test_universal_alec/quantum/matrix_common.o
debounce_free                                     .build/obj_xwhatsit_ibm_beamal_test_universal_alec/quantum/debounce/sym_defer_g.o
debounce_init                                     .build/obj_xwhatsit_ibm_beamal_test_universal_alec/quantum/debounce/sym_defer_g.o
                                                  .build/obj_xwhatsit_ibm_beamal_test_universal_alec/quantum/matrix_common.o
debug_action                                      .build/obj_xwhatsit_ibm_beamal_test_universal_alec/quantum/action.o
debug_config                                      .build/obj_xwhatsit_ibm_beamal_test_universal_alec/quantum/logging/debug.o
                                                  .build/obj_xwhatsit_ibm_beamal_test_universal_alec/protocol/report.o
                                                  .build/obj_xwhatsit_ibm_beamal_test_universal_alec/protocol/host.o
                                                  .build/obj_xwhatsit_ibm_beamal_test_universal_alec/quantum/haptic.o
                                                  .build/obj_xwhatsit_ibm_beamal_test_universal_alec/quantum/process_keycode/process_dynamic_macro.o
                                                  .build/obj_xwhatsit_ibm_beamal_test_universal_alec/quantum/process_keycode/process_unicode_common.o
                                                  .build/obj_xwhatsit_ibm_beamal_test_universal_alec/quantum/bootmagic/magic.o
                                                  .build/obj_xwhatsit_ibm_beamal_test_universal_alec/quantum/keyboard.o
                                                  .build/obj_xwhatsit_ibm_beamal_test_universal_alec/quantum/action_util.o
                                                  .build/obj_xwhatsit_ibm_beamal_test_universal_alec/quantum/led.o
                                                  .build/obj_xwhatsit_ibm_beamal_test_universal_alec/quantum/quantum.o
debug_event                                       .build/obj_xwhatsit_ibm_beamal_test_universal_alec/quantum/action.o
                                                  .build/obj_xwhatsit_ibm_beamal_test_universal_alec/quantum/action_tapping.o
debug_record                                      .build/obj_xwhatsit_ibm_beamal_test_universal_alec/quantum/action.o
                                                  .build/obj_xwhatsit_ibm_beamal_test_universal_alec/quantum/action_tapping.o
decode_utf8                                       .build/obj_xwhatsit_ibm_beamal_test_universal_alec/quantum/utf8.o
                                                  .build/obj_xwhatsit_ibm_beamal_test_universal_alec/quantum/process_keycode/process_unicode_common.o
default_layer_and                                 .build/obj_xwhatsit_ibm_beamal_test_universal_alec/quantum/action_layer.o
                                                  .build/obj_xwhatsit_ibm_beamal_test_universal_alec/quantum/action.o
default_layer_debug                               .build/obj_xwhatsit_ibm_beamal_test_universal_alec/quantum/action_layer.o
                                                  .build/obj_xwhatsit_ibm_beamal_test_universal_alec/quantum/action.o
default_layer_or                                  .build/obj_xwhatsit_ibm_beamal_test_universal_alec/quantum/action_layer.o
                                                  .build/obj_xwhatsit_ibm_beamal_test_universal_alec/quantum/action.o
default_layer_set                                 .build/obj_xwhatsit_ibm_beamal_test_universal_alec/quantum/action_layer.o
                                                  .build/obj_xwhatsit_ibm_beamal_test_universal_alec/quantum/bootmagic/magic.o
                                                  .build/obj_xwhatsit_ibm_beamal_test_universal_alec/quantum/action.o
                                                  .build/obj_xwhatsit_ibm_beamal_test_universal_alec/quantum/quantum.o
default_layer_state                               .build/obj_xwhatsit_ibm_beamal_test_universal_alec/quantum/action_layer.o
                                                  .build/obj_xwhatsit_ibm_beamal_test_universal_alec/quantum/eeconfig.o
default_layer_state_set_kb                        .build/obj_xwhatsit_ibm_beamal_test_universal_alec/quantum/action_layer.o
default_layer_state_set_user                      .build/obj_xwhatsit_ibm_beamal_test_universal_alec/quantum/action_layer.o
default_layer_xor                                 .build/obj_xwhatsit_ibm_beamal_test_universal_alec/quantum/action_layer.o
                                                  .build/obj_xwhatsit_ibm_beamal_test_universal_alec/quantum/action.o
del_key                                           .build/obj_xwhatsit_ibm_beamal_test_universal_alec/quantum/action_util.o
                                                  .build/obj_xwhatsit_ibm_beamal_test_universal_alec/quantum/process_keycode/process_grave_esc.o
                                                  .build/obj_xwhatsit_ibm_beamal_test_universal_alec/quantum/action.o
del_key_bit                                       .build/obj_xwhatsit_ibm_beamal_test_universal_alec/protocol/report.o
del_key_byte                                      .build/obj_xwhatsit_ibm_beamal_test_universal_alec/protocol/report.o
del_key_from_report                               .build/obj_xwhatsit_ibm_beamal_test_universal_alec/protocol/report.o
                                                  .build/obj_xwhatsit_ibm_beamal_test_universal_alec/quantum/action_util.o
del_mods                                          .build/obj_xwhatsit_ibm_beamal_test_universal_alec/quantum/action_util.o
                                                  .build/obj_xwhatsit_ibm_beamal_test_universal_alec/quantum/action.o
del_oneshot_mods                                  .build/obj_xwhatsit_ibm_beamal_test_universal_alec/quantum/action_util.o
del_weak_mods                                     .build/obj_xwhatsit_ibm_beamal_test_universal_alec/quantum/action_util.o
                                                  .build/obj_xwhatsit_ibm_beamal_test_universal_alec/quantum/action.o
disable_action_cache                              .build/obj_xwhatsit_ibm_beamal_test_universal_alec/quantum/action.o
                                                  .build/obj_xwhatsit_ibm_beamal_test_universal_alec/quantum/action_layer.o
                                                  .build/obj_xwhatsit_ibm_beamal_test_universal_alec/quantum/quantum.o
do_code16                                         .build/obj_xwhatsit_ibm_beamal_test_universal_alec/quantum/quantum.o
dynamic_macro_led_blink                           .build/obj_xwhatsit_ibm_beamal_test_universal_alec/quantum/process_keycode/process_dynamic_macro.o
dynamic_macro_play                                .build/obj_xwhatsit_ibm_beamal_test_universal_alec/quantum/process_keycode/process_dynamic_macro.o
dynamic_macro_play_user                           .build/obj_xwhatsit_ibm_beamal_test_universal_alec/quantum/process_keycode/process_dynamic_macro.o
dynamic_macro_record_end                          .build/obj_xwhatsit_ibm_beamal_test_universal_alec/quantum/process_keycode/process_dynamic_macro.o
dynamic_macro_record_end_user                     .build/obj_xwhatsit_ibm_beamal_test_universal_alec/quantum/process_keycode/process_dynamic_macro.o
dynamic_macro_record_key                          .build/obj_xwhatsit_ibm_beamal_test_universal_alec/quantum/process_keycode/process_dynamic_macro.o
dynamic_macro_record_key_user                     .build/obj_xwhatsit_ibm_beamal_test_universal_alec/quantum/process_keycode/process_dynamic_macro.o
dynamic_macro_record_start                        .build/obj_xwhatsit_ibm_beamal_test_universal_alec/quantum/process_keycode/process_dynamic_macro.o
dynamic_macro_record_start_user                   .build/obj_xwhatsit_ibm_beamal_test_universal_alec/quantum/process_keycode/process_dynamic_macro.o
eeconfig_debug_haptic                             .build/obj_xwhatsit_ibm_beamal_test_universal_alec/quantum/haptic.o
eeconfig_disable                                  .build/obj_xwhatsit_ibm_beamal_test_universal_alec/quantum/eeconfig.o
                                                  .build/obj_xwhatsit_ibm_beamal_test_universal_alec/quantum/bootmagic/bootmagic_lite.o
eeconfig_enable                                   .build/obj_xwhatsit_ibm_beamal_test_universal_alec/quantum/eeconfig.o
eeconfig_init                                     .build/obj_xwhatsit_ibm_beamal_test_universal_alec/quantum/eeconfig.o
                                                  .build/obj_xwhatsit_ibm_beamal_test_universal_alec/quantum/haptic.o
                                                  .build/obj_xwhatsit_ibm_beamal_test_universal_alec/quantum/bootmagic/magic.o
                                                  .build/obj_xwhatsit_ibm_beamal_test_universal_alec/quantum/quantum.o
eeconfig_init_kb                                  .build/obj_xwhatsit_ibm_beamal_test_universal_alec/quantum/eeconfig.o
eeconfig_init_quantum                             .build/obj_xwhatsit_ibm_beamal_test_universal_alec/quantum/eeconfig.o
eeconfig_init_user                                .build/obj_xwhatsit_ibm_beamal_test_universal_alec/quantum/eeconfig.o
eeconfig_is_disabled                              .build/obj_xwhatsit_ibm_beamal_test_universal_alec/quantum/eeconfig.o
eeconfig_is_enabled                               .build/obj_xwhatsit_ibm_beamal_test_universal_alec/quantum/eeconfig.o
                                                  .build/obj_xwhatsit_ibm_beamal_test_universal_alec/quantum/haptic.o
                                                  .build/obj_xwhatsit_ibm_beamal_test_universal_alec/quantum/bootmagic/magic.o
eeconfig_read_audio                               .build/obj_xwhatsit_ibm_beamal_test_universal_alec/quantum/eeconfig.o
eeconfig_read_debug                               .build/obj_xwhatsit_ibm_beamal_test_universal_alec/quantum/eeconfig.o
                                                  .build/obj_xwhatsit_ibm_beamal_test_universal_alec/quantum/bootmagic/magic.o
eeconfig_read_default_layer                       .build/obj_xwhatsit_ibm_beamal_test_universal_alec/quantum/eeconfig.o
                                                  .build/obj_xwhatsit_ibm_beamal_test_universal_alec/quantum/bootmagic/magic.o
eeconfig_read_handedness                          .build/obj_xwhatsit_ibm_beamal_test_universal_alec/quantum/eeconfig.o
eeconfig_read_haptic                              .build/obj_xwhatsit_ibm_beamal_test_universal_alec/quantum/eeconfig.o
                                                  .build/obj_xwhatsit_ibm_beamal_test_universal_alec/quantum/haptic.o
eeconfig_read_kb                                  .build/obj_xwhatsit_ibm_beamal_test_universal_alec/quantum/eeconfig.o
eeconfig_read_keymap                              .build/obj_xwhatsit_ibm_beamal_test_universal_alec/quantum/eeconfig.o
                                                  .build/obj_xwhatsit_ibm_beamal_test_universal_alec/quantum/process_keycode/process_magic.o
                                                  .build/obj_xwhatsit_ibm_beamal_test_universal_alec/quantum/bootmagic/magic.o
eeconfig_read_user                                .build/obj_xwhatsit_ibm_beamal_test_universal_alec/quantum/eeconfig.o
eeconfig_update_audio                             .build/obj_xwhatsit_ibm_beamal_test_universal_alec/quantum/eeconfig.o
eeconfig_update_debug                             .build/obj_xwhatsit_ibm_beamal_test_universal_alec/quantum/eeconfig.o
eeconfig_update_default_layer                     .build/obj_xwhatsit_ibm_beamal_test_universal_alec/quantum/eeconfig.o
                                                  .build/obj_xwhatsit_ibm_beamal_test_universal_alec/quantum/quantum.o
eeconfig_update_handedness                        .build/obj_xwhatsit_ibm_beamal_test_universal_alec/quantum/eeconfig.o
                                                  .build/obj_xwhatsit_ibm_beamal_test_universal_alec/quantum/process_keycode/process_magic.o
eeconfig_update_haptic                            .build/obj_xwhatsit_ibm_beamal_test_universal_alec/quantum/eeconfig.o
                                                  .build/obj_xwhatsit_ibm_beamal_test_universal_alec/quantum/haptic.o
eeconfig_update_kb                                .build/obj_xwhatsit_ibm_beamal_test_universal_alec/quantum/eeconfig.o
eeconfig_update_keymap                            .build/obj_xwhatsit_ibm_beamal_test_universal_alec/quantum/eeconfig.o
                                                  .build/obj_xwhatsit_ibm_beamal_test_universal_alec/quantum/process_keycode/process_magic.o
                                                  .build/obj_xwhatsit_ibm_beamal_test_universal_alec/quantum/action_util.o
eeconfig_update_user                              .build/obj_xwhatsit_ibm_beamal_test_universal_alec/quantum/eeconfig.o
eeprom_read_block                                 /usr/local/Cellar/avr-gcc@8/8.5.0/lib/avr-gcc/8/gcc/avr/8.5.0/../../../../../../avr/lib/avr5/libatmega32u4.a(eerd_block.o)
eeprom_read_blraw                                 /usr/local/Cellar/avr-gcc@8/8.5.0/lib/avr-gcc/8/gcc/avr/8.5.0/../../../../../../avr/lib/avr5/libatmega32u4.a(eerd_block.o)
                                                  /usr/local/Cellar/avr-gcc@8/8.5.0/lib/avr-gcc/8/gcc/avr/8.5.0/../../../../../../avr/lib/avr5/libatmega32u4.a(eerd_word.o)
                                                  /usr/local/Cellar/avr-gcc@8/8.5.0/lib/avr-gcc/8/gcc/avr/8.5.0/../../../../../../avr/lib/avr5/libatmega32u4.a(eerd_dword.o)
eeprom_read_byte                                  /usr/local/Cellar/avr-gcc@8/8.5.0/lib/avr-gcc/8/gcc/avr/8.5.0/../../../../../../avr/lib/avr5/libatmega32u4.a(eerd_byte.o)
                                                  .build/obj_xwhatsit_ibm_beamal_test_universal_alec/lib/lufa/LUFA/Drivers/USB/Core/AVR8/EndpointStream_AVR8.o
                                                  .build/obj_xwhatsit_ibm_beamal_test_universal_alec/quantum/process_keycode/process_unicode_common.o
                                                  .build/obj_xwhatsit_ibm_beamal_test_universal_alec/quantum/eeconfig.o
eeprom_read_dword                                 /usr/local/Cellar/avr-gcc@8/8.5.0/lib/avr-gcc/8/gcc/avr/8.5.0/../../../../../../avr/lib/avr5/libatmega32u4.a(eerd_dword.o)
                                                  .build/obj_xwhatsit_ibm_beamal_test_universal_alec/quantum/eeconfig.o
eeprom_read_float                                 /usr/local/Cellar/avr-gcc@8/8.5.0/lib/avr-gcc/8/gcc/avr/8.5.0/../../../../../../avr/lib/avr5/libatmega32u4.a(eerd_dword.o)
eeprom_read_word                                  /usr/local/Cellar/avr-gcc@8/8.5.0/lib/avr-gcc/8/gcc/avr/8.5.0/../../../../../../avr/lib/avr5/libatmega32u4.a(eerd_word.o)
                                                  .build/obj_xwhatsit_ibm_beamal_test_universal_alec/quantum/eeconfig.o
eeprom_update_byte                                /usr/local/Cellar/avr-gcc@8/8.5.0/lib/avr-gcc/8/gcc/avr/8.5.0/../../../../../../avr/lib/avr5/libatmega32u4.a(eeupd_byte.o)
                                                  /usr/local/Cellar/avr-gcc@8/8.5.0/lib/avr-gcc/8/gcc/avr/8.5.0/../../../../../../avr/lib/avr5/libatmega32u4.a(eeupd_word.o)
                                                  /usr/local/Cellar/avr-gcc@8/8.5.0/lib/avr-gcc/8/gcc/avr/8.5.0/../../../../../../avr/lib/avr5/libatmega32u4.a(eeupd_dword.o)
                                                  .build/obj_xwhatsit_ibm_beamal_test_universal_alec/lib/lufa/LUFA/Drivers/USB/Core/AVR8/EndpointStream_AVR8.o
                                                  .build/obj_xwhatsit_ibm_beamal_test_universal_alec/quantum/process_keycode/process_unicode_common.o
                                                  .build/obj_xwhatsit_ibm_beamal_test_universal_alec/quantum/eeconfig.o
                                                  .build/obj_xwhatsit_ibm_beamal_test_universal_alec/keyboards/xwhatsit/util_comm.o
eeprom_update_dword                               /usr/local/Cellar/avr-gcc@8/8.5.0/lib/avr-gcc/8/gcc/avr/8.5.0/../../../../../../avr/lib/avr5/libatmega32u4.a(eeupd_dword.o)
                                                  .build/obj_xwhatsit_ibm_beamal_test_universal_alec/quantum/eeconfig.o
eeprom_update_float                               /usr/local/Cellar/avr-gcc@8/8.5.0/lib/avr-gcc/8/gcc/avr/8.5.0/../../../../../../avr/lib/avr5/libatmega32u4.a(eeupd_dword.o)
eeprom_update_r18                                 /usr/local/Cellar/avr-gcc@8/8.5.0/lib/avr-gcc/8/gcc/avr/8.5.0/../../../../../../avr/lib/avr5/libatmega32u4.a(eeupd_byte.o)
                                                  /usr/local/Cellar/avr-gcc@8/8.5.0/lib/avr-gcc/8/gcc/avr/8.5.0/../../../../../../avr/lib/avr5/libatmega32u4.a(eeupd_word.o)
                                                  /usr/local/Cellar/avr-gcc@8/8.5.0/lib/avr-gcc/8/gcc/avr/8.5.0/../../../../../../avr/lib/avr5/libatmega32u4.a(eeupd_dword.o)
eeprom_update_word                                /usr/local/Cellar/avr-gcc@8/8.5.0/lib/avr-gcc/8/gcc/avr/8.5.0/../../../../../../avr/lib/avr5/libatmega32u4.a(eeupd_word.o)
                                                  .build/obj_xwhatsit_ibm_beamal_test_universal_alec/quantum/eeconfig.o
exit                                              /usr/local/Cellar/avr-gcc@8/8.5.0/lib/avr-gcc/8/gcc/avr/8.5.0/avr5/libgcc.a(_exit.o)
                                                  /usr/local/Cellar/avr-gcc@8/8.5.0/lib/avr-gcc/8/gcc/avr/8.5.0/../../../../../../avr/lib/avr5/crtatmega32u4.o
extract_mod_bits                                  .build/obj_xwhatsit_ibm_beamal_test_universal_alec/quantum/quantum.o
get_event_keycode                                 .build/obj_xwhatsit_ibm_beamal_test_universal_alec/quantum/quantum.o
get_first_key                                     .build/obj_xwhatsit_ibm_beamal_test_universal_alec/protocol/report.o
get_haptic_enabled_key                            .build/obj_xwhatsit_ibm_beamal_test_universal_alec/quantum/process_keycode/process_haptic.o
get_hardware_id                                   .build/obj_xwhatsit_ibm_beamal_test_universal_alec/platforms/avr/hardware_id.o
get_mods                                          .build/obj_xwhatsit_ibm_beamal_test_universal_alec/quantum/action_util.o
                                                  .build/obj_xwhatsit_ibm_beamal_test_universal_alec/quantum/process_keycode/process_grave_esc.o
                                                  .build/obj_xwhatsit_ibm_beamal_test_universal_alec/quantum/process_keycode/process_unicode_common.o
                                                  .build/obj_xwhatsit_ibm_beamal_test_universal_alec/quantum/action.o
get_numeric_str                                   .build/obj_xwhatsit_ibm_beamal_test_universal_alec/quantum/quantum.o
get_oneshot_layer                                 .build/obj_xwhatsit_ibm_beamal_test_universal_alec/quantum/action_util.o
                                                  .build/obj_xwhatsit_ibm_beamal_test_universal_alec/quantum/action.o
get_oneshot_layer_state                           .build/obj_xwhatsit_ibm_beamal_test_universal_alec/quantum/action_util.o
                                                  .build/obj_xwhatsit_ibm_beamal_test_universal_alec/quantum/action.o
get_oneshot_locked_mods                           .build/obj_xwhatsit_ibm_beamal_test_universal_alec/quantum/action_util.o
                                                  .build/obj_xwhatsit_ibm_beamal_test_universal_alec/quantum/action.o
get_oneshot_mods                                  .build/obj_xwhatsit_ibm_beamal_test_universal_alec/quantum/action_util.o
                                                  .build/obj_xwhatsit_ibm_beamal_test_universal_alec/quantum/action.o
get_record_keycode                                .build/obj_xwhatsit_ibm_beamal_test_universal_alec/quantum/quantum.o
get_u16_str                                       .build/obj_xwhatsit_ibm_beamal_test_universal_alec/quantum/quantum.o
get_u8_str                                        .build/obj_xwhatsit_ibm_beamal_test_universal_alec/quantum/quantum.o
get_unicode_input_mode                            .build/obj_xwhatsit_ibm_beamal_test_universal_alec/quantum/process_keycode/process_unicode_common.o
get_usb_descriptor                                .build/obj_xwhatsit_ibm_beamal_test_universal_alec/usb_descriptor.o
                                                  .build/obj_xwhatsit_ibm_beamal_test_universal_alec/lufa.o
get_weak_mods                                     .build/obj_xwhatsit_ibm_beamal_test_universal_alec/quantum/action_util.o
haptic_buzz_toggle                                .build/obj_xwhatsit_ibm_beamal_test_universal_alec/quantum/haptic.o
                                                  .build/obj_xwhatsit_ibm_beamal_test_universal_alec/quantum/process_keycode/process_haptic.o
haptic_config                                     .build/obj_xwhatsit_ibm_beamal_test_universal_alec/quantum/haptic.o
                                                  .build/obj_xwhatsit_ibm_beamal_test_universal_alec/solenoid.o
haptic_cont_decrease                              .build/obj_xwhatsit_ibm_beamal_test_universal_alec/quantum/haptic.o
                                                  .build/obj_xwhatsit_ibm_beamal_test_universal_alec/quantum/process_keycode/process_haptic.o
haptic_cont_increase                              .build/obj_xwhatsit_ibm_beamal_test_universal_alec/quantum/haptic.o
                                                  .build/obj_xwhatsit_ibm_beamal_test_universal_alec/quantum/process_keycode/process_haptic.o
haptic_disable                                    .build/obj_xwhatsit_ibm_beamal_test_universal_alec/quantum/haptic.o
                                                  .build/obj_xwhatsit_ibm_beamal_test_universal_alec/quantum/process_keycode/process_haptic.o
haptic_disable_continuous                         .build/obj_xwhatsit_ibm_beamal_test_universal_alec/quantum/haptic.o
haptic_dwell_decrease                             .build/obj_xwhatsit_ibm_beamal_test_universal_alec/quantum/haptic.o
                                                  .build/obj_xwhatsit_ibm_beamal_test_universal_alec/quantum/process_keycode/process_haptic.o
haptic_dwell_increase                             .build/obj_xwhatsit_ibm_beamal_test_universal_alec/quantum/haptic.o
                                                  .build/obj_xwhatsit_ibm_beamal_test_universal_alec/quantum/process_keycode/process_haptic.o
haptic_enable                                     .build/obj_xwhatsit_ibm_beamal_test_universal_alec/quantum/haptic.o
                                                  .build/obj_xwhatsit_ibm_beamal_test_universal_alec/quantum/process_keycode/process_haptic.o
haptic_enable_continuous                          .build/obj_xwhatsit_ibm_beamal_test_universal_alec/quantum/haptic.o
haptic_feedback_toggle                            .build/obj_xwhatsit_ibm_beamal_test_universal_alec/quantum/haptic.o
                                                  .build/obj_xwhatsit_ibm_beamal_test_universal_alec/quantum/process_keycode/process_haptic.o
haptic_get_dwell                                  .build/obj_xwhatsit_ibm_beamal_test_universal_alec/quantum/haptic.o
haptic_get_enable                                 .build/obj_xwhatsit_ibm_beamal_test_universal_alec/quantum/haptic.o
                                                  .build/obj_xwhatsit_ibm_beamal_test_universal_alec/quantum/process_keycode/process_haptic.o
haptic_get_feedback                               .build/obj_xwhatsit_ibm_beamal_test_universal_alec/quantum/haptic.o
                                                  .build/obj_xwhatsit_ibm_beamal_test_universal_alec/quantum/process_keycode/process_haptic.o
haptic_get_mode                                   .build/obj_xwhatsit_ibm_beamal_test_universal_alec/quantum/haptic.o
haptic_init                                       .build/obj_xwhatsit_ibm_beamal_test_universal_alec/quantum/haptic.o
                                                  .build/obj_xwhatsit_ibm_beamal_test_universal_alec/quantum/keyboard.o
haptic_mode_decrease                              .build/obj_xwhatsit_ibm_beamal_test_universal_alec/quantum/haptic.o
                                                  .build/obj_xwhatsit_ibm_beamal_test_universal_alec/quantum/process_keycode/process_haptic.o
haptic_mode_increase                              .build/obj_xwhatsit_ibm_beamal_test_universal_alec/quantum/haptic.o
                                                  .build/obj_xwhatsit_ibm_beamal_test_universal_alec/quantum/process_keycode/process_haptic.o
haptic_notify_usb_device_state_change             .build/obj_xwhatsit_ibm_beamal_test_universal_alec/quantum/haptic.o
                                                  .build/obj_xwhatsit_ibm_beamal_test_universal_alec/protocol/usb_device_state.o
haptic_play                                       .build/obj_xwhatsit_ibm_beamal_test_universal_alec/quantum/haptic.o
                                                  .build/obj_xwhatsit_ibm_beamal_test_universal_alec/quantum/process_keycode/process_haptic.o
haptic_reset                                      .build/obj_xwhatsit_ibm_beamal_test_universal_alec/quantum/haptic.o
                                                  .build/obj_xwhatsit_ibm_beamal_test_universal_alec/quantum/process_keycode/process_haptic.o
                                                  .build/obj_xwhatsit_ibm_beamal_test_universal_alec/quantum/eeconfig.o
haptic_set_amplitude                              .build/obj_xwhatsit_ibm_beamal_test_universal_alec/quantum/haptic.o
haptic_set_buzz                                   .build/obj_xwhatsit_ibm_beamal_test_universal_alec/quantum/haptic.o
                                                  .build/obj_xwhatsit_ibm_beamal_test_universal_alec/solenoid.o
haptic_set_dwell                                  .build/obj_xwhatsit_ibm_beamal_test_universal_alec/quantum/haptic.o
haptic_set_feedback                               .build/obj_xwhatsit_ibm_beamal_test_universal_alec/quantum/haptic.o
haptic_set_mode                                   .build/obj_xwhatsit_ibm_beamal_test_universal_alec/quantum/haptic.o
haptic_shutdown                                   .build/obj_xwhatsit_ibm_beamal_test_universal_alec/quantum/haptic.o
                                                  .build/obj_xwhatsit_ibm_beamal_test_universal_alec/quantum/quantum.o
haptic_task                                       .build/obj_xwhatsit_ibm_beamal_test_universal_alec/quantum/haptic.o
                                                  .build/obj_xwhatsit_ibm_beamal_test_universal_alec/quantum/keyboard.o
haptic_toggle                                     .build/obj_xwhatsit_ibm_beamal_test_universal_alec/quantum/haptic.o
                                                  .build/obj_xwhatsit_ibm_beamal_test_universal_alec/quantum/process_keycode/process_haptic.o
haptic_toggle_continuous                          .build/obj_xwhatsit_ibm_beamal_test_universal_alec/quantum/haptic.o
                                                  .build/obj_xwhatsit_ibm_beamal_test_universal_alec/quantum/process_keycode/process_haptic.o
has_anykey                                        .build/obj_xwhatsit_ibm_beamal_test_universal_alec/protocol/report.o
                                                  .build/obj_xwhatsit_ibm_beamal_test_universal_alec/quantum/action_util.o
has_anymod                                        .build/obj_xwhatsit_ibm_beamal_test_universal_alec/quantum/action_util.o
has_oneshot_layer_timed_out                       .build/obj_xwhatsit_ibm_beamal_test_universal_alec/quantum/action_util.o
                                                  .build/obj_xwhatsit_ibm_beamal_test_universal_alec/quantum/action.o
has_oneshot_mods_timed_out                        .build/obj_xwhatsit_ibm_beamal_test_universal_alec/quantum/action_util.o
                                                  .build/obj_xwhatsit_ibm_beamal_test_universal_alec/quantum/action.o
host_consumer_send                                .build/obj_xwhatsit_ibm_beamal_test_universal_alec/protocol/host.o
                                                  .build/obj_xwhatsit_ibm_beamal_test_universal_alec/quantum/action.o
host_digitizer_send                               .build/obj_xwhatsit_ibm_beamal_test_universal_alec/protocol/host.o
host_get_driver                                   .build/obj_xwhatsit_ibm_beamal_test_universal_alec/protocol/host.o
host_keyboard_led_state                           .build/obj_xwhatsit_ibm_beamal_test_universal_alec/protocol/host.o
                                                  .build/obj_xwhatsit_ibm_beamal_test_universal_alec/quantum/process_keycode/process_unicode_common.o
host_keyboard_leds                                .build/obj_xwhatsit_ibm_beamal_test_universal_alec/protocol/host.o
                                                  .build/obj_xwhatsit_ibm_beamal_test_universal_alec/quantum/action.o
                                                  .build/obj_xwhatsit_ibm_beamal_test_universal_alec/quantum/led.o
host_keyboard_send                                .build/obj_xwhatsit_ibm_beamal_test_universal_alec/protocol/host.o
                                                  .build/obj_xwhatsit_ibm_beamal_test_universal_alec/quantum/action_util.o
host_last_consumer_report                         .build/obj_xwhatsit_ibm_beamal_test_universal_alec/protocol/host.o
host_last_programmable_button_report              .build/obj_xwhatsit_ibm_beamal_test_universal_alec/protocol/host.o
host_last_system_report                           .build/obj_xwhatsit_ibm_beamal_test_universal_alec/protocol/host.o
host_mouse_send                                   .build/obj_xwhatsit_ibm_beamal_test_universal_alec/protocol/host.o
host_programmable_button_send                     .build/obj_xwhatsit_ibm_beamal_test_universal_alec/protocol/host.o
host_set_driver                                   .build/obj_xwhatsit_ibm_beamal_test_universal_alec/protocol/host.o
                                                  .build/obj_xwhatsit_ibm_beamal_test_universal_alec/lufa.o
host_system_send                                  .build/obj_xwhatsit_ibm_beamal_test_universal_alec/protocol/host.o
                                                  .build/obj_xwhatsit_ibm_beamal_test_universal_alec/quantum/action.o
housekeeping_task                                 .build/obj_xwhatsit_ibm_beamal_test_universal_alec/quantum/keyboard.o
                                                  .build/obj_xwhatsit_ibm_beamal_test_universal_alec/quantum/main.o
housekeeping_task_kb                              .build/obj_xwhatsit_ibm_beamal_test_universal_alec/quantum/keyboard.o
housekeeping_task_user                            .build/obj_xwhatsit_ibm_beamal_test_universal_alec/quantum/keyboard.o
initial_fp                                        .build/obj_xwhatsit_ibm_beamal_test_universal_alec/keyboards/xwhatsit/xwhatsit.o
is_key_pressed                                    .build/obj_xwhatsit_ibm_beamal_test_universal_alec/protocol/report.o
                                                  .build/obj_xwhatsit_ibm_beamal_test_universal_alec/quantum/action.o
is_keyboard_left                                  .build/obj_xwhatsit_ibm_beamal_test_universal_alec/quantum/keyboard.o
is_keyboard_master                                .build/obj_xwhatsit_ibm_beamal_test_universal_alec/quantum/keyboard.o
is_oneshot_enabled                                .build/obj_xwhatsit_ibm_beamal_test_universal_alec/quantum/action_util.o
is_oneshot_layer_active                           .build/obj_xwhatsit_ibm_beamal_test_universal_alec/quantum/action_util.o
                                                  .build/obj_xwhatsit_ibm_beamal_test_universal_alec/quantum/action.o
is_tap_action                                     .build/obj_xwhatsit_ibm_beamal_test_universal_alec/quantum/action.o
is_tap_record                                     .build/obj_xwhatsit_ibm_beamal_test_universal_alec/quantum/action.o
                                                  .build/obj_xwhatsit_ibm_beamal_test_universal_alec/quantum/action_tapping.o
keyboard_idle                                     .build/obj_xwhatsit_ibm_beamal_test_universal_alec/lufa.o
keyboard_init                                     .build/obj_xwhatsit_ibm_beamal_test_universal_alec/quantum/keyboard.o
                                                  .build/obj_xwhatsit_ibm_beamal_test_universal_alec/quantum/main.o
keyboard_post_init_kb                             .build/obj_xwhatsit_ibm_beamal_test_universal_alec/keyboards/xwhatsit/ibm/beamal_test/universal/universal.o
keyboard_post_init_user                           .build/obj_xwhatsit_ibm_beamal_test_universal_alec/quantum/keyboard.o
keyboard_pre_init_kb                              .build/obj_xwhatsit_ibm_beamal_test_universal_alec/quantum/keyboard.o
keyboard_pre_init_user                            .build/obj_xwhatsit_ibm_beamal_test_universal_alec/quantum/keyboard.o
keyboard_protocol                                 .build/obj_xwhatsit_ibm_beamal_test_universal_alec/lufa.o
                                                  .build/obj_xwhatsit_ibm_beamal_test_universal_alec/protocol/report.o
                                                  .build/obj_xwhatsit_ibm_beamal_test_universal_alec/protocol/host.o
keyboard_report                                   .build/obj_xwhatsit_ibm_beamal_test_universal_alec/quantum/action_util.o
                                                  .build/obj_xwhatsit_ibm_beamal_test_universal_alec/quantum/action.o
keyboard_scan_enabled                             .build/obj_xwhatsit_ibm_beamal_test_universal_alec/keyboards/xwhatsit/matrix.o
                                                  .build/obj_xwhatsit_ibm_beamal_test_universal_alec/keyboards/xwhatsit/util_comm.o
keyboard_setup                                    .build/obj_xwhatsit_ibm_beamal_test_universal_alec/quantum/keyboard.o
                                                  .build/obj_xwhatsit_ibm_beamal_test_universal_alec/quantum/main.o
keyboard_task                                     .build/obj_xwhatsit_ibm_beamal_test_universal_alec/quantum/keyboard.o
                                                  .build/obj_xwhatsit_ibm_beamal_test_universal_alec/quantum/main.o
keycode_at_keymap_location                        .build/obj_xwhatsit_ibm_beamal_test_universal_alec/quantum/keymap_introspection.o
keycode_at_keymap_location_raw                    .build/obj_xwhatsit_ibm_beamal_test_universal_alec/quantum/keymap_introspection.o
                                                  .build/obj_xwhatsit_ibm_beamal_test_universal_alec/keyboards/xwhatsit/matrix.o
keycode_config                                    .build/obj_xwhatsit_ibm_beamal_test_universal_alec/quantum/keycode_config.o
                                                  .build/obj_xwhatsit_ibm_beamal_test_universal_alec/quantum/keymap_common.o
keymap_config                                     .build/obj_xwhatsit_ibm_beamal_test_universal_alec/quantum/bootmagic/magic.o
                                                  .build/obj_xwhatsit_ibm_beamal_test_universal_alec/lufa.o
                                                  .build/obj_xwhatsit_ibm_beamal_test_universal_alec/protocol/report.o
                                                  .build/obj_xwhatsit_ibm_beamal_test_universal_alec/protocol/host.o
                                                  .build/obj_xwhatsit_ibm_beamal_test_universal_alec/quantum/process_keycode/process_magic.o
                                                  .build/obj_xwhatsit_ibm_beamal_test_universal_alec/quantum/keycode_config.o
                                                  .build/obj_xwhatsit_ibm_beamal_test_universal_alec/quantum/action_util.o
                                                  .build/obj_xwhatsit_ibm_beamal_test_universal_alec/quantum/action.o
keymap_key_to_keycode                             .build/obj_xwhatsit_ibm_beamal_test_universal_alec/quantum/keymap_common.o
                                                  .build/obj_xwhatsit_ibm_beamal_test_universal_alec/quantum/quantum.o
keymap_layer_count                                .build/obj_xwhatsit_ibm_beamal_test_universal_alec/quantum/keymap_introspection.o
keymap_layer_count_raw                            .build/obj_xwhatsit_ibm_beamal_test_universal_alec/quantum/keymap_introspection.o
keymaps                                           .build/obj_xwhatsit_ibm_beamal_test_universal_alec/quantum/keymap_introspection.o
                                                  .build/obj_xwhatsit_ibm_beamal_test_universal_alec/quantum/keymap_common.o
last_encoder_activity_elapsed                     .build/obj_xwhatsit_ibm_beamal_test_universal_alec/quantum/keyboard.o
last_encoder_activity_time                        .build/obj_xwhatsit_ibm_beamal_test_universal_alec/quantum/keyboard.o
last_encoder_activity_trigger                     .build/obj_xwhatsit_ibm_beamal_test_universal_alec/quantum/keyboard.o
last_input_activity_elapsed                       .build/obj_xwhatsit_ibm_beamal_test_universal_alec/quantum/keyboard.o
last_input_activity_time                          .build/obj_xwhatsit_ibm_beamal_test_universal_alec/quantum/keyboard.o
last_led_activity_elapsed                         .build/obj_xwhatsit_ibm_beamal_test_universal_alec/quantum/led.o
last_led_activity_time                            .build/obj_xwhatsit_ibm_beamal_test_universal_alec/quantum/led.o
last_matrix_activity_elapsed                      .build/obj_xwhatsit_ibm_beamal_test_universal_alec/quantum/keyboard.o
last_matrix_activity_time                         .build/obj_xwhatsit_ibm_beamal_test_universal_alec/quantum/keyboard.o
last_matrix_activity_trigger                      .build/obj_xwhatsit_ibm_beamal_test_universal_alec/quantum/keyboard.o
layer_and                                         .build/obj_xwhatsit_ibm_beamal_test_universal_alec/quantum/action_layer.o
                                                  .build/obj_xwhatsit_ibm_beamal_test_universal_alec/quantum/action.o
layer_clear                                       .build/obj_xwhatsit_ibm_beamal_test_universal_alec/quantum/action_layer.o
                                                  .build/obj_xwhatsit_ibm_beamal_test_universal_alec/quantum/process_keycode/process_dynamic_macro.o
                                                  .build/obj_xwhatsit_ibm_beamal_test_universal_alec/quantum/action.o
layer_debug                                       .build/obj_xwhatsit_ibm_beamal_test_universal_alec/quantum/action_layer.o
                                                  .build/obj_xwhatsit_ibm_beamal_test_universal_alec/quantum/action.o
layer_invert                                      .build/obj_xwhatsit_ibm_beamal_test_universal_alec/quantum/action_layer.o
                                                  .build/obj_xwhatsit_ibm_beamal_test_universal_alec/quantum/action.o
layer_move                                        .build/obj_xwhatsit_ibm_beamal_test_universal_alec/quantum/action_layer.o
                                                  .build/obj_xwhatsit_ibm_beamal_test_universal_alec/quantum/action.o
layer_off                                         .build/obj_xwhatsit_ibm_beamal_test_universal_alec/quantum/action_layer.o
                                                  .build/obj_xwhatsit_ibm_beamal_test_universal_alec/quantum/action_util.o
                                                  .build/obj_xwhatsit_ibm_beamal_test_universal_alec/quantum/action.o
layer_on                                          .build/obj_xwhatsit_ibm_beamal_test_universal_alec/quantum/action_layer.o
                                                  .build/obj_xwhatsit_ibm_beamal_test_universal_alec/quantum/action_util.o
                                                  .build/obj_xwhatsit_ibm_beamal_test_universal_alec/quantum/action.o
layer_or                                          .build/obj_xwhatsit_ibm_beamal_test_universal_alec/quantum/action_layer.o
                                                  .build/obj_xwhatsit_ibm_beamal_test_universal_alec/quantum/action.o
layer_state                                       .build/obj_xwhatsit_ibm_beamal_test_universal_alec/quantum/action_layer.o
                                                  .build/obj_xwhatsit_ibm_beamal_test_universal_alec/quantum/process_keycode/process_dynamic_macro.o
                                                  .build/obj_xwhatsit_ibm_beamal_test_universal_alec/quantum/bootmagic/magic.o
                                                  .build/obj_xwhatsit_ibm_beamal_test_universal_alec/quantum/quantum.o
layer_state_cmp                                   .build/obj_xwhatsit_ibm_beamal_test_universal_alec/quantum/action_layer.o
layer_state_is                                    .build/obj_xwhatsit_ibm_beamal_test_universal_alec/quantum/action_layer.o
layer_state_set                                   .build/obj_xwhatsit_ibm_beamal_test_universal_alec/quantum/action_layer.o
                                                  .build/obj_xwhatsit_ibm_beamal_test_universal_alec/quantum/process_keycode/process_dynamic_macro.o
                                                  .build/obj_xwhatsit_ibm_beamal_test_universal_alec/quantum/action.o
                                                  .build/obj_xwhatsit_ibm_beamal_test_universal_alec/quantum/quantum.o
layer_state_set_kb                                .build/obj_xwhatsit_ibm_beamal_test_universal_alec/quantum/action_layer.o
                                                  .build/obj_xwhatsit_ibm_beamal_test_universal_alec/quantum/bootmagic/magic.o
layer_state_set_user                              .build/obj_xwhatsit_ibm_beamal_test_universal_alec/quantum/action_layer.o
layer_switch_get_action                           .build/obj_xwhatsit_ibm_beamal_test_universal_alec/quantum/action_layer.o
                                                  .build/obj_xwhatsit_ibm_beamal_test_universal_alec/quantum/action_tapping.o
                                                  .build/obj_xwhatsit_ibm_beamal_test_universal_alec/quantum/action.o
layer_switch_get_layer                            .build/obj_xwhatsit_ibm_beamal_test_universal_alec/quantum/action_layer.o
                                                  .build/obj_xwhatsit_ibm_beamal_test_universal_alec/quantum/quantum.o
layer_xor                                         .build/obj_xwhatsit_ibm_beamal_test_universal_alec/quantum/action_layer.o
                                                  .build/obj_xwhatsit_ibm_beamal_test_universal_alec/quantum/action.o
led_init_ports                                    .build/obj_xwhatsit_ibm_beamal_test_universal_alec/quantum/led.o
                                                  .build/obj_xwhatsit_ibm_beamal_test_universal_alec/quantum/keyboard.o
led_set                                           .build/obj_xwhatsit_ibm_beamal_test_universal_alec/quantum/led.o
                                                  .build/obj_xwhatsit_ibm_beamal_test_universal_alec/quantum/action.o
led_set_kb                                        .build/obj_xwhatsit_ibm_beamal_test_universal_alec/quantum/led.o
led_set_user                                      .build/obj_xwhatsit_ibm_beamal_test_universal_alec/quantum/led.o
led_suspend                                       .build/obj_xwhatsit_ibm_beamal_test_universal_alec/quantum/led.o
                                                  .build/obj_xwhatsit_ibm_beamal_test_universal_alec/quantum/quantum.o
led_task                                          .build/obj_xwhatsit_ibm_beamal_test_universal_alec/quantum/led.o
                                                  .build/obj_xwhatsit_ibm_beamal_test_universal_alec/quantum/keyboard.o
led_update_kb                                     .build/obj_xwhatsit_ibm_beamal_test_universal_alec/keyboards/xwhatsit/matrix.o
led_update_user                                   .build/obj_xwhatsit_ibm_beamal_test_universal_alec/quantum/led.o
                                                  .build/obj_xwhatsit_ibm_beamal_test_universal_alec/keyboards/xwhatsit/matrix.o
led_wakeup                                        .build/obj_xwhatsit_ibm_beamal_test_universal_alec/quantum/led.o
                                                  .build/obj_xwhatsit_ibm_beamal_test_universal_alec/quantum/quantum.o
lufa_driver                                       .build/obj_xwhatsit_ibm_beamal_test_universal_alec/lufa.o
magic                                             .build/obj_xwhatsit_ibm_beamal_test_universal_alec/quantum/bootmagic/magic.o
                                                  .build/obj_xwhatsit_ibm_beamal_test_universal_alec/quantum/keyboard.o
main                                              .build/obj_xwhatsit_ibm_beamal_test_universal_alec/quantum/main.o
                                                  /usr/local/Cellar/avr-gcc@8/8.5.0/lib/avr-gcc/8/gcc/avr/8.5.0/../../../../../../avr/lib/avr5/crtatmega32u4.o
matrix                                            .build/obj_xwhatsit_ibm_beamal_test_universal_alec/quantum/matrix_common.o
matrix_cols                                       .build/obj_xwhatsit_ibm_beamal_test_universal_alec/quantum/matrix_common.o
matrix_get_row                                    .build/obj_xwhatsit_ibm_beamal_test_universal_alec/quantum/matrix_common.o
                                                  .build/obj_xwhatsit_ibm_beamal_test_universal_alec/platforms/suspend.o
                                                  .build/obj_xwhatsit_ibm_beamal_test_universal_alec/quantum/bootmagic/bootmagic_lite.o
                                                  .build/obj_xwhatsit_ibm_beamal_test_universal_alec/quantum/keyboard.o
matrix_has_it_changed                             .build/obj_xwhatsit_ibm_beamal_test_universal_alec/keyboards/xwhatsit/matrix.o
matrix_init                                       .build/obj_xwhatsit_ibm_beamal_test_universal_alec/quantum/matrix_common.o
                                                  .build/obj_xwhatsit_ibm_beamal_test_universal_alec/quantum/keyboard.o
matrix_init_custom                                .build/obj_xwhatsit_ibm_beamal_test_universal_alec/keyboards/xwhatsit/matrix.o
matrix_init_kb                                    .build/obj_xwhatsit_ibm_beamal_test_universal_alec/quantum/matrix_common.o
                                                  .build/obj_xwhatsit_ibm_beamal_test_universal_alec/quantum/quantum.o
matrix_init_quantum                               .build/obj_xwhatsit_ibm_beamal_test_universal_alec/quantum/quantum.o
                                                  .build/obj_xwhatsit_ibm_beamal_test_universal_alec/quantum/matrix_common.o
matrix_init_user                                  .build/obj_xwhatsit_ibm_beamal_test_universal_alec/quantum/matrix_common.o
matrix_io_delay                                   .build/obj_xwhatsit_ibm_beamal_test_universal_alec/quantum/matrix_common.o
matrix_is_on                                      .build/obj_xwhatsit_ibm_beamal_test_universal_alec/quantum/matrix_common.o
matrix_output_select_delay                        .build/obj_xwhatsit_ibm_beamal_test_universal_alec/quantum/matrix_common.o
matrix_output_unselect_delay                      .build/obj_xwhatsit_ibm_beamal_test_universal_alec/quantum/matrix_common.o
matrix_power_down                                 .build/obj_xwhatsit_ibm_beamal_test_universal_alec/platforms/suspend.o
matrix_power_up                                   .build/obj_xwhatsit_ibm_beamal_test_universal_alec/platforms/suspend.o
matrix_print                                      .build/obj_xwhatsit_ibm_beamal_test_universal_alec/quantum/matrix_common.o
                                                  .build/obj_xwhatsit_ibm_beamal_test_universal_alec/quantum/keyboard.o
matrix_print_stats                                .build/obj_xwhatsit_ibm_beamal_test_universal_alec/keyboards/xwhatsit/matrix.o
matrix_rows                                       .build/obj_xwhatsit_ibm_beamal_test_universal_alec/quantum/matrix_common.o
matrix_scan                                       .build/obj_xwhatsit_ibm_beamal_test_universal_alec/quantum/matrix_common.o
                                                  .build/obj_xwhatsit_ibm_beamal_test_universal_alec/platforms/suspend.o
                                                  .build/obj_xwhatsit_ibm_beamal_test_universal_alec/quantum/bootmagic/bootmagic_lite.o
                                                  .build/obj_xwhatsit_ibm_beamal_test_universal_alec/quantum/keyboard.o
matrix_scan_custom                                .build/obj_xwhatsit_ibm_beamal_test_universal_alec/keyboards/xwhatsit/matrix.o
matrix_scan_kb                                    .build/obj_xwhatsit_ibm_beamal_test_universal_alec/quantum/matrix_common.o
                                                  .build/obj_xwhatsit_ibm_beamal_test_universal_alec/quantum/quantum.o
matrix_scan_quantum                               .build/obj_xwhatsit_ibm_beamal_test_universal_alec/quantum/quantum.o
                                                  .build/obj_xwhatsit_ibm_beamal_test_universal_alec/quantum/matrix_common.o
matrix_scan_raw                                   .build/obj_xwhatsit_ibm_beamal_test_universal_alec/keyboards/xwhatsit/matrix.o
                                                  .build/obj_xwhatsit_ibm_beamal_test_universal_alec/keyboards/xwhatsit/util_comm.o
matrix_scan_user                                  .build/obj_xwhatsit_ibm_beamal_test_universal_alec/quantum/matrix_common.o
matrix_setup                                      .build/obj_xwhatsit_ibm_beamal_test_universal_alec/quantum/keyboard.o
mcu_reset                                         .build/obj_xwhatsit_ibm_beamal_test_universal_alec/platforms/avr/bootloaders/caterina.o
                                                  .build/obj_xwhatsit_ibm_beamal_test_universal_alec/quantum/quantum.o
measure_middle                                    .build/obj_xwhatsit_ibm_beamal_test_universal_alec/keyboards/xwhatsit/matrix.o
measure_middle_keymap_coords                      .build/obj_xwhatsit_ibm_beamal_test_universal_alec/keyboards/xwhatsit/matrix.o
                                                  .build/obj_xwhatsit_ibm_beamal_test_universal_alec/keyboards/xwhatsit/util_comm.o
measure_middle_settled                            .build/obj_xwhatsit_ibm_beamal_test_universal_alec/keyboards/xwhatsit/matrix.o
memcmp                                            /usr/local/Cellar/avr-gcc@8/8.5.0/lib/avr-gcc/8/gcc/avr/8.5.0/../../../../../../avr/lib/avr5/libc.a(memcmp.o)
                                                  .build/obj_xwhatsit_ibm_beamal_test_universal_alec/quantum/debounce/sym_defer_g.o
                                                  .build/obj_xwhatsit_ibm_beamal_test_universal_alec/quantum/action_util.o
                                                  .build/obj_xwhatsit_ibm_beamal_test_universal_alec/keyboards/xwhatsit/util_comm.o
memcpy                                            /usr/local/Cellar/avr-gcc@8/8.5.0/lib/avr-gcc/8/gcc/avr/8.5.0/../../../../../../avr/lib/avr5/libc.a(memcpy.o)
                                                  .build/obj_xwhatsit_ibm_beamal_test_universal_alec/quantum/debounce/sym_defer_g.o
memset                                            /usr/local/Cellar/avr-gcc@8/8.5.0/lib/avr-gcc/8/gcc/avr/8.5.0/../../../../../../avr/lib/avr5/libc.a(memset.o)
                                                  .build/obj_xwhatsit_ibm_beamal_test_universal_alec/keyboards/xwhatsit/matrix.o
mod_config                                        .build/obj_xwhatsit_ibm_beamal_test_universal_alec/quantum/keycode_config.o
                                                  .build/obj_xwhatsit_ibm_beamal_test_universal_alec/quantum/keymap_common.o
notify_usb_device_state_change_kb                 .build/obj_xwhatsit_ibm_beamal_test_universal_alec/protocol/usb_device_state.o
notify_usb_device_state_change_user               .build/obj_xwhatsit_ibm_beamal_test_universal_alec/protocol/usb_device_state.o
oneshot_disable                                   .build/obj_xwhatsit_ibm_beamal_test_universal_alec/quantum/action_util.o
                                                  .build/obj_xwhatsit_ibm_beamal_test_universal_alec/quantum/quantum.o
oneshot_enable                                    .build/obj_xwhatsit_ibm_beamal_test_universal_alec/quantum/action_util.o
                                                  .build/obj_xwhatsit_ibm_beamal_test_universal_alec/quantum/quantum.o
oneshot_layer_changed_kb                          .build/obj_xwhatsit_ibm_beamal_test_universal_alec/quantum/action_util.o
oneshot_layer_changed_user                        .build/obj_xwhatsit_ibm_beamal_test_universal_alec/quantum/action_util.o
oneshot_locked_mods_changed_kb                    .build/obj_xwhatsit_ibm_beamal_test_universal_alec/quantum/action_util.o
oneshot_locked_mods_changed_user                  .build/obj_xwhatsit_ibm_beamal_test_universal_alec/quantum/action_util.o
oneshot_mods_changed_kb                           .build/obj_xwhatsit_ibm_beamal_test_universal_alec/quantum/action_util.o
oneshot_mods_changed_user                         .build/obj_xwhatsit_ibm_beamal_test_universal_alec/quantum/action_util.o
oneshot_set                                       .build/obj_xwhatsit_ibm_beamal_test_universal_alec/quantum/action_util.o
oneshot_toggle                                    .build/obj_xwhatsit_ibm_beamal_test_universal_alec/quantum/action_util.o
                                                  .build/obj_xwhatsit_ibm_beamal_test_universal_alec/quantum/quantum.o
peek_matrix                                       .build/obj_xwhatsit_ibm_beamal_test_universal_alec/quantum/matrix_common.o
perform_space_cadet                               .build/obj_xwhatsit_ibm_beamal_test_universal_alec/quantum/process_keycode/process_space_cadet.o
persist_unicode_input_mode                        .build/obj_xwhatsit_ibm_beamal_test_universal_alec/quantum/process_keycode/process_unicode_common.o
platform_setup                                    .build/obj_xwhatsit_ibm_beamal_test_universal_alec/platforms/avr/platform.o
                                                  .build/obj_xwhatsit_ibm_beamal_test_universal_alec/quantum/main.o
post_process_record_kb                            .build/obj_xwhatsit_ibm_beamal_test_universal_alec/quantum/quantum.o
post_process_record_quantum                       .build/obj_xwhatsit_ibm_beamal_test_universal_alec/quantum/quantum.o
post_process_record_user                          .build/obj_xwhatsit_ibm_beamal_test_universal_alec/quantum/quantum.o
pre_process_record_quantum                        .build/obj_xwhatsit_ibm_beamal_test_universal_alec/quantum/quantum.o
previous_matrix                                   .build/obj_xwhatsit_ibm_beamal_test_universal_alec/keyboards/xwhatsit/matrix.o
print_set_sendchar                                .build/obj_xwhatsit_ibm_beamal_test_universal_alec/platforms/avr/printf.o
                                                  .build/obj_xwhatsit_ibm_beamal_test_universal_alec/quantum/keyboard.o
process_action                                    .build/obj_xwhatsit_ibm_beamal_test_universal_alec/quantum/action.o
process_action_kb                                 .build/obj_xwhatsit_ibm_beamal_test_universal_alec/quantum/quantum.o
process_dynamic_macro                             .build/obj_xwhatsit_ibm_beamal_test_universal_alec/quantum/process_keycode/process_dynamic_macro.o
                                                  .build/obj_xwhatsit_ibm_beamal_test_universal_alec/quantum/quantum.o
process_grave_esc                                 .build/obj_xwhatsit_ibm_beamal_test_universal_alec/quantum/process_keycode/process_grave_esc.o
                                                  .build/obj_xwhatsit_ibm_beamal_test_universal_alec/quantum/quantum.o
process_haptic                                    .build/obj_xwhatsit_ibm_beamal_test_universal_alec/quantum/process_keycode/process_haptic.o
                                                  .build/obj_xwhatsit_ibm_beamal_test_universal_alec/quantum/quantum.o
process_magic                                     .build/obj_xwhatsit_ibm_beamal_test_universal_alec/quantum/process_keycode/process_magic.o
                                                  .build/obj_xwhatsit_ibm_beamal_test_universal_alec/quantum/quantum.o
process_record                                    .build/obj_xwhatsit_ibm_beamal_test_universal_alec/quantum/action.o
                                                  .build/obj_xwhatsit_ibm_beamal_test_universal_alec/quantum/process_keycode/process_dynamic_macro.o
                                                  .build/obj_xwhatsit_ibm_beamal_test_universal_alec/quantum/action_tapping.o
process_record_handler                            .build/obj_xwhatsit_ibm_beamal_test_universal_alec/quantum/action.o
process_record_kb                                 .build/obj_xwhatsit_ibm_beamal_test_universal_alec/quantum/quantum.o
process_record_nocache                            .build/obj_xwhatsit_ibm_beamal_test_universal_alec/quantum/action.o
process_record_quantum                            .build/obj_xwhatsit_ibm_beamal_test_universal_alec/quantum/quantum.o
process_record_quantum_helper                     .build/obj_xwhatsit_ibm_beamal_test_universal_alec/quantum/quantum.o
process_record_tap_hint                           .build/obj_xwhatsit_ibm_beamal_test_universal_alec/quantum/action.o
                                                  .build/obj_xwhatsit_ibm_beamal_test_universal_alec/quantum/action_tapping.o
process_record_user                               .build/obj_xwhatsit_ibm_beamal_test_universal_alec/quantum/keymap_introspection.o
process_space_cadet                               .build/obj_xwhatsit_ibm_beamal_test_universal_alec/quantum/process_keycode/process_space_cadet.o
                                                  .build/obj_xwhatsit_ibm_beamal_test_universal_alec/quantum/quantum.o
process_unicode                                   .build/obj_xwhatsit_ibm_beamal_test_universal_alec/quantum/process_keycode/process_unicode.o
                                                  .build/obj_xwhatsit_ibm_beamal_test_universal_alec/quantum/process_keycode/process_unicode_common.o
process_unicode_common                            .build/obj_xwhatsit_ibm_beamal_test_universal_alec/quantum/process_keycode/process_unicode_common.o
                                                  .build/obj_xwhatsit_ibm_beamal_test_universal_alec/quantum/quantum.o
protocol_init                                     .build/obj_xwhatsit_ibm_beamal_test_universal_alec/quantum/main.o
protocol_post_init                                .build/obj_xwhatsit_ibm_beamal_test_universal_alec/lufa.o
                                                  .build/obj_xwhatsit_ibm_beamal_test_universal_alec/quantum/main.o
protocol_post_task                                .build/obj_xwhatsit_ibm_beamal_test_universal_alec/lufa.o
                                                  .build/obj_xwhatsit_ibm_beamal_test_universal_alec/quantum/main.o
protocol_pre_init                                 .build/obj_xwhatsit_ibm_beamal_test_universal_alec/lufa.o
                                                  .build/obj_xwhatsit_ibm_beamal_test_universal_alec/quantum/main.o
protocol_pre_task                                 .build/obj_xwhatsit_ibm_beamal_test_universal_alec/lufa.o
                                                  .build/obj_xwhatsit_ibm_beamal_test_universal_alec/quantum/main.o
protocol_setup                                    .build/obj_xwhatsit_ibm_beamal_test_universal_alec/lufa.o
                                                  .build/obj_xwhatsit_ibm_beamal_test_universal_alec/quantum/main.o
protocol_task                                     .build/obj_xwhatsit_ibm_beamal_test_universal_alec/quantum/main.o
quantum_init                                      .build/obj_xwhatsit_ibm_beamal_test_universal_alec/quantum/keyboard.o
quantum_task                                      .build/obj_xwhatsit_ibm_beamal_test_universal_alec/quantum/keyboard.o
raw_hid_receive                                   .build/obj_xwhatsit_ibm_beamal_test_universal_alec/keyboards/xwhatsit/util_comm.o
raw_hid_send                                      .build/obj_xwhatsit_ibm_beamal_test_universal_alec/lufa.o
                                                  .build/obj_xwhatsit_ibm_beamal_test_universal_alec/keyboards/xwhatsit/util_comm.o
raw_matrix                                        .build/obj_xwhatsit_ibm_beamal_test_universal_alec/quantum/matrix_common.o
read_source_layers_cache                          .build/obj_xwhatsit_ibm_beamal_test_universal_alec/quantum/action_layer.o
                                                  .build/obj_xwhatsit_ibm_beamal_test_universal_alec/quantum/quantum.o
read_source_layers_cache_impl                     .build/obj_xwhatsit_ibm_beamal_test_universal_alec/quantum/action_layer.o
real_keyboard_init_basic                          .build/obj_xwhatsit_ibm_beamal_test_universal_alec/keyboards/xwhatsit/matrix.o
register_code                                     .build/obj_xwhatsit_ibm_beamal_test_universal_alec/quantum/action.o
                                                  .build/obj_xwhatsit_ibm_beamal_test_universal_alec/quantum/send_string/send_string.o
                                                  .build/obj_xwhatsit_ibm_beamal_test_universal_alec/quantum/process_keycode/process_unicode_common.o
                                                  .build/obj_xwhatsit_ibm_beamal_test_universal_alec/quantum/quantum.o
register_code16                                   .build/obj_xwhatsit_ibm_beamal_test_universal_alec/quantum/quantum.o
register_hex                                      .build/obj_xwhatsit_ibm_beamal_test_universal_alec/quantum/process_keycode/process_unicode_common.o
                                                  .build/obj_xwhatsit_ibm_beamal_test_universal_alec/quantum/process_keycode/process_unicode.o
register_hex32                                    .build/obj_xwhatsit_ibm_beamal_test_universal_alec/quantum/process_keycode/process_unicode_common.o
register_mods                                     .build/obj_xwhatsit_ibm_beamal_test_universal_alec/quantum/action.o
                                                  .build/obj_xwhatsit_ibm_beamal_test_universal_alec/quantum/process_keycode/process_space_cadet.o
                                                  .build/obj_xwhatsit_ibm_beamal_test_universal_alec/quantum/quantum.o
register_unicode                                  .build/obj_xwhatsit_ibm_beamal_test_universal_alec/quantum/process_keycode/process_unicode_common.o
register_weak_mods                                .build/obj_xwhatsit_ibm_beamal_test_universal_alec/quantum/action.o
                                                  .build/obj_xwhatsit_ibm_beamal_test_universal_alec/quantum/quantum.o
reset_keyboard                                    .build/obj_xwhatsit_ibm_beamal_test_universal_alec/quantum/quantum.o
reset_oneshot_layer                               .build/obj_xwhatsit_ibm_beamal_test_universal_alec/quantum/action_util.o
                                                  .build/obj_xwhatsit_ibm_beamal_test_universal_alec/quantum/action.o
send_byte                                         .build/obj_xwhatsit_ibm_beamal_test_universal_alec/quantum/send_string/send_string.o
send_char                                         .build/obj_xwhatsit_ibm_beamal_test_universal_alec/quantum/send_string/send_string.o
send_digitizer                                    .build/obj_xwhatsit_ibm_beamal_test_universal_alec/lufa.o
                                                  .build/obj_xwhatsit_ibm_beamal_test_universal_alec/protocol/host.o
send_dword                                        .build/obj_xwhatsit_ibm_beamal_test_universal_alec/quantum/send_string/send_string.o
send_keyboard_report                              .build/obj_xwhatsit_ibm_beamal_test_universal_alec/quantum/action_util.o
                                                  .build/obj_xwhatsit_ibm_beamal_test_universal_alec/quantum/process_keycode/process_grave_esc.o
                                                  .build/obj_xwhatsit_ibm_beamal_test_universal_alec/quantum/action.o
send_nibble                                       .build/obj_xwhatsit_ibm_beamal_test_universal_alec/quantum/send_string/send_string.o
                                                  .build/obj_xwhatsit_ibm_beamal_test_universal_alec/quantum/process_keycode/process_unicode_common.o
send_string                                       .build/obj_xwhatsit_ibm_beamal_test_universal_alec/quantum/send_string/send_string.o
send_string_P                                     .build/obj_xwhatsit_ibm_beamal_test_universal_alec/quantum/send_string/send_string.o
send_string_with_delay                            .build/obj_xwhatsit_ibm_beamal_test_universal_alec/quantum/send_string/send_string.o
send_string_with_delay_P                          .build/obj_xwhatsit_ibm_beamal_test_universal_alec/quantum/send_string/send_string.o
                                                  .build/obj_xwhatsit_ibm_beamal_test_universal_alec/quantum/keymap_introspection.o
send_unicode_string                               .build/obj_xwhatsit_ibm_beamal_test_universal_alec/quantum/process_keycode/process_unicode_common.o
send_word                                         .build/obj_xwhatsit_ibm_beamal_test_universal_alec/quantum/send_string/send_string.o
sendchar                                          .build/obj_xwhatsit_ibm_beamal_test_universal_alec/lufa.o
                                                  .build/obj_xwhatsit_ibm_beamal_test_universal_alec/quantum/logging/sendchar.o
                                                  .build/obj_xwhatsit_ibm_beamal_test_universal_alec/quantum/keyboard.o
set_leds                                          .build/obj_xwhatsit_ibm_beamal_test_universal_alec/keyboards/xwhatsit/matrix.o
set_mods                                          .build/obj_xwhatsit_ibm_beamal_test_universal_alec/quantum/action_util.o
                                                  .build/obj_xwhatsit_ibm_beamal_test_universal_alec/quantum/process_keycode/process_unicode_common.o
set_oneshot_layer                                 .build/obj_xwhatsit_ibm_beamal_test_universal_alec/quantum/action_util.o
                                                  .build/obj_xwhatsit_ibm_beamal_test_universal_alec/quantum/action.o
set_oneshot_locked_mods                           .build/obj_xwhatsit_ibm_beamal_test_universal_alec/quantum/action_util.o
                                                  .build/obj_xwhatsit_ibm_beamal_test_universal_alec/quantum/action.o
set_oneshot_mods                                  .build/obj_xwhatsit_ibm_beamal_test_universal_alec/quantum/action_util.o
                                                  .build/obj_xwhatsit_ibm_beamal_test_universal_alec/quantum/action.o
set_single_persistent_default_layer               .build/obj_xwhatsit_ibm_beamal_test_universal_alec/quantum/quantum.o
set_unicode_input_mode                            .build/obj_xwhatsit_ibm_beamal_test_universal_alec/quantum/process_keycode/process_unicode_common.o
set_weak_mods                                     .build/obj_xwhatsit_ibm_beamal_test_universal_alec/quantum/action_util.o
shift_data                                        .build/obj_xwhatsit_ibm_beamal_test_universal_alec/keyboards/xwhatsit/matrix.o
                                                  .build/obj_xwhatsit_ibm_beamal_test_universal_alec/keyboards/xwhatsit/util_comm.o
shift_init                                        .build/obj_xwhatsit_ibm_beamal_test_universal_alec/keyboards/xwhatsit/matrix.o
shift_select_col_no_strobe                        .build/obj_xwhatsit_ibm_beamal_test_universal_alec/keyboards/xwhatsit/matrix.o
shift_select_nothing                              .build/obj_xwhatsit_ibm_beamal_test_universal_alec/keyboards/xwhatsit/matrix.o
should_process_keypress                           .build/obj_xwhatsit_ibm_beamal_test_universal_alec/quantum/keyboard.o
shutdown_quantum                                  .build/obj_xwhatsit_ibm_beamal_test_universal_alec/quantum/quantum.o
shutdown_user                                     .build/obj_xwhatsit_ibm_beamal_test_universal_alec/quantum/quantum.o
soft_reset_keyboard                               .build/obj_xwhatsit_ibm_beamal_test_universal_alec/quantum/quantum.o
solenoid_buzz_off                                 .build/obj_xwhatsit_ibm_beamal_test_universal_alec/solenoid.o
solenoid_buzz_on                                  .build/obj_xwhatsit_ibm_beamal_test_universal_alec/solenoid.o
solenoid_buzzing                                  .build/obj_xwhatsit_ibm_beamal_test_universal_alec/solenoid.o
solenoid_check                                    .build/obj_xwhatsit_ibm_beamal_test_universal_alec/solenoid.o
                                                  .build/obj_xwhatsit_ibm_beamal_test_universal_alec/quantum/haptic.o
solenoid_dwell                                    .build/obj_xwhatsit_ibm_beamal_test_universal_alec/solenoid.o
solenoid_fire                                     .build/obj_xwhatsit_ibm_beamal_test_universal_alec/solenoid.o
solenoid_fire_handler                             .build/obj_xwhatsit_ibm_beamal_test_universal_alec/solenoid.o
                                                  .build/obj_xwhatsit_ibm_beamal_test_universal_alec/quantum/haptic.o
solenoid_on                                       .build/obj_xwhatsit_ibm_beamal_test_universal_alec/solenoid.o
solenoid_set_buzz                                 .build/obj_xwhatsit_ibm_beamal_test_universal_alec/solenoid.o
solenoid_set_dwell                                .build/obj_xwhatsit_ibm_beamal_test_universal_alec/solenoid.o
                                                  .build/obj_xwhatsit_ibm_beamal_test_universal_alec/quantum/haptic.o
solenoid_setup                                    .build/obj_xwhatsit_ibm_beamal_test_universal_alec/solenoid.o
                                                  .build/obj_xwhatsit_ibm_beamal_test_universal_alec/quantum/haptic.o
solenoid_shutdown                                 .build/obj_xwhatsit_ibm_beamal_test_universal_alec/solenoid.o
                                                  .build/obj_xwhatsit_ibm_beamal_test_universal_alec/quantum/haptic.o
solenoid_start                                    .build/obj_xwhatsit_ibm_beamal_test_universal_alec/solenoid.o
solenoid_stop                                     .build/obj_xwhatsit_ibm_beamal_test_universal_alec/solenoid.o
source_layers_cache                               .build/obj_xwhatsit_ibm_beamal_test_universal_alec/quantum/action_layer.o
stack_painter                                     .build/obj_xwhatsit_ibm_beamal_test_universal_alec/keyboards/xwhatsit/xwhatsit.o
stack_used                                        .build/obj_xwhatsit_ibm_beamal_test_universal_alec/keyboards/xwhatsit/xwhatsit.o
                                                  .build/obj_xwhatsit_ibm_beamal_test_universal_alec/keyboards/xwhatsit/matrix.o
startup_user                                      .build/obj_xwhatsit_ibm_beamal_test_universal_alec/quantum/quantum.o
store_or_get_action                               .build/obj_xwhatsit_ibm_beamal_test_universal_alec/quantum/action_layer.o
                                                  .build/obj_xwhatsit_ibm_beamal_test_universal_alec/quantum/action.o
suspend_power_down                                .build/obj_xwhatsit_ibm_beamal_test_universal_alec/platforms/avr/suspend.o
                                                  .build/obj_xwhatsit_ibm_beamal_test_universal_alec/lufa.o
suspend_power_down_kb                             .build/obj_xwhatsit_ibm_beamal_test_universal_alec/platforms/suspend.o
                                                  .build/obj_xwhatsit_ibm_beamal_test_universal_alec/quantum/quantum.o
suspend_power_down_quantum                        .build/obj_xwhatsit_ibm_beamal_test_universal_alec/quantum/quantum.o
                                                  .build/obj_xwhatsit_ibm_beamal_test_universal_alec/platforms/avr/suspend.o
suspend_power_down_user                           .build/obj_xwhatsit_ibm_beamal_test_universal_alec/platforms/suspend.o
suspend_wakeup_condition                          .build/obj_xwhatsit_ibm_beamal_test_universal_alec/platforms/suspend.o
                                                  .build/obj_xwhatsit_ibm_beamal_test_universal_alec/lufa.o
suspend_wakeup_init                               .build/obj_xwhatsit_ibm_beamal_test_universal_alec/platforms/avr/suspend.o
                                                  .build/obj_xwhatsit_ibm_beamal_test_universal_alec/lufa.o
suspend_wakeup_init_kb                            .build/obj_xwhatsit_ibm_beamal_test_universal_alec/platforms/suspend.o
                                                  .build/obj_xwhatsit_ibm_beamal_test_universal_alec/quantum/quantum.o
suspend_wakeup_init_quantum                       .build/obj_xwhatsit_ibm_beamal_test_universal_alec/quantum/quantum.o
                                                  .build/obj_xwhatsit_ibm_beamal_test_universal_alec/platforms/avr/suspend.o
suspend_wakeup_init_user                          .build/obj_xwhatsit_ibm_beamal_test_universal_alec/platforms/suspend.o
switch_events                                     .build/obj_xwhatsit_ibm_beamal_test_universal_alec/quantum/keyboard.o
tap_code                                          .build/obj_xwhatsit_ibm_beamal_test_universal_alec/quantum/action.o
                                                  .build/obj_xwhatsit_ibm_beamal_test_universal_alec/quantum/process_keycode/process_space_cadet.o
                                                  .build/obj_xwhatsit_ibm_beamal_test_universal_alec/quantum/send_string/send_string.o
                                                  .build/obj_xwhatsit_ibm_beamal_test_universal_alec/quantum/process_keycode/process_unicode_common.o
tap_code16                                        .build/obj_xwhatsit_ibm_beamal_test_universal_alec/quantum/quantum.o
                                                  .build/obj_xwhatsit_ibm_beamal_test_universal_alec/quantum/process_keycode/process_unicode_common.o
tap_code16_delay                                  .build/obj_xwhatsit_ibm_beamal_test_universal_alec/quantum/quantum.o
tap_code_delay                                    .build/obj_xwhatsit_ibm_beamal_test_universal_alec/quantum/action.o
tap_random_base64                                 .build/obj_xwhatsit_ibm_beamal_test_universal_alec/quantum/send_string/send_string.o
test_col_print_data_v2                            .build/obj_xwhatsit_ibm_beamal_test_universal_alec/keyboards/xwhatsit/matrix.o
test_multiple                                     .build/obj_xwhatsit_ibm_beamal_test_universal_alec/keyboards/xwhatsit/matrix.o
test_single                                       .build/obj_xwhatsit_ibm_beamal_test_universal_alec/keyboards/xwhatsit/matrix.o
                                                  .build/obj_xwhatsit_ibm_beamal_test_universal_alec/keyboards/xwhatsit/util_comm.o
test_v2                                           .build/obj_xwhatsit_ibm_beamal_test_universal_alec/keyboards/xwhatsit/matrix.o
timer_clear                                       .build/obj_xwhatsit_ibm_beamal_test_universal_alec/platforms/avr/timer.o
timer_count                                       .build/obj_xwhatsit_ibm_beamal_test_universal_alec/platforms/avr/timer.o
                                                  .build/obj_xwhatsit_ibm_beamal_test_universal_alec/platforms/avr/suspend.o
timer_elapsed                                     .build/obj_xwhatsit_ibm_beamal_test_universal_alec/platforms/avr/timer.o
                                                  .build/obj_xwhatsit_ibm_beamal_test_universal_alec/quantum/process_keycode/process_space_cadet.o
                                                  .build/obj_xwhatsit_ibm_beamal_test_universal_alec/solenoid.o
                                                  .build/obj_xwhatsit_ibm_beamal_test_universal_alec/quantum/debounce/sym_defer_g.o
timer_elapsed32                                   .build/obj_xwhatsit_ibm_beamal_test_universal_alec/platforms/avr/timer.o
                                                  .build/obj_xwhatsit_ibm_beamal_test_universal_alec/quantum/keyboard.o
                                                  .build/obj_xwhatsit_ibm_beamal_test_universal_alec/quantum/led.o
timer_init                                        .build/obj_xwhatsit_ibm_beamal_test_universal_alec/platforms/avr/timer.o
                                                  .build/obj_xwhatsit_ibm_beamal_test_universal_alec/quantum/keyboard.o
timer_read                                        .build/obj_xwhatsit_ibm_beamal_test_universal_alec/platforms/avr/timer.o
                                                  .build/obj_xwhatsit_ibm_beamal_test_universal_alec/quantum/process_keycode/process_space_cadet.o
                                                  .build/obj_xwhatsit_ibm_beamal_test_universal_alec/solenoid.o
                                                  .build/obj_xwhatsit_ibm_beamal_test_universal_alec/quantum/debounce/sym_defer_g.o
                                                  .build/obj_xwhatsit_ibm_beamal_test_universal_alec/quantum/keyboard.o
                                                  .build/obj_xwhatsit_ibm_beamal_test_universal_alec/quantum/action_util.o
                                                  .build/obj_xwhatsit_ibm_beamal_test_universal_alec/keyboards/xwhatsit/matrix.o
timer_read32                                      .build/obj_xwhatsit_ibm_beamal_test_universal_alec/platforms/avr/timer.o
                                                  .build/obj_xwhatsit_ibm_beamal_test_universal_alec/quantum/keyboard.o
                                                  .build/obj_xwhatsit_ibm_beamal_test_universal_alec/quantum/led.o
                                                  .build/obj_xwhatsit_ibm_beamal_test_universal_alec/keyboards/xwhatsit/matrix.o
tp_buttons                                        .build/obj_xwhatsit_ibm_beamal_test_universal_alec/quantum/action.o
tracking_test                                     .build/obj_xwhatsit_ibm_beamal_test_universal_alec/keyboards/xwhatsit/matrix.o
unicode_config                                    .build/obj_xwhatsit_ibm_beamal_test_universal_alec/quantum/process_keycode/process_unicode_common.o
unicode_input_cancel                              .build/obj_xwhatsit_ibm_beamal_test_universal_alec/quantum/process_keycode/process_unicode_common.o
unicode_input_finish                              .build/obj_xwhatsit_ibm_beamal_test_universal_alec/quantum/process_keycode/process_unicode_common.o
                                                  .build/obj_xwhatsit_ibm_beamal_test_universal_alec/quantum/process_keycode/process_unicode.o
unicode_input_mode_init                           .build/obj_xwhatsit_ibm_beamal_test_universal_alec/quantum/process_keycode/process_unicode_common.o
                                                  .build/obj_xwhatsit_ibm_beamal_test_universal_alec/quantum/keyboard.o
unicode_input_start                               .build/obj_xwhatsit_ibm_beamal_test_universal_alec/quantum/process_keycode/process_unicode_common.o
                                                  .build/obj_xwhatsit_ibm_beamal_test_universal_alec/quantum/process_keycode/process_unicode.o
unicode_saved_caps_lock                           .build/obj_xwhatsit_ibm_beamal_test_universal_alec/quantum/process_keycode/process_unicode_common.o
unicode_saved_mods                                .build/obj_xwhatsit_ibm_beamal_test_universal_alec/quantum/process_keycode/process_unicode_common.o
unicode_saved_num_lock                            .build/obj_xwhatsit_ibm_beamal_test_universal_alec/quantum/process_keycode/process_unicode_common.o
unregister_code                                   .build/obj_xwhatsit_ibm_beamal_test_universal_alec/quantum/action.o
                                                  .build/obj_xwhatsit_ibm_beamal_test_universal_alec/quantum/send_string/send_string.o
                                                  .build/obj_xwhatsit_ibm_beamal_test_universal_alec/quantum/process_keycode/process_unicode_common.o
                                                  .build/obj_xwhatsit_ibm_beamal_test_universal_alec/quantum/quantum.o
unregister_code16                                 .build/obj_xwhatsit_ibm_beamal_test_universal_alec/quantum/quantum.o
unregister_mods                                   .build/obj_xwhatsit_ibm_beamal_test_universal_alec/quantum/action.o
                                                  .build/obj_xwhatsit_ibm_beamal_test_universal_alec/quantum/process_keycode/process_space_cadet.o
                                                  .build/obj_xwhatsit_ibm_beamal_test_universal_alec/quantum/quantum.o
unregister_weak_mods                              .build/obj_xwhatsit_ibm_beamal_test_universal_alec/quantum/action.o
                                                  .build/obj_xwhatsit_ibm_beamal_test_universal_alec/quantum/quantum.o
update_source_layers_cache                        .build/obj_xwhatsit_ibm_beamal_test_universal_alec/quantum/action_layer.o
                                                  .build/obj_xwhatsit_ibm_beamal_test_universal_alec/quantum/quantum.o
update_source_layers_cache_impl                   .build/obj_xwhatsit_ibm_beamal_test_universal_alec/quantum/action_layer.o
update_tri_layer                                  .build/obj_xwhatsit_ibm_beamal_test_universal_alec/quantum/quantum.o
update_tri_layer_state                            .build/obj_xwhatsit_ibm_beamal_test_universal_alec/quantum/quantum.o
usb_connected_state                               .build/obj_xwhatsit_ibm_beamal_test_universal_alec/protocol/lufa/usb_util.o
                                                  .build/obj_xwhatsit_ibm_beamal_test_universal_alec/protocol/usb_util.o
usb_device_state                                  .build/obj_xwhatsit_ibm_beamal_test_universal_alec/protocol/usb_device_state.o
                                                  .build/obj_xwhatsit_ibm_beamal_test_universal_alec/quantum/haptic.o
                                                  .build/obj_xwhatsit_ibm_beamal_test_universal_alec/quantum/process_keycode/process_haptic.o
                                                  .build/obj_xwhatsit_ibm_beamal_test_universal_alec/solenoid.o
usb_device_state_init                             .build/obj_xwhatsit_ibm_beamal_test_universal_alec/protocol/usb_device_state.o
                                                  .build/obj_xwhatsit_ibm_beamal_test_universal_alec/lufa.o
usb_device_state_set_configuration                .build/obj_xwhatsit_ibm_beamal_test_universal_alec/protocol/usb_device_state.o
                                                  .build/obj_xwhatsit_ibm_beamal_test_universal_alec/lufa.o
usb_device_state_set_reset                        .build/obj_xwhatsit_ibm_beamal_test_universal_alec/protocol/usb_device_state.o
                                                  .build/obj_xwhatsit_ibm_beamal_test_universal_alec/lufa.o
usb_device_state_set_resume                       .build/obj_xwhatsit_ibm_beamal_test_universal_alec/protocol/usb_device_state.o
                                                  .build/obj_xwhatsit_ibm_beamal_test_universal_alec/lufa.o
usb_device_state_set_suspend                      .build/obj_xwhatsit_ibm_beamal_test_universal_alec/protocol/usb_device_state.o
                                                  .build/obj_xwhatsit_ibm_beamal_test_universal_alec/lufa.o
usb_disconnect                                    .build/obj_xwhatsit_ibm_beamal_test_universal_alec/protocol/lufa/usb_util.o
                                                  .build/obj_xwhatsit_ibm_beamal_test_universal_alec/protocol/usb_util.o
usb_vbus_state                                    .build/obj_xwhatsit_ibm_beamal_test_universal_alec/protocol/lufa/usb_util.o
                                                  .build/obj_xwhatsit_ibm_beamal_test_universal_alec/protocol/usb_util.o
xfunc_out                                         .build/obj_xwhatsit_ibm_beamal_test_universal_alec/platforms/avr/xprintf.o
                                                  .build/obj_xwhatsit_ibm_beamal_test_universal_alec/platforms/avr/printf.o
xitoa                                             .build/obj_xwhatsit_ibm_beamal_test_universal_alec/platforms/avr/xprintf.o
xputc                                             .build/obj_xwhatsit_ibm_beamal_test_universal_alec/platforms/avr/xprintf.o
xputs                                             .build/obj_xwhatsit_ibm_beamal_test_universal_alec/platforms/avr/xprintf.o
                                                  .build/obj_xwhatsit_ibm_beamal_test_universal_alec/lufa.o
                                                  .build/obj_xwhatsit_ibm_beamal_test_universal_alec/protocol/host.o
                                                  .build/obj_xwhatsit_ibm_beamal_test_universal_alec/quantum/process_keycode/process_dynamic_macro.o
                                                  .build/obj_xwhatsit_ibm_beamal_test_universal_alec/quantum/matrix_common.o
                                                  .build/obj_xwhatsit_ibm_beamal_test_universal_alec/quantum/led.o
                                                  .build/obj_xwhatsit_ibm_beamal_test_universal_alec/quantum/quantum.o
                                                  .build/obj_xwhatsit_ibm_beamal_test_universal_alec/keyboards/xwhatsit/matrix.o
